
top.elf:     file format elf32-littleriscv


Disassembly of section .text:

10000000 <_ftext>:
10000000:	0b00006f          	j	100000b0 <crt_init>
10000004:	00000013          	nop
10000008:	00000013          	nop
1000000c:	00000013          	nop
10000010:	00000013          	nop
10000014:	00000013          	nop
10000018:	00000013          	nop
1000001c:	00000013          	nop

10000020 <trap_entry>:
10000020:	fe112e23          	sw	ra,-4(sp)
10000024:	fe512c23          	sw	t0,-8(sp)
10000028:	fe612a23          	sw	t1,-12(sp)
1000002c:	fe712823          	sw	t2,-16(sp)
10000030:	fea12623          	sw	a0,-20(sp)
10000034:	feb12423          	sw	a1,-24(sp)
10000038:	fec12223          	sw	a2,-28(sp)
1000003c:	fed12023          	sw	a3,-32(sp)
10000040:	fce12e23          	sw	a4,-36(sp)
10000044:	fcf12c23          	sw	a5,-40(sp)
10000048:	fd012a23          	sw	a6,-44(sp)
1000004c:	fd112823          	sw	a7,-48(sp)
10000050:	fdc12623          	sw	t3,-52(sp)
10000054:	fdd12423          	sw	t4,-56(sp)
10000058:	fde12223          	sw	t5,-60(sp)
1000005c:	fdf12023          	sw	t6,-64(sp)
10000060:	fc010113          	addi	sp,sp,-64
10000064:	0f4000ef          	jal	ra,10000158 <isr>
10000068:	03c12083          	lw	ra,60(sp)
1000006c:	03812283          	lw	t0,56(sp)
10000070:	03412303          	lw	t1,52(sp)
10000074:	03012383          	lw	t2,48(sp)
10000078:	02c12503          	lw	a0,44(sp)
1000007c:	02812583          	lw	a1,40(sp)
10000080:	02412603          	lw	a2,36(sp)
10000084:	02012683          	lw	a3,32(sp)
10000088:	01c12703          	lw	a4,28(sp)
1000008c:	01812783          	lw	a5,24(sp)
10000090:	01412803          	lw	a6,20(sp)
10000094:	01012883          	lw	a7,16(sp)
10000098:	00c12e03          	lw	t3,12(sp)
1000009c:	00812e83          	lw	t4,8(sp)
100000a0:	00412f03          	lw	t5,4(sp)
100000a4:	00012f83          	lw	t6,0(sp)
100000a8:	04010113          	addi	sp,sp,64
100000ac:	30200073          	mret

100000b0 <crt_init>:
100000b0:	60000113          	li	sp,1536
100000b4:	00000517          	auipc	a0,0x0
100000b8:	f6c50513          	addi	a0,a0,-148 # 10000020 <trap_entry>
100000bc:	30551073          	csrw	mtvec,a0

100000c0 <sram_init>:
100000c0:	28000517          	auipc	a0,0x28000
100000c4:	f4050513          	addi	a0,a0,-192 # 38000000 <__mulsi3>
100000c8:	28001597          	auipc	a1,0x28001
100000cc:	dbc58593          	addi	a1,a1,-580 # 38000e84 <_esram>
100000d0:	00000617          	auipc	a2,0x0
100000d4:	45860613          	addi	a2,a2,1112 # 10000528 <_erodata>

100000d8 <sram_loop>:
100000d8:	00b50c63          	beq	a0,a1,100000f0 <data_init>
100000dc:	00062683          	lw	a3,0(a2)
100000e0:	00d52023          	sw	a3,0(a0)
100000e4:	00450513          	addi	a0,a0,4
100000e8:	00460613          	addi	a2,a2,4
100000ec:	fedff06f          	j	100000d8 <sram_loop>

100000f0 <data_init>:
100000f0:	28001517          	auipc	a0,0x28001
100000f4:	f1050513          	addi	a0,a0,-240 # 38001000 <B>
100000f8:	28001597          	auipc	a1,0x28001
100000fc:	0b858593          	addi	a1,a1,184 # 380011b0 <result>
10000100:	00001617          	auipc	a2,0x1
10000104:	2ac60613          	addi	a2,a2,684 # 100013ac <_fdata_rom>

10000108 <data_loop>:
10000108:	00b50c63          	beq	a0,a1,10000120 <bss_init>
1000010c:	00062683          	lw	a3,0(a2)
10000110:	00d52023          	sw	a3,0(a0)
10000114:	00450513          	addi	a0,a0,4
10000118:	00460613          	addi	a2,a2,4
1000011c:	fedff06f          	j	10000108 <data_loop>

10000120 <bss_init>:
10000120:	28001517          	auipc	a0,0x28001
10000124:	09050513          	addi	a0,a0,144 # 380011b0 <result>
10000128:	28001597          	auipc	a1,0x28001
1000012c:	1c858593          	addi	a1,a1,456 # 380012f0 <_ebss>

10000130 <bss_loop>:
10000130:	00b50863          	beq	a0,a1,10000140 <bss_done>
10000134:	00052023          	sw	zero,0(a0)
10000138:	00450513          	addi	a0,a0,4
1000013c:	ff5ff06f          	j	10000130 <bss_loop>

10000140 <bss_done>:
10000140:	00001537          	lui	a0,0x1
10000144:	88050513          	addi	a0,a0,-1920 # 880 <_fstack+0x280>
10000148:	30451073          	csrw	mie,a0
1000014c:	30046573          	csrrsi	a0,mstatus,8
10000150:	1c0000ef          	jal	ra,10000310 <main>

10000154 <infinit_loop>:
10000154:	0000006f          	j	10000154 <infinit_loop>

10000158 <isr>:
10000158:	fc002773          	csrr	a4,0xfc0
1000015c:	bc0027f3          	csrr	a5,0xbc0
10000160:	00e7f7b3          	and	a5,a5,a4
10000164:	0047f793          	andi	a5,a5,4
10000168:	00079463          	bnez	a5,10000170 <isr+0x18>
1000016c:	00008067          	ret
10000170:	ff010113          	addi	sp,sp,-16
10000174:	00112623          	sw	ra,12(sp)
10000178:	f00077b7          	lui	a5,0xf0007
1000017c:	00100713          	li	a4,1
10000180:	80e7a823          	sw	a4,-2032(a5) # f0006810 <_ebss+0xb8005520>
10000184:	164000ef          	jal	ra,100002e8 <uart_read>
10000188:	00c12083          	lw	ra,12(sp)
1000018c:	01010113          	addi	sp,sp,16
10000190:	0880006f          	j	10000218 <uart_write>

10000194 <putchar>:
10000194:	00a00793          	li	a5,10
10000198:	00f50e63          	beq	a0,a5,100001b4 <putchar+0x20>
1000019c:	f0006737          	lui	a4,0xf0006
100001a0:	00100693          	li	a3,1
100001a4:	80472783          	lw	a5,-2044(a4) # f0005804 <_ebss+0xb8004514>
100001a8:	fed78ee3          	beq	a5,a3,100001a4 <putchar+0x10>
100001ac:	80a72023          	sw	a0,-2048(a4)
100001b0:	00008067          	ret
100001b4:	f0006737          	lui	a4,0xf0006
100001b8:	00100693          	li	a3,1
100001bc:	80472783          	lw	a5,-2044(a4) # f0005804 <_ebss+0xb8004514>
100001c0:	fed78ee3          	beq	a5,a3,100001bc <putchar+0x28>
100001c4:	00d00793          	li	a5,13
100001c8:	80f72023          	sw	a5,-2048(a4)
100001cc:	fd1ff06f          	j	1000019c <putchar+0x8>

100001d0 <print>:
100001d0:	00054603          	lbu	a2,0(a0)
100001d4:	02060863          	beqz	a2,10000204 <print+0x34>
100001d8:	00a00593          	li	a1,10
100001dc:	f0006737          	lui	a4,0xf0006
100001e0:	00100693          	li	a3,1
100001e4:	00d00813          	li	a6,13
100001e8:	00150513          	addi	a0,a0,1
100001ec:	00b60e63          	beq	a2,a1,10000208 <print+0x38>
100001f0:	80472783          	lw	a5,-2044(a4) # f0005804 <_ebss+0xb8004514>
100001f4:	fed78ee3          	beq	a5,a3,100001f0 <print+0x20>
100001f8:	80c72023          	sw	a2,-2048(a4)
100001fc:	00054603          	lbu	a2,0(a0)
10000200:	fe0614e3          	bnez	a2,100001e8 <print+0x18>
10000204:	00008067          	ret
10000208:	80472783          	lw	a5,-2044(a4)
1000020c:	fed78ee3          	beq	a5,a3,10000208 <print+0x38>
10000210:	81072023          	sw	a6,-2048(a4)
10000214:	fddff06f          	j	100001f0 <print+0x20>

Disassembly of section .mprj:

10000218 <uart_write>:
10000218:	30000737          	lui	a4,0x30000
1000021c:	00872783          	lw	a5,8(a4) # 30000008 <_fdata_rom+0x1fffec5c>
10000220:	0087f793          	andi	a5,a5,8
10000224:	fe079ce3          	bnez	a5,1000021c <uart_write+0x4>
10000228:	00a72223          	sw	a0,4(a4)
1000022c:	00008067          	ret

10000230 <uart_write_char>:
10000230:	00a00793          	li	a5,10
10000234:	00f50e63          	beq	a0,a5,10000250 <uart_write_char+0x20>
10000238:	30000737          	lui	a4,0x30000
1000023c:	00872783          	lw	a5,8(a4) # 30000008 <_fdata_rom+0x1fffec5c>
10000240:	0087f793          	andi	a5,a5,8
10000244:	fe079ce3          	bnez	a5,1000023c <uart_write_char+0xc>
10000248:	00a72223          	sw	a0,4(a4)
1000024c:	00008067          	ret
10000250:	30000737          	lui	a4,0x30000
10000254:	00872783          	lw	a5,8(a4) # 30000008 <_fdata_rom+0x1fffec5c>
10000258:	0087f793          	andi	a5,a5,8
1000025c:	fe079ce3          	bnez	a5,10000254 <uart_write_char+0x24>
10000260:	00d00793          	li	a5,13
10000264:	00f72223          	sw	a5,4(a4)
10000268:	fd1ff06f          	j	10000238 <uart_write_char+0x8>

1000026c <uart_write_string>:
1000026c:	00054683          	lbu	a3,0(a0)
10000270:	02068863          	beqz	a3,100002a0 <uart_write_string+0x34>
10000274:	00a00613          	li	a2,10
10000278:	30000737          	lui	a4,0x30000
1000027c:	00d00593          	li	a1,13
10000280:	00150513          	addi	a0,a0,1
10000284:	02c68063          	beq	a3,a2,100002a4 <uart_write_string+0x38>
10000288:	00872783          	lw	a5,8(a4) # 30000008 <_fdata_rom+0x1fffec5c>
1000028c:	0087f793          	andi	a5,a5,8
10000290:	fe079ce3          	bnez	a5,10000288 <uart_write_string+0x1c>
10000294:	00d72223          	sw	a3,4(a4)
10000298:	00054683          	lbu	a3,0(a0)
1000029c:	fe0692e3          	bnez	a3,10000280 <uart_write_string+0x14>
100002a0:	00008067          	ret
100002a4:	00872783          	lw	a5,8(a4)
100002a8:	0087f793          	andi	a5,a5,8
100002ac:	fe079ce3          	bnez	a5,100002a4 <uart_write_string+0x38>
100002b0:	00b72223          	sw	a1,4(a4)
100002b4:	fd5ff06f          	j	10000288 <uart_write_string+0x1c>

100002b8 <uart_read_char>:
100002b8:	30000737          	lui	a4,0x30000
100002bc:	00872783          	lw	a5,8(a4) # 30000008 <_fdata_rom+0x1fffec5c>
100002c0:	00000513          	li	a0,0
100002c4:	0057d793          	srli	a5,a5,0x5
100002c8:	00079e63          	bnez	a5,100002e4 <uart_read_char+0x2c>
100002cc:	00872783          	lw	a5,8(a4)
100002d0:	0047d793          	srli	a5,a5,0x4
100002d4:	00079863          	bnez	a5,100002e4 <uart_read_char+0x2c>
100002d8:	00000013          	nop
100002dc:	00072503          	lw	a0,0(a4)
100002e0:	0ff57513          	zext.b	a0,a0
100002e4:	00008067          	ret

100002e8 <uart_read>:
100002e8:	30000737          	lui	a4,0x30000
100002ec:	00872783          	lw	a5,8(a4) # 30000008 <_fdata_rom+0x1fffec5c>
100002f0:	0057d793          	srli	a5,a5,0x5
100002f4:	00079c63          	bnez	a5,1000030c <uart_read+0x24>
100002f8:	00872783          	lw	a5,8(a4)
100002fc:	0047d793          	srli	a5,a5,0x4
10000300:	00079663          	bnez	a5,1000030c <uart_read+0x24>
10000304:	00000013          	nop
10000308:	00072503          	lw	a0,0(a4)
1000030c:	00008067          	ret

Disassembly of section .text.startup:

10000310 <main>:
10000310:	ff010113          	addi	sp,sp,-16
10000314:	000026b7          	lui	a3,0x2
10000318:	260007b7          	lui	a5,0x26000
1000031c:	80968713          	addi	a4,a3,-2039 # 1809 <_fstack+0x1209>
10000320:	00112623          	sw	ra,12(sp)
10000324:	00812423          	sw	s0,8(sp)
10000328:	0ae7a023          	sw	a4,160(a5) # 260000a0 <_fdata_rom+0x15ffecf4>
1000032c:	08e7ae23          	sw	a4,156(a5)
10000330:	08e7ac23          	sw	a4,152(a5)
10000334:	08e7aa23          	sw	a4,148(a5)
10000338:	08e7a823          	sw	a4,144(a5)
1000033c:	08e7a623          	sw	a4,140(a5)
10000340:	08e7a423          	sw	a4,136(a5)
10000344:	08e7a223          	sw	a4,132(a5)
10000348:	08e7a023          	sw	a4,128(a5)
1000034c:	06e7ae23          	sw	a4,124(a5)
10000350:	06e7ac23          	sw	a4,120(a5)
10000354:	06e7aa23          	sw	a4,116(a5)
10000358:	06e7a823          	sw	a4,112(a5)
1000035c:	06e7a623          	sw	a4,108(a5)
10000360:	06e7a423          	sw	a4,104(a5)
10000364:	06e7a223          	sw	a4,100(a5)
10000368:	06e7a023          	sw	a4,96(a5)
1000036c:	04e7ae23          	sw	a4,92(a5)
10000370:	04e7ac23          	sw	a4,88(a5)
10000374:	04e7aa23          	sw	a4,84(a5)
10000378:	04e7a823          	sw	a4,80(a5)
1000037c:	04e7a623          	sw	a4,76(a5)
10000380:	04e7a423          	sw	a4,72(a5)
10000384:	04e7a223          	sw	a4,68(a5)
10000388:	04e7a023          	sw	a4,64(a5)
1000038c:	02e7aa23          	sw	a4,52(a5)
10000390:	02e7a823          	sw	a4,48(a5)
10000394:	02e7a623          	sw	a4,44(a5)
10000398:	02e7a423          	sw	a4,40(a5)
1000039c:	02e7a223          	sw	a4,36(a5)
100003a0:	80868693          	addi	a3,a3,-2040
100003a4:	40200713          	li	a4,1026
100003a8:	02d7ae23          	sw	a3,60(a5)
100003ac:	02e7ac23          	sw	a4,56(a5)
100003b0:	00100713          	li	a4,1
100003b4:	00e7a023          	sw	a4,0(a5)
100003b8:	260006b7          	lui	a3,0x26000
100003bc:	0006a783          	lw	a5,0(a3) # 26000000 <_fdata_rom+0x15ffec54>
100003c0:	fee78ee3          	beq	a5,a4,100003bc <main+0xac>
100003c4:	f00037b7          	lui	a5,0xf0003
100003c8:	0007a623          	sw	zero,12(a5) # f000300c <_ebss+0xb8001d1c>
100003cc:	0007ae23          	sw	zero,28(a5)
100003d0:	fff00613          	li	a2,-1
100003d4:	00c7a423          	sw	a2,8(a5)
100003d8:	00c7ac23          	sw	a2,24(a5)
100003dc:	0007a223          	sw	zero,4(a5)
100003e0:	0007aa23          	sw	zero,20(a5)
100003e4:	0007a023          	sw	zero,0(a5)
100003e8:	0007a823          	sw	zero,16(a5)
100003ec:	ab400637          	lui	a2,0xab400
100003f0:	00c6a623          	sw	a2,12(a3)
100003f4:	0207ac23          	sw	zero,56(a5)
100003f8:	0007a423          	sw	zero,8(a5)
100003fc:	0007ac23          	sw	zero,24(a5)
10000400:	bc0027f3          	csrr	a5,0xbc0
10000404:	0047e793          	ori	a5,a5,4
10000408:	bc079073          	csrw	0xbc0,a5
1000040c:	f00077b7          	lui	a5,0xf0007
10000410:	80e7aa23          	sw	a4,-2028(a5) # f0006814 <_ebss+0xb8005524>
10000414:	28001097          	auipc	ra,0x28001
10000418:	9c8080e7          	jalr	-1592(ra) # 38000ddc <fir>
1000041c:	10050713          	addi	a4,a0,256
10000420:	26000437          	lui	s0,0x26000
10000424:	00052783          	lw	a5,0(a0)
10000428:	00450513          	addi	a0,a0,4
1000042c:	01079793          	slli	a5,a5,0x10
10000430:	00f42623          	sw	a5,12(s0) # 2600000c <_fdata_rom+0x15ffec60>
10000434:	fea718e3          	bne	a4,a0,10000424 <main+0x114>
10000438:	ab6107b7          	lui	a5,0xab610
1000043c:	00f42623          	sw	a5,12(s0)
10000440:	28000097          	auipc	ra,0x28000
10000444:	6f4080e7          	jalr	1780(ra) # 38000b34 <qsort>
10000448:	00052703          	lw	a4,0(a0)
1000044c:	00452783          	lw	a5,4(a0)
10000450:	00852603          	lw	a2,8(a0)
10000454:	00c52683          	lw	a3,12(a0)
10000458:	01071713          	slli	a4,a4,0x10
1000045c:	00e42623          	sw	a4,12(s0)
10000460:	01079793          	slli	a5,a5,0x10
10000464:	01052703          	lw	a4,16(a0)
10000468:	01061613          	slli	a2,a2,0x10
1000046c:	00f42623          	sw	a5,12(s0)
10000470:	01452783          	lw	a5,20(a0)
10000474:	01069693          	slli	a3,a3,0x10
10000478:	00c42623          	sw	a2,12(s0)
1000047c:	01852603          	lw	a2,24(a0)
10000480:	01071713          	slli	a4,a4,0x10
10000484:	00d42623          	sw	a3,12(s0)
10000488:	01c52683          	lw	a3,28(a0)
1000048c:	01079793          	slli	a5,a5,0x10
10000490:	00e42623          	sw	a4,12(s0)
10000494:	02052703          	lw	a4,32(a0)
10000498:	01061613          	slli	a2,a2,0x10
1000049c:	00f42623          	sw	a5,12(s0)
100004a0:	02452783          	lw	a5,36(a0)
100004a4:	01069693          	slli	a3,a3,0x10
100004a8:	00c42623          	sw	a2,12(s0)
100004ac:	00d42623          	sw	a3,12(s0)
100004b0:	01071713          	slli	a4,a4,0x10
100004b4:	00e42623          	sw	a4,12(s0)
100004b8:	01079793          	slli	a5,a5,0x10
100004bc:	00f42623          	sw	a5,12(s0)
100004c0:	ab7107b7          	lui	a5,0xab710
100004c4:	00f42623          	sw	a5,12(s0)
100004c8:	28000097          	auipc	ra,0x28000
100004cc:	b5c080e7          	jalr	-1188(ra) # 38000024 <matmul>
100004d0:	00052783          	lw	a5,0(a0)
100004d4:	00452603          	lw	a2,4(a0)
100004d8:	00852683          	lw	a3,8(a0)
100004dc:	00c52703          	lw	a4,12(a0)
100004e0:	01079793          	slli	a5,a5,0x10
100004e4:	00f42623          	sw	a5,12(s0)
100004e8:	01061613          	slli	a2,a2,0x10
100004ec:	02452783          	lw	a5,36(a0)
100004f0:	01069693          	slli	a3,a3,0x10
100004f4:	00c42623          	sw	a2,12(s0)
100004f8:	00d42623          	sw	a3,12(s0)
100004fc:	01071713          	slli	a4,a4,0x10
10000500:	00e42623          	sw	a4,12(s0)
10000504:	01079793          	slli	a5,a5,0x10
10000508:	00f42623          	sw	a5,12(s0)
1000050c:	ab5107b7          	lui	a5,0xab510
10000510:	00c12083          	lw	ra,12(sp)
10000514:	00f42623          	sw	a5,12(s0)
10000518:	00812403          	lw	s0,8(sp)
1000051c:	01010113          	addi	sp,sp,16
10000520:	00008067          	ret

Disassembly of section .rodata:

10000524 <_erodata-0x4>:
10000524:	0000                	.2byte	0x0
	...

Disassembly of section .mprjram:

38000000 <__mulsi3>:
38000000:	00050613          	mv	a2,a0
38000004:	00000513          	li	a0,0
38000008:	0015f693          	andi	a3,a1,1
3800000c:	00068463          	beqz	a3,38000014 <__mulsi3+0x14>
38000010:	00c50533          	add	a0,a0,a2
38000014:	0015d593          	srli	a1,a1,0x1
38000018:	00161613          	slli	a2,a2,0x1
3800001c:	fe0596e3          	bnez	a1,38000008 <__mulsi3+0x8>
38000020:	00008067          	ret

38000024 <matmul>:
38000024:	f9010113          	addi	sp,sp,-112
38000028:	06812423          	sw	s0,104(sp)
3800002c:	38001437          	lui	s0,0x38001
38000030:	00040413          	mv	s0,s0
38000034:	07212023          	sw	s2,96(sp)
38000038:	01042783          	lw	a5,16(s0) # 38001010 <B+0x10>
3800003c:	04442903          	lw	s2,68(s0)
38000040:	05312e23          	sw	s3,92(sp)
38000044:	05812423          	sw	s8,72(sp)
38000048:	00042983          	lw	s3,0(s0)
3800004c:	04042c03          	lw	s8,64(s0)
38000050:	00090593          	mv	a1,s2
38000054:	00078513          	mv	a0,a5
38000058:	06112623          	sw	ra,108(sp)
3800005c:	06912223          	sw	s1,100(sp)
38000060:	05412c23          	sw	s4,88(sp)
38000064:	05512a23          	sw	s5,84(sp)
38000068:	05612823          	sw	s6,80(sp)
3800006c:	05712623          	sw	s7,76(sp)
38000070:	05912223          	sw	s9,68(sp)
38000074:	05a12023          	sw	s10,64(sp)
38000078:	03b12e23          	sw	s11,60(sp)
3800007c:	00f12c23          	sw	a5,24(sp)
38000080:	f81ff0ef          	jal	ra,38000000 <__mulsi3>
38000084:	000c0593          	mv	a1,s8
38000088:	00050493          	mv	s1,a0
3800008c:	00098513          	mv	a0,s3
38000090:	02042b83          	lw	s7,32(s0)
38000094:	01312a23          	sw	s3,20(sp)
38000098:	f69ff0ef          	jal	ra,38000000 <__mulsi3>
3800009c:	04842c83          	lw	s9,72(s0)
380000a0:	00050793          	mv	a5,a0
380000a4:	000b8513          	mv	a0,s7
380000a8:	000c8593          	mv	a1,s9
380000ac:	03042b03          	lw	s6,48(s0)
380000b0:	00f484b3          	add	s1,s1,a5
380000b4:	f4dff0ef          	jal	ra,38000000 <__mulsi3>
380000b8:	04c42d03          	lw	s10,76(s0)
380000bc:	00050993          	mv	s3,a0
380000c0:	000b0513          	mv	a0,s6
380000c4:	000d0593          	mv	a1,s10
380000c8:	f39ff0ef          	jal	ra,38000000 <__mulsi3>
380000cc:	01442a03          	lw	s4,20(s0)
380000d0:	009989b3          	add	s3,s3,s1
380000d4:	38001737          	lui	a4,0x38001
380000d8:	1b070493          	addi	s1,a4,432 # 380011b0 <result>
380000dc:	013507b3          	add	a5,a0,s3
380000e0:	00f4a023          	sw	a5,0(s1)
380000e4:	00090593          	mv	a1,s2
380000e8:	000a0513          	mv	a0,s4
380000ec:	f15ff0ef          	jal	ra,38000000 <__mulsi3>
380000f0:	00442a83          	lw	s5,4(s0)
380000f4:	03442703          	lw	a4,52(s0)
380000f8:	000c0593          	mv	a1,s8
380000fc:	00050993          	mv	s3,a0
38000100:	000a8513          	mv	a0,s5
38000104:	00e12223          	sw	a4,4(sp)
38000108:	02442d83          	lw	s11,36(s0)
3800010c:	ef5ff0ef          	jal	ra,38000000 <__mulsi3>
38000110:	01842683          	lw	a3,24(s0)
38000114:	00050793          	mv	a5,a0
38000118:	000c8593          	mv	a1,s9
3800011c:	000d8513          	mv	a0,s11
38000120:	01b12e23          	sw	s11,28(sp)
38000124:	00f989b3          	add	s3,s3,a5
38000128:	00068d93          	mv	s11,a3
3800012c:	ed5ff0ef          	jal	ra,38000000 <__mulsi3>
38000130:	00842683          	lw	a3,8(s0)
38000134:	00050793          	mv	a5,a0
38000138:	00412503          	lw	a0,4(sp)
3800013c:	000d0593          	mv	a1,s10
38000140:	00d12423          	sw	a3,8(sp)
38000144:	013789b3          	add	s3,a5,s3
38000148:	eb9ff0ef          	jal	ra,38000000 <__mulsi3>
3800014c:	02842603          	lw	a2,40(s0)
38000150:	013507b3          	add	a5,a0,s3
38000154:	00f4a223          	sw	a5,4(s1)
38000158:	00090593          	mv	a1,s2
3800015c:	000d8513          	mv	a0,s11
38000160:	03b12023          	sw	s11,32(sp)
38000164:	00060d93          	mv	s11,a2
38000168:	e99ff0ef          	jal	ra,38000000 <__mulsi3>
3800016c:	03842603          	lw	a2,56(s0)
38000170:	00050993          	mv	s3,a0
38000174:	00812503          	lw	a0,8(sp)
38000178:	000c0593          	mv	a1,s8
3800017c:	00c12623          	sw	a2,12(sp)
38000180:	e81ff0ef          	jal	ra,38000000 <__mulsi3>
38000184:	01c42803          	lw	a6,28(s0)
38000188:	00050793          	mv	a5,a0
3800018c:	000c8593          	mv	a1,s9
38000190:	000d8513          	mv	a0,s11
38000194:	03b12223          	sw	s11,36(sp)
38000198:	00f989b3          	add	s3,s3,a5
3800019c:	00080d93          	mv	s11,a6
380001a0:	e61ff0ef          	jal	ra,38000000 <__mulsi3>
380001a4:	00c42803          	lw	a6,12(s0)
380001a8:	00050793          	mv	a5,a0
380001ac:	00c12503          	lw	a0,12(sp)
380001b0:	000d0593          	mv	a1,s10
380001b4:	01012823          	sw	a6,16(sp)
380001b8:	013789b3          	add	s3,a5,s3
380001bc:	e45ff0ef          	jal	ra,38000000 <__mulsi3>
380001c0:	013507b3          	add	a5,a0,s3
380001c4:	00090593          	mv	a1,s2
380001c8:	00f4a423          	sw	a5,8(s1)
380001cc:	000d8513          	mv	a0,s11
380001d0:	03b12423          	sw	s11,40(sp)
380001d4:	e2dff0ef          	jal	ra,38000000 <__mulsi3>
380001d8:	00050793          	mv	a5,a0
380001dc:	01012503          	lw	a0,16(sp)
380001e0:	02c42983          	lw	s3,44(s0)
380001e4:	000c0593          	mv	a1,s8
380001e8:	03c42903          	lw	s2,60(s0)
380001ec:	00078c13          	mv	s8,a5
380001f0:	e11ff0ef          	jal	ra,38000000 <__mulsi3>
380001f4:	00050793          	mv	a5,a0
380001f8:	00098593          	mv	a1,s3
380001fc:	000c8513          	mv	a0,s9
38000200:	00fc0c33          	add	s8,s8,a5
38000204:	dfdff0ef          	jal	ra,38000000 <__mulsi3>
38000208:	00050793          	mv	a5,a0
3800020c:	00090593          	mv	a1,s2
38000210:	000d0513          	mv	a0,s10
38000214:	01878c33          	add	s8,a5,s8
38000218:	de9ff0ef          	jal	ra,38000000 <__mulsi3>
3800021c:	05442d83          	lw	s11,84(s0)
38000220:	018507b3          	add	a5,a0,s8
38000224:	01812503          	lw	a0,24(sp)
38000228:	00f4a623          	sw	a5,12(s1)
3800022c:	000d8593          	mv	a1,s11
38000230:	dd1ff0ef          	jal	ra,38000000 <__mulsi3>
38000234:	05042d03          	lw	s10,80(s0)
38000238:	00050c13          	mv	s8,a0
3800023c:	01412503          	lw	a0,20(sp)
38000240:	000d0593          	mv	a1,s10
38000244:	dbdff0ef          	jal	ra,38000000 <__mulsi3>
38000248:	05842c83          	lw	s9,88(s0)
3800024c:	00ac07b3          	add	a5,s8,a0
38000250:	000b8593          	mv	a1,s7
38000254:	000c8513          	mv	a0,s9
38000258:	02f12623          	sw	a5,44(sp)
3800025c:	da5ff0ef          	jal	ra,38000000 <__mulsi3>
38000260:	02c12783          	lw	a5,44(sp)
38000264:	05c42c03          	lw	s8,92(s0)
38000268:	000b0593          	mv	a1,s6
3800026c:	00f507b3          	add	a5,a0,a5
38000270:	000c0513          	mv	a0,s8
38000274:	02f12623          	sw	a5,44(sp)
38000278:	d89ff0ef          	jal	ra,38000000 <__mulsi3>
3800027c:	02c12783          	lw	a5,44(sp)
38000280:	000a0593          	mv	a1,s4
38000284:	00f507b3          	add	a5,a0,a5
38000288:	00f4a823          	sw	a5,16(s1)
3800028c:	000d8513          	mv	a0,s11
38000290:	d71ff0ef          	jal	ra,38000000 <__mulsi3>
38000294:	00050793          	mv	a5,a0
38000298:	000a8593          	mv	a1,s5
3800029c:	000d0513          	mv	a0,s10
380002a0:	02f12623          	sw	a5,44(sp)
380002a4:	d5dff0ef          	jal	ra,38000000 <__mulsi3>
380002a8:	02c12783          	lw	a5,44(sp)
380002ac:	01c12583          	lw	a1,28(sp)
380002b0:	00050713          	mv	a4,a0
380002b4:	00e787b3          	add	a5,a5,a4
380002b8:	000c8513          	mv	a0,s9
380002bc:	02f12623          	sw	a5,44(sp)
380002c0:	d41ff0ef          	jal	ra,38000000 <__mulsi3>
380002c4:	02c12783          	lw	a5,44(sp)
380002c8:	00412583          	lw	a1,4(sp)
380002cc:	00050713          	mv	a4,a0
380002d0:	00f707b3          	add	a5,a4,a5
380002d4:	000c0513          	mv	a0,s8
380002d8:	02f12623          	sw	a5,44(sp)
380002dc:	d25ff0ef          	jal	ra,38000000 <__mulsi3>
380002e0:	02c12783          	lw	a5,44(sp)
380002e4:	02012583          	lw	a1,32(sp)
380002e8:	00f507b3          	add	a5,a0,a5
380002ec:	00f4aa23          	sw	a5,20(s1)
380002f0:	000d8513          	mv	a0,s11
380002f4:	d0dff0ef          	jal	ra,38000000 <__mulsi3>
380002f8:	00812583          	lw	a1,8(sp)
380002fc:	00050793          	mv	a5,a0
38000300:	000d0513          	mv	a0,s10
38000304:	02f12623          	sw	a5,44(sp)
38000308:	cf9ff0ef          	jal	ra,38000000 <__mulsi3>
3800030c:	02c12783          	lw	a5,44(sp)
38000310:	02412583          	lw	a1,36(sp)
38000314:	00050713          	mv	a4,a0
38000318:	00e787b3          	add	a5,a5,a4
3800031c:	000c8513          	mv	a0,s9
38000320:	02f12623          	sw	a5,44(sp)
38000324:	cddff0ef          	jal	ra,38000000 <__mulsi3>
38000328:	02c12783          	lw	a5,44(sp)
3800032c:	00c12583          	lw	a1,12(sp)
38000330:	00050713          	mv	a4,a0
38000334:	00f707b3          	add	a5,a4,a5
38000338:	000c0513          	mv	a0,s8
3800033c:	02f12623          	sw	a5,44(sp)
38000340:	cc1ff0ef          	jal	ra,38000000 <__mulsi3>
38000344:	02c12783          	lw	a5,44(sp)
38000348:	02812583          	lw	a1,40(sp)
3800034c:	00f507b3          	add	a5,a0,a5
38000350:	00f4ac23          	sw	a5,24(s1)
38000354:	000d8513          	mv	a0,s11
38000358:	ca9ff0ef          	jal	ra,38000000 <__mulsi3>
3800035c:	01012583          	lw	a1,16(sp)
38000360:	00050793          	mv	a5,a0
38000364:	000d0513          	mv	a0,s10
38000368:	00078d13          	mv	s10,a5
3800036c:	c95ff0ef          	jal	ra,38000000 <__mulsi3>
38000370:	00050793          	mv	a5,a0
38000374:	00098593          	mv	a1,s3
38000378:	000c8513          	mv	a0,s9
3800037c:	00fd0cb3          	add	s9,s10,a5
38000380:	c81ff0ef          	jal	ra,38000000 <__mulsi3>
38000384:	00050793          	mv	a5,a0
38000388:	00090593          	mv	a1,s2
3800038c:	000c0513          	mv	a0,s8
38000390:	01978cb3          	add	s9,a5,s9
38000394:	c6dff0ef          	jal	ra,38000000 <__mulsi3>
38000398:	06042d83          	lw	s11,96(s0)
3800039c:	01412583          	lw	a1,20(sp)
380003a0:	019507b3          	add	a5,a0,s9
380003a4:	00f4ae23          	sw	a5,28(s1)
380003a8:	000d8513          	mv	a0,s11
380003ac:	c55ff0ef          	jal	ra,38000000 <__mulsi3>
380003b0:	06442d03          	lw	s10,100(s0)
380003b4:	01812583          	lw	a1,24(sp)
380003b8:	00050c13          	mv	s8,a0
380003bc:	000d0513          	mv	a0,s10
380003c0:	c41ff0ef          	jal	ra,38000000 <__mulsi3>
380003c4:	06842c83          	lw	s9,104(s0)
380003c8:	00ac07b3          	add	a5,s8,a0
380003cc:	000b8593          	mv	a1,s7
380003d0:	000c8513          	mv	a0,s9
380003d4:	02f12623          	sw	a5,44(sp)
380003d8:	c29ff0ef          	jal	ra,38000000 <__mulsi3>
380003dc:	02c12783          	lw	a5,44(sp)
380003e0:	06c42c03          	lw	s8,108(s0)
380003e4:	000b0593          	mv	a1,s6
380003e8:	00f507b3          	add	a5,a0,a5
380003ec:	000c0513          	mv	a0,s8
380003f0:	02f12623          	sw	a5,44(sp)
380003f4:	c0dff0ef          	jal	ra,38000000 <__mulsi3>
380003f8:	02c12783          	lw	a5,44(sp)
380003fc:	000a8593          	mv	a1,s5
38000400:	00f507b3          	add	a5,a0,a5
38000404:	02f4a023          	sw	a5,32(s1)
38000408:	000d8513          	mv	a0,s11
3800040c:	bf5ff0ef          	jal	ra,38000000 <__mulsi3>
38000410:	00050793          	mv	a5,a0
38000414:	000a0593          	mv	a1,s4
38000418:	000d0513          	mv	a0,s10
3800041c:	02f12623          	sw	a5,44(sp)
38000420:	be1ff0ef          	jal	ra,38000000 <__mulsi3>
38000424:	02c12783          	lw	a5,44(sp)
38000428:	01c12583          	lw	a1,28(sp)
3800042c:	00050713          	mv	a4,a0
38000430:	00e787b3          	add	a5,a5,a4
38000434:	000c8513          	mv	a0,s9
38000438:	02f12623          	sw	a5,44(sp)
3800043c:	bc5ff0ef          	jal	ra,38000000 <__mulsi3>
38000440:	00412583          	lw	a1,4(sp)
38000444:	02c12783          	lw	a5,44(sp)
38000448:	00050713          	mv	a4,a0
3800044c:	000c0513          	mv	a0,s8
38000450:	00f707b3          	add	a5,a4,a5
38000454:	02f12623          	sw	a5,44(sp)
38000458:	ba9ff0ef          	jal	ra,38000000 <__mulsi3>
3800045c:	02c12783          	lw	a5,44(sp)
38000460:	02012583          	lw	a1,32(sp)
38000464:	00f507b3          	add	a5,a0,a5
38000468:	02f4a223          	sw	a5,36(s1)
3800046c:	000d0513          	mv	a0,s10
38000470:	b91ff0ef          	jal	ra,38000000 <__mulsi3>
38000474:	00812583          	lw	a1,8(sp)
38000478:	00050793          	mv	a5,a0
3800047c:	000d8513          	mv	a0,s11
38000480:	02f12623          	sw	a5,44(sp)
38000484:	b7dff0ef          	jal	ra,38000000 <__mulsi3>
38000488:	02c12783          	lw	a5,44(sp)
3800048c:	02412583          	lw	a1,36(sp)
38000490:	00050713          	mv	a4,a0
38000494:	00e787b3          	add	a5,a5,a4
38000498:	000c8513          	mv	a0,s9
3800049c:	02f12623          	sw	a5,44(sp)
380004a0:	b61ff0ef          	jal	ra,38000000 <__mulsi3>
380004a4:	02c12783          	lw	a5,44(sp)
380004a8:	00c12583          	lw	a1,12(sp)
380004ac:	00050713          	mv	a4,a0
380004b0:	00f707b3          	add	a5,a4,a5
380004b4:	000c0513          	mv	a0,s8
380004b8:	02f12623          	sw	a5,44(sp)
380004bc:	b45ff0ef          	jal	ra,38000000 <__mulsi3>
380004c0:	02c12783          	lw	a5,44(sp)
380004c4:	01012583          	lw	a1,16(sp)
380004c8:	00f507b3          	add	a5,a0,a5
380004cc:	02f4a423          	sw	a5,40(s1)
380004d0:	000d8513          	mv	a0,s11
380004d4:	b2dff0ef          	jal	ra,38000000 <__mulsi3>
380004d8:	02812583          	lw	a1,40(sp)
380004dc:	00050793          	mv	a5,a0
380004e0:	000d0513          	mv	a0,s10
380004e4:	00078d13          	mv	s10,a5
380004e8:	b19ff0ef          	jal	ra,38000000 <__mulsi3>
380004ec:	00050793          	mv	a5,a0
380004f0:	00098593          	mv	a1,s3
380004f4:	000c8513          	mv	a0,s9
380004f8:	00fd0d33          	add	s10,s10,a5
380004fc:	b05ff0ef          	jal	ra,38000000 <__mulsi3>
38000500:	00050793          	mv	a5,a0
38000504:	00090593          	mv	a1,s2
38000508:	000c0513          	mv	a0,s8
3800050c:	01a78c33          	add	s8,a5,s10
38000510:	af1ff0ef          	jal	ra,38000000 <__mulsi3>
38000514:	07042d03          	lw	s10,112(s0)
38000518:	01412583          	lw	a1,20(sp)
3800051c:	018507b3          	add	a5,a0,s8
38000520:	02f4a623          	sw	a5,44(s1)
38000524:	000d0513          	mv	a0,s10
38000528:	ad9ff0ef          	jal	ra,38000000 <__mulsi3>
3800052c:	07442c83          	lw	s9,116(s0)
38000530:	01812583          	lw	a1,24(sp)
38000534:	00050d93          	mv	s11,a0
38000538:	000c8513          	mv	a0,s9
3800053c:	ac5ff0ef          	jal	ra,38000000 <__mulsi3>
38000540:	07842c03          	lw	s8,120(s0)
38000544:	000b8593          	mv	a1,s7
38000548:	00ad8bb3          	add	s7,s11,a0
3800054c:	000c0513          	mv	a0,s8
38000550:	ab1ff0ef          	jal	ra,38000000 <__mulsi3>
38000554:	07c42403          	lw	s0,124(s0)
38000558:	000b0593          	mv	a1,s6
3800055c:	01750bb3          	add	s7,a0,s7
38000560:	00040513          	mv	a0,s0
38000564:	a9dff0ef          	jal	ra,38000000 <__mulsi3>
38000568:	017507b3          	add	a5,a0,s7
3800056c:	000a8593          	mv	a1,s5
38000570:	02f4a823          	sw	a5,48(s1)
38000574:	000d0513          	mv	a0,s10
38000578:	a89ff0ef          	jal	ra,38000000 <__mulsi3>
3800057c:	00050793          	mv	a5,a0
38000580:	000a0593          	mv	a1,s4
38000584:	000c8513          	mv	a0,s9
38000588:	00078a13          	mv	s4,a5
3800058c:	a75ff0ef          	jal	ra,38000000 <__mulsi3>
38000590:	01c12583          	lw	a1,28(sp)
38000594:	00050793          	mv	a5,a0
38000598:	000c0513          	mv	a0,s8
3800059c:	00fa0a33          	add	s4,s4,a5
380005a0:	a61ff0ef          	jal	ra,38000000 <__mulsi3>
380005a4:	00412583          	lw	a1,4(sp)
380005a8:	00050793          	mv	a5,a0
380005ac:	00040513          	mv	a0,s0
380005b0:	01478a33          	add	s4,a5,s4
380005b4:	a4dff0ef          	jal	ra,38000000 <__mulsi3>
380005b8:	00812583          	lw	a1,8(sp)
380005bc:	014507b3          	add	a5,a0,s4
380005c0:	02f4aa23          	sw	a5,52(s1)
380005c4:	000d0513          	mv	a0,s10
380005c8:	a39ff0ef          	jal	ra,38000000 <__mulsi3>
380005cc:	02012583          	lw	a1,32(sp)
380005d0:	00050a13          	mv	s4,a0
380005d4:	000c8513          	mv	a0,s9
380005d8:	a29ff0ef          	jal	ra,38000000 <__mulsi3>
380005dc:	02412583          	lw	a1,36(sp)
380005e0:	00050793          	mv	a5,a0
380005e4:	000c0513          	mv	a0,s8
380005e8:	00fa0a33          	add	s4,s4,a5
380005ec:	a15ff0ef          	jal	ra,38000000 <__mulsi3>
380005f0:	00c12583          	lw	a1,12(sp)
380005f4:	00050793          	mv	a5,a0
380005f8:	00040513          	mv	a0,s0
380005fc:	01478a33          	add	s4,a5,s4
38000600:	a01ff0ef          	jal	ra,38000000 <__mulsi3>
38000604:	01012583          	lw	a1,16(sp)
38000608:	014507b3          	add	a5,a0,s4
3800060c:	02f4ac23          	sw	a5,56(s1)
38000610:	000d0513          	mv	a0,s10
38000614:	9edff0ef          	jal	ra,38000000 <__mulsi3>
38000618:	02812583          	lw	a1,40(sp)
3800061c:	00050a13          	mv	s4,a0
38000620:	000c8513          	mv	a0,s9
38000624:	9ddff0ef          	jal	ra,38000000 <__mulsi3>
38000628:	00050793          	mv	a5,a0
3800062c:	00098593          	mv	a1,s3
38000630:	000c0513          	mv	a0,s8
38000634:	00fa09b3          	add	s3,s4,a5
38000638:	9c9ff0ef          	jal	ra,38000000 <__mulsi3>
3800063c:	00050793          	mv	a5,a0
38000640:	00090593          	mv	a1,s2
38000644:	00040513          	mv	a0,s0
38000648:	013789b3          	add	s3,a5,s3
3800064c:	9b5ff0ef          	jal	ra,38000000 <__mulsi3>
38000650:	06c12083          	lw	ra,108(sp)
38000654:	06812403          	lw	s0,104(sp)
38000658:	013507b3          	add	a5,a0,s3
3800065c:	02f4ae23          	sw	a5,60(s1)
38000660:	38001737          	lui	a4,0x38001
38000664:	06412483          	lw	s1,100(sp)
38000668:	06012903          	lw	s2,96(sp)
3800066c:	05c12983          	lw	s3,92(sp)
38000670:	05812a03          	lw	s4,88(sp)
38000674:	05412a83          	lw	s5,84(sp)
38000678:	05012b03          	lw	s6,80(sp)
3800067c:	04c12b83          	lw	s7,76(sp)
38000680:	04812c03          	lw	s8,72(sp)
38000684:	04412c83          	lw	s9,68(sp)
38000688:	04012d03          	lw	s10,64(sp)
3800068c:	03c12d83          	lw	s11,60(sp)
38000690:	1b070513          	addi	a0,a4,432 # 380011b0 <result>
38000694:	07010113          	addi	sp,sp,112
38000698:	00008067          	ret

3800069c <partition>:
3800069c:	380017b7          	lui	a5,0x38001
380006a0:	00078713          	mv	a4,a5
380006a4:	00259813          	slli	a6,a1,0x2
380006a8:	010707b3          	add	a5,a4,a6
380006ac:	0807a603          	lw	a2,128(a5) # 38001080 <QS>
380006b0:	14b55463          	bge	a0,a1,380007f8 <partition+0x15c>
380006b4:	00251793          	slli	a5,a0,0x2
380006b8:	00f707b3          	add	a5,a4,a5
380006bc:	0807a783          	lw	a5,128(a5)
380006c0:	00150693          	addi	a3,a0,1
380006c4:	00c7a7b3          	slt	a5,a5,a2
380006c8:	0017c793          	xori	a5,a5,1
380006cc:	40f507b3          	sub	a5,a0,a5
380006d0:	10b6de63          	bge	a3,a1,380007ec <partition+0x150>
380006d4:	00269693          	slli	a3,a3,0x2
380006d8:	00d706b3          	add	a3,a4,a3
380006dc:	0806a883          	lw	a7,128(a3)
380006e0:	12c8cc63          	blt	a7,a2,38000818 <partition+0x17c>
380006e4:	00250693          	addi	a3,a0,2
380006e8:	10b6d263          	bge	a3,a1,380007ec <partition+0x150>
380006ec:	00269693          	slli	a3,a3,0x2
380006f0:	00d706b3          	add	a3,a4,a3
380006f4:	0806a883          	lw	a7,128(a3)
380006f8:	12c8ce63          	blt	a7,a2,38000834 <partition+0x198>
380006fc:	00350693          	addi	a3,a0,3
38000700:	0eb6d663          	bge	a3,a1,380007ec <partition+0x150>
38000704:	00269693          	slli	a3,a3,0x2
38000708:	00d706b3          	add	a3,a4,a3
3800070c:	0806a883          	lw	a7,128(a3)
38000710:	14c8c063          	blt	a7,a2,38000850 <partition+0x1b4>
38000714:	00450693          	addi	a3,a0,4
38000718:	0cb6da63          	bge	a3,a1,380007ec <partition+0x150>
3800071c:	00269693          	slli	a3,a3,0x2
38000720:	00d706b3          	add	a3,a4,a3
38000724:	0806a883          	lw	a7,128(a3)
38000728:	00c8de63          	bge	a7,a2,38000744 <partition+0xa8>
3800072c:	00178793          	addi	a5,a5,1
38000730:	00279313          	slli	t1,a5,0x2
38000734:	00670333          	add	t1,a4,t1
38000738:	08032e03          	lw	t3,128(t1)
3800073c:	09132023          	sw	a7,128(t1)
38000740:	09c6a023          	sw	t3,128(a3)
38000744:	00550693          	addi	a3,a0,5
38000748:	0ab6d263          	bge	a3,a1,380007ec <partition+0x150>
3800074c:	00269693          	slli	a3,a3,0x2
38000750:	00d706b3          	add	a3,a4,a3
38000754:	0806a303          	lw	t1,128(a3)
38000758:	00c35e63          	bge	t1,a2,38000774 <partition+0xd8>
3800075c:	00178793          	addi	a5,a5,1
38000760:	00279893          	slli	a7,a5,0x2
38000764:	011708b3          	add	a7,a4,a7
38000768:	0808ae03          	lw	t3,128(a7)
3800076c:	0868a023          	sw	t1,128(a7)
38000770:	09c6a023          	sw	t3,128(a3)
38000774:	00650693          	addi	a3,a0,6
38000778:	06b6da63          	bge	a3,a1,380007ec <partition+0x150>
3800077c:	00269693          	slli	a3,a3,0x2
38000780:	00d706b3          	add	a3,a4,a3
38000784:	0806a303          	lw	t1,128(a3)
38000788:	00c35e63          	bge	t1,a2,380007a4 <partition+0x108>
3800078c:	00178793          	addi	a5,a5,1
38000790:	00279893          	slli	a7,a5,0x2
38000794:	011708b3          	add	a7,a4,a7
38000798:	0808ae03          	lw	t3,128(a7)
3800079c:	0868a023          	sw	t1,128(a7)
380007a0:	09c6a023          	sw	t3,128(a3)
380007a4:	00750693          	addi	a3,a0,7
380007a8:	04b6d263          	bge	a3,a1,380007ec <partition+0x150>
380007ac:	00269693          	slli	a3,a3,0x2
380007b0:	00d706b3          	add	a3,a4,a3
380007b4:	0806a883          	lw	a7,128(a3)
380007b8:	0ac8ca63          	blt	a7,a2,3800086c <partition+0x1d0>
380007bc:	00850693          	addi	a3,a0,8
380007c0:	02b6d663          	bge	a3,a1,380007ec <partition+0x150>
380007c4:	00269693          	slli	a3,a3,0x2
380007c8:	00d706b3          	add	a3,a4,a3
380007cc:	0806a303          	lw	t1,128(a3)
380007d0:	0ac34c63          	blt	t1,a2,38000888 <partition+0x1ec>
380007d4:	00950513          	addi	a0,a0,9
380007d8:	00b55a63          	bge	a0,a1,380007ec <partition+0x150>
380007dc:	00251513          	slli	a0,a0,0x2
380007e0:	00a70533          	add	a0,a4,a0
380007e4:	08052583          	lw	a1,128(a0)
380007e8:	0ac5ce63          	blt	a1,a2,380008a4 <partition+0x208>
380007ec:	010706b3          	add	a3,a4,a6
380007f0:	0806a603          	lw	a2,128(a3)
380007f4:	00178513          	addi	a0,a5,1
380007f8:	00251793          	slli	a5,a0,0x2
380007fc:	00f707b3          	add	a5,a4,a5
38000800:	0807a683          	lw	a3,128(a5)
38000804:	00d65863          	bge	a2,a3,38000814 <partition+0x178>
38000808:	08c7a023          	sw	a2,128(a5)
3800080c:	010707b3          	add	a5,a4,a6
38000810:	08d7a023          	sw	a3,128(a5)
38000814:	00008067          	ret
38000818:	00178793          	addi	a5,a5,1
3800081c:	00279313          	slli	t1,a5,0x2
38000820:	00670333          	add	t1,a4,t1
38000824:	08032e03          	lw	t3,128(t1)
38000828:	09132023          	sw	a7,128(t1)
3800082c:	09c6a023          	sw	t3,128(a3)
38000830:	eb5ff06f          	j	380006e4 <partition+0x48>
38000834:	00178793          	addi	a5,a5,1
38000838:	00279313          	slli	t1,a5,0x2
3800083c:	00670333          	add	t1,a4,t1
38000840:	08032e03          	lw	t3,128(t1)
38000844:	09132023          	sw	a7,128(t1)
38000848:	09c6a023          	sw	t3,128(a3)
3800084c:	eb1ff06f          	j	380006fc <partition+0x60>
38000850:	00178793          	addi	a5,a5,1
38000854:	00279313          	slli	t1,a5,0x2
38000858:	00670333          	add	t1,a4,t1
3800085c:	08032e03          	lw	t3,128(t1)
38000860:	09132023          	sw	a7,128(t1)
38000864:	09c6a023          	sw	t3,128(a3)
38000868:	eadff06f          	j	38000714 <partition+0x78>
3800086c:	00178793          	addi	a5,a5,1
38000870:	00279313          	slli	t1,a5,0x2
38000874:	00670333          	add	t1,a4,t1
38000878:	08032e03          	lw	t3,128(t1)
3800087c:	09132023          	sw	a7,128(t1)
38000880:	09c6a023          	sw	t3,128(a3)
38000884:	f39ff06f          	j	380007bc <partition+0x120>
38000888:	00178793          	addi	a5,a5,1
3800088c:	00279893          	slli	a7,a5,0x2
38000890:	011708b3          	add	a7,a4,a7
38000894:	0808ae03          	lw	t3,128(a7)
38000898:	0868a023          	sw	t1,128(a7)
3800089c:	09c6a023          	sw	t3,128(a3)
380008a0:	f35ff06f          	j	380007d4 <partition+0x138>
380008a4:	00178793          	addi	a5,a5,1
380008a8:	00279693          	slli	a3,a5,0x2
380008ac:	00d706b3          	add	a3,a4,a3
380008b0:	0806a603          	lw	a2,128(a3)
380008b4:	08b6a023          	sw	a1,128(a3)
380008b8:	08c52023          	sw	a2,128(a0)
380008bc:	f31ff06f          	j	380007ec <partition+0x150>

380008c0 <sort>:
380008c0:	26b55863          	bge	a0,a1,38000b30 <sort+0x270>
380008c4:	fe010113          	addi	sp,sp,-32
380008c8:	00912a23          	sw	s1,20(sp)
380008cc:	380014b7          	lui	s1,0x38001
380008d0:	01312623          	sw	s3,12(sp)
380008d4:	00048493          	mv	s1,s1
380008d8:	00259993          	slli	s3,a1,0x2
380008dc:	01212823          	sw	s2,16(sp)
380008e0:	00112e23          	sw	ra,28(sp)
380008e4:	00812c23          	sw	s0,24(sp)
380008e8:	00058913          	mv	s2,a1
380008ec:	013489b3          	add	s3,s1,s3
380008f0:	0809a783          	lw	a5,128(s3)
380008f4:	fff50413          	addi	s0,a0,-1
380008f8:	23255863          	bge	a0,s2,38000b28 <sort+0x268>
380008fc:	00251713          	slli	a4,a0,0x2
38000900:	00e48733          	add	a4,s1,a4
38000904:	08072703          	lw	a4,128(a4)
38000908:	00f75463          	bge	a4,a5,38000910 <sort+0x50>
3800090c:	00050413          	mv	s0,a0
38000910:	00150713          	addi	a4,a0,1
38000914:	1b275663          	bge	a4,s2,38000ac0 <sort+0x200>
38000918:	00271713          	slli	a4,a4,0x2
3800091c:	00e48733          	add	a4,s1,a4
38000920:	08072683          	lw	a3,128(a4)
38000924:	00f6de63          	bge	a3,a5,38000940 <sort+0x80>
38000928:	00140413          	addi	s0,s0,1
3800092c:	00241613          	slli	a2,s0,0x2
38000930:	00c48633          	add	a2,s1,a2
38000934:	08062583          	lw	a1,128(a2) # ab400080 <_ebss+0x733fed90>
38000938:	08d62023          	sw	a3,128(a2)
3800093c:	08b72023          	sw	a1,128(a4)
38000940:	00250713          	addi	a4,a0,2
38000944:	17275e63          	bge	a4,s2,38000ac0 <sort+0x200>
38000948:	00271713          	slli	a4,a4,0x2
3800094c:	00e48733          	add	a4,s1,a4
38000950:	08072683          	lw	a3,128(a4)
38000954:	00f6de63          	bge	a3,a5,38000970 <sort+0xb0>
38000958:	00140413          	addi	s0,s0,1
3800095c:	00241613          	slli	a2,s0,0x2
38000960:	00c48633          	add	a2,s1,a2
38000964:	08062583          	lw	a1,128(a2)
38000968:	08d62023          	sw	a3,128(a2)
3800096c:	08b72023          	sw	a1,128(a4)
38000970:	00350713          	addi	a4,a0,3
38000974:	15275663          	bge	a4,s2,38000ac0 <sort+0x200>
38000978:	00271713          	slli	a4,a4,0x2
3800097c:	00e48733          	add	a4,s1,a4
38000980:	08072683          	lw	a3,128(a4)
38000984:	00f6de63          	bge	a3,a5,380009a0 <sort+0xe0>
38000988:	00140413          	addi	s0,s0,1
3800098c:	00241613          	slli	a2,s0,0x2
38000990:	00c48633          	add	a2,s1,a2
38000994:	08062583          	lw	a1,128(a2)
38000998:	08d62023          	sw	a3,128(a2)
3800099c:	08b72023          	sw	a1,128(a4)
380009a0:	00450713          	addi	a4,a0,4
380009a4:	11275e63          	bge	a4,s2,38000ac0 <sort+0x200>
380009a8:	00271713          	slli	a4,a4,0x2
380009ac:	00e48733          	add	a4,s1,a4
380009b0:	08072683          	lw	a3,128(a4)
380009b4:	00f6de63          	bge	a3,a5,380009d0 <sort+0x110>
380009b8:	00140413          	addi	s0,s0,1
380009bc:	00241613          	slli	a2,s0,0x2
380009c0:	00c48633          	add	a2,s1,a2
380009c4:	08062583          	lw	a1,128(a2)
380009c8:	08d62023          	sw	a3,128(a2)
380009cc:	08b72023          	sw	a1,128(a4)
380009d0:	00550713          	addi	a4,a0,5
380009d4:	0f275663          	bge	a4,s2,38000ac0 <sort+0x200>
380009d8:	00271713          	slli	a4,a4,0x2
380009dc:	00e48733          	add	a4,s1,a4
380009e0:	08072603          	lw	a2,128(a4)
380009e4:	00f65e63          	bge	a2,a5,38000a00 <sort+0x140>
380009e8:	00140413          	addi	s0,s0,1
380009ec:	00241693          	slli	a3,s0,0x2
380009f0:	00d486b3          	add	a3,s1,a3
380009f4:	0806a583          	lw	a1,128(a3)
380009f8:	08c6a023          	sw	a2,128(a3)
380009fc:	08b72023          	sw	a1,128(a4)
38000a00:	00650713          	addi	a4,a0,6
38000a04:	0b275e63          	bge	a4,s2,38000ac0 <sort+0x200>
38000a08:	00271713          	slli	a4,a4,0x2
38000a0c:	00e48733          	add	a4,s1,a4
38000a10:	08072603          	lw	a2,128(a4)
38000a14:	00f65e63          	bge	a2,a5,38000a30 <sort+0x170>
38000a18:	00140413          	addi	s0,s0,1
38000a1c:	00241693          	slli	a3,s0,0x2
38000a20:	00d486b3          	add	a3,s1,a3
38000a24:	0806a583          	lw	a1,128(a3)
38000a28:	08c6a023          	sw	a2,128(a3)
38000a2c:	08b72023          	sw	a1,128(a4)
38000a30:	00750713          	addi	a4,a0,7
38000a34:	09275663          	bge	a4,s2,38000ac0 <sort+0x200>
38000a38:	00271713          	slli	a4,a4,0x2
38000a3c:	00e48733          	add	a4,s1,a4
38000a40:	08072683          	lw	a3,128(a4)
38000a44:	00f6de63          	bge	a3,a5,38000a60 <sort+0x1a0>
38000a48:	00140413          	addi	s0,s0,1
38000a4c:	00241613          	slli	a2,s0,0x2
38000a50:	00c48633          	add	a2,s1,a2
38000a54:	08062583          	lw	a1,128(a2)
38000a58:	08d62023          	sw	a3,128(a2)
38000a5c:	08b72023          	sw	a1,128(a4)
38000a60:	00850713          	addi	a4,a0,8
38000a64:	05275e63          	bge	a4,s2,38000ac0 <sort+0x200>
38000a68:	00271713          	slli	a4,a4,0x2
38000a6c:	00e48733          	add	a4,s1,a4
38000a70:	08072603          	lw	a2,128(a4)
38000a74:	00f65e63          	bge	a2,a5,38000a90 <sort+0x1d0>
38000a78:	00140413          	addi	s0,s0,1
38000a7c:	00241693          	slli	a3,s0,0x2
38000a80:	00d486b3          	add	a3,s1,a3
38000a84:	0806a583          	lw	a1,128(a3)
38000a88:	08c6a023          	sw	a2,128(a3)
38000a8c:	08b72023          	sw	a1,128(a4)
38000a90:	00950713          	addi	a4,a0,9
38000a94:	03275663          	bge	a4,s2,38000ac0 <sort+0x200>
38000a98:	00271713          	slli	a4,a4,0x2
38000a9c:	00e48733          	add	a4,s1,a4
38000aa0:	08072683          	lw	a3,128(a4)
38000aa4:	00f6de63          	bge	a3,a5,38000ac0 <sort+0x200>
38000aa8:	00140413          	addi	s0,s0,1
38000aac:	00241793          	slli	a5,s0,0x2
38000ab0:	00f487b3          	add	a5,s1,a5
38000ab4:	0807a603          	lw	a2,128(a5)
38000ab8:	08d7a023          	sw	a3,128(a5)
38000abc:	08c72023          	sw	a2,128(a4)
38000ac0:	0809a783          	lw	a5,128(s3)
38000ac4:	00140713          	addi	a4,s0,1
38000ac8:	00271713          	slli	a4,a4,0x2
38000acc:	00e48733          	add	a4,s1,a4
38000ad0:	08072683          	lw	a3,128(a4)
38000ad4:	02d7dc63          	bge	a5,a3,38000b0c <sort+0x24c>
38000ad8:	08f72023          	sw	a5,128(a4)
38000adc:	00040593          	mv	a1,s0
38000ae0:	08d9a023          	sw	a3,128(s3)
38000ae4:	dddff0ef          	jal	ra,380008c0 <sort>
38000ae8:	00240513          	addi	a0,s0,2
38000aec:	e12542e3          	blt	a0,s2,380008f0 <sort+0x30>
38000af0:	01c12083          	lw	ra,28(sp)
38000af4:	01812403          	lw	s0,24(sp)
38000af8:	01412483          	lw	s1,20(sp)
38000afc:	01012903          	lw	s2,16(sp)
38000b00:	00c12983          	lw	s3,12(sp)
38000b04:	02010113          	addi	sp,sp,32
38000b08:	00008067          	ret
38000b0c:	00040593          	mv	a1,s0
38000b10:	db1ff0ef          	jal	ra,380008c0 <sort>
38000b14:	00240513          	addi	a0,s0,2
38000b18:	fd255ce3          	bge	a0,s2,38000af0 <sort+0x230>
38000b1c:	0809a783          	lw	a5,128(s3)
38000b20:	fff50413          	addi	s0,a0,-1
38000b24:	dd254ce3          	blt	a0,s2,380008fc <sort+0x3c>
38000b28:	00050713          	mv	a4,a0
38000b2c:	f9dff06f          	j	38000ac8 <sort+0x208>
38000b30:	00008067          	ret

38000b34 <qsort>:
38000b34:	fe010113          	addi	sp,sp,-32
38000b38:	00812c23          	sw	s0,24(sp)
38000b3c:	38001437          	lui	s0,0x38001
38000b40:	00040413          	mv	s0,s0
38000b44:	0a442783          	lw	a5,164(s0) # 380010a4 <QS+0x24>
38000b48:	00912a23          	sw	s1,20(sp)
38000b4c:	01212823          	sw	s2,16(sp)
38000b50:	01312623          	sw	s3,12(sp)
38000b54:	00112e23          	sw	ra,28(sp)
38000b58:	01412423          	sw	s4,8(sp)
38000b5c:	00000513          	li	a0,0
38000b60:	fff00493          	li	s1,-1
38000b64:	00900993          	li	s3,9
38000b68:	00800913          	li	s2,8
38000b6c:	00251713          	slli	a4,a0,0x2
38000b70:	00e40733          	add	a4,s0,a4
38000b74:	08072703          	lw	a4,128(a4)
38000b78:	00f75463          	bge	a4,a5,38000b80 <qsort+0x4c>
38000b7c:	00050493          	mv	s1,a0
38000b80:	00150713          	addi	a4,a0,1
38000b84:	17370863          	beq	a4,s3,38000cf4 <qsort+0x1c0>
38000b88:	00271713          	slli	a4,a4,0x2
38000b8c:	00e40733          	add	a4,s0,a4
38000b90:	08072683          	lw	a3,128(a4)
38000b94:	00f6de63          	bge	a3,a5,38000bb0 <qsort+0x7c>
38000b98:	00148493          	addi	s1,s1,1 # 38001001 <B+0x1>
38000b9c:	00249613          	slli	a2,s1,0x2
38000ba0:	00c40633          	add	a2,s0,a2
38000ba4:	08062583          	lw	a1,128(a2)
38000ba8:	08d62023          	sw	a3,128(a2)
38000bac:	08b72023          	sw	a1,128(a4)
38000bb0:	00250713          	addi	a4,a0,2
38000bb4:	15370063          	beq	a4,s3,38000cf4 <qsort+0x1c0>
38000bb8:	00271713          	slli	a4,a4,0x2
38000bbc:	00e40733          	add	a4,s0,a4
38000bc0:	08072683          	lw	a3,128(a4)
38000bc4:	00f6de63          	bge	a3,a5,38000be0 <qsort+0xac>
38000bc8:	00148493          	addi	s1,s1,1
38000bcc:	00249613          	slli	a2,s1,0x2
38000bd0:	00c40633          	add	a2,s0,a2
38000bd4:	08062583          	lw	a1,128(a2)
38000bd8:	08d62023          	sw	a3,128(a2)
38000bdc:	08b72023          	sw	a1,128(a4)
38000be0:	00350713          	addi	a4,a0,3
38000be4:	11370863          	beq	a4,s3,38000cf4 <qsort+0x1c0>
38000be8:	00271713          	slli	a4,a4,0x2
38000bec:	00e40733          	add	a4,s0,a4
38000bf0:	08072683          	lw	a3,128(a4)
38000bf4:	00f6de63          	bge	a3,a5,38000c10 <qsort+0xdc>
38000bf8:	00148493          	addi	s1,s1,1
38000bfc:	00249613          	slli	a2,s1,0x2
38000c00:	00c40633          	add	a2,s0,a2
38000c04:	08062583          	lw	a1,128(a2)
38000c08:	08d62023          	sw	a3,128(a2)
38000c0c:	08b72023          	sw	a1,128(a4)
38000c10:	00450713          	addi	a4,a0,4
38000c14:	0f370063          	beq	a4,s3,38000cf4 <qsort+0x1c0>
38000c18:	00271713          	slli	a4,a4,0x2
38000c1c:	00e40733          	add	a4,s0,a4
38000c20:	08072683          	lw	a3,128(a4)
38000c24:	00f6de63          	bge	a3,a5,38000c40 <qsort+0x10c>
38000c28:	00148493          	addi	s1,s1,1
38000c2c:	00249613          	slli	a2,s1,0x2
38000c30:	00c40633          	add	a2,s0,a2
38000c34:	08062583          	lw	a1,128(a2)
38000c38:	08d62023          	sw	a3,128(a2)
38000c3c:	08b72023          	sw	a1,128(a4)
38000c40:	00550713          	addi	a4,a0,5
38000c44:	0b370863          	beq	a4,s3,38000cf4 <qsort+0x1c0>
38000c48:	00271713          	slli	a4,a4,0x2
38000c4c:	00e40733          	add	a4,s0,a4
38000c50:	08072603          	lw	a2,128(a4)
38000c54:	00f65e63          	bge	a2,a5,38000c70 <qsort+0x13c>
38000c58:	00148493          	addi	s1,s1,1
38000c5c:	00249693          	slli	a3,s1,0x2
38000c60:	00d406b3          	add	a3,s0,a3
38000c64:	0806a583          	lw	a1,128(a3)
38000c68:	08c6a023          	sw	a2,128(a3)
38000c6c:	08b72023          	sw	a1,128(a4)
38000c70:	00650713          	addi	a4,a0,6
38000c74:	09370063          	beq	a4,s3,38000cf4 <qsort+0x1c0>
38000c78:	00271713          	slli	a4,a4,0x2
38000c7c:	00e40733          	add	a4,s0,a4
38000c80:	08072603          	lw	a2,128(a4)
38000c84:	00f65e63          	bge	a2,a5,38000ca0 <qsort+0x16c>
38000c88:	00148493          	addi	s1,s1,1
38000c8c:	00249693          	slli	a3,s1,0x2
38000c90:	00d406b3          	add	a3,s0,a3
38000c94:	0806a583          	lw	a1,128(a3)
38000c98:	08c6a023          	sw	a2,128(a3)
38000c9c:	08b72023          	sw	a1,128(a4)
38000ca0:	00750713          	addi	a4,a0,7
38000ca4:	05370863          	beq	a4,s3,38000cf4 <qsort+0x1c0>
38000ca8:	00271713          	slli	a4,a4,0x2
38000cac:	00e40733          	add	a4,s0,a4
38000cb0:	08072683          	lw	a3,128(a4)
38000cb4:	00f6de63          	bge	a3,a5,38000cd0 <qsort+0x19c>
38000cb8:	00148493          	addi	s1,s1,1
38000cbc:	00249613          	slli	a2,s1,0x2
38000cc0:	00c40633          	add	a2,s0,a2
38000cc4:	08062583          	lw	a1,128(a2)
38000cc8:	08d62023          	sw	a3,128(a2)
38000ccc:	08b72023          	sw	a1,128(a4)
38000cd0:	02051263          	bnez	a0,38000cf4 <qsort+0x1c0>
38000cd4:	0a042703          	lw	a4,160(s0)
38000cd8:	00f75e63          	bge	a4,a5,38000cf4 <qsort+0x1c0>
38000cdc:	00148493          	addi	s1,s1,1
38000ce0:	00249793          	slli	a5,s1,0x2
38000ce4:	00f407b3          	add	a5,s0,a5
38000ce8:	0807a683          	lw	a3,128(a5)
38000cec:	08e7a023          	sw	a4,128(a5)
38000cf0:	0ad42023          	sw	a3,160(s0)
38000cf4:	00148a13          	addi	s4,s1,1
38000cf8:	002a1793          	slli	a5,s4,0x2
38000cfc:	00f407b3          	add	a5,s0,a5
38000d00:	0a442683          	lw	a3,164(s0)
38000d04:	0807a703          	lw	a4,128(a5)
38000d08:	02e6d463          	bge	a3,a4,38000d30 <qsort+0x1fc>
38000d0c:	08d7a023          	sw	a3,128(a5)
38000d10:	00048593          	mv	a1,s1
38000d14:	0ae42223          	sw	a4,164(s0)
38000d18:	ba9ff0ef          	jal	ra,380008c0 <sort>
38000d1c:	00248513          	addi	a0,s1,2
38000d20:	02a94063          	blt	s2,a0,38000d40 <qsort+0x20c>
38000d24:	0a442783          	lw	a5,164(s0)
38000d28:	000a0493          	mv	s1,s4
38000d2c:	e41ff06f          	j	38000b6c <qsort+0x38>
38000d30:	00048593          	mv	a1,s1
38000d34:	b8dff0ef          	jal	ra,380008c0 <sort>
38000d38:	00248513          	addi	a0,s1,2
38000d3c:	fea954e3          	bge	s2,a0,38000d24 <qsort+0x1f0>
38000d40:	01c12083          	lw	ra,28(sp)
38000d44:	08040513          	addi	a0,s0,128
38000d48:	01812403          	lw	s0,24(sp)
38000d4c:	01412483          	lw	s1,20(sp)
38000d50:	01012903          	lw	s2,16(sp)
38000d54:	00c12983          	lw	s3,12(sp)
38000d58:	00812a03          	lw	s4,8(sp)
38000d5c:	02010113          	addi	sp,sp,32
38000d60:	00008067          	ret

38000d64 <initfir>:
38000d64:	310007b7          	lui	a5,0x31000
38000d68:	0407a023          	sw	zero,64(a5) # 31000040 <_fdata_rom+0x20ffec94>
38000d6c:	ff600713          	li	a4,-10
38000d70:	04e7a223          	sw	a4,68(a5)
38000d74:	ff700693          	li	a3,-9
38000d78:	04d7a423          	sw	a3,72(a5)
38000d7c:	01700613          	li	a2,23
38000d80:	04c7a623          	sw	a2,76(a5)
38000d84:	03800593          	li	a1,56
38000d88:	04b7a823          	sw	a1,80(a5)
38000d8c:	03f00513          	li	a0,63
38000d90:	04a7aa23          	sw	a0,84(a5)
38000d94:	04b7ac23          	sw	a1,88(a5)
38000d98:	04c7ae23          	sw	a2,92(a5)
38000d9c:	06d7a023          	sw	a3,96(a5)
38000da0:	06e7a223          	sw	a4,100(a5)
38000da4:	0607a423          	sw	zero,104(a5)
38000da8:	38001737          	lui	a4,0x38001
38000dac:	04000693          	li	a3,64
38000db0:	00d7a823          	sw	a3,16(a5)
38000db4:	0a870693          	addi	a3,a4,168 # 380010a8 <inputdata>
38000db8:	00d7aa23          	sw	a3,20(a5)
38000dbc:	1f070713          	addi	a4,a4,496
38000dc0:	00e7ac23          	sw	a4,24(a5)
38000dc4:	00a506b7          	lui	a3,0xa50
38000dc8:	26000737          	lui	a4,0x26000
38000dcc:	00d72623          	sw	a3,12(a4) # 2600000c <_fdata_rom+0x15ffec60>
38000dd0:	00100713          	li	a4,1
38000dd4:	00e7a023          	sw	a4,0(a5)
38000dd8:	00008067          	ret

38000ddc <fir>:
38000ddc:	310007b7          	lui	a5,0x31000
38000de0:	0407a023          	sw	zero,64(a5) # 31000040 <_fdata_rom+0x20ffec94>
38000de4:	ff600713          	li	a4,-10
38000de8:	04e7a223          	sw	a4,68(a5)
38000dec:	ff700693          	li	a3,-9
38000df0:	04d7a423          	sw	a3,72(a5)
38000df4:	01700613          	li	a2,23
38000df8:	04c7a623          	sw	a2,76(a5)
38000dfc:	03800593          	li	a1,56
38000e00:	04b7a823          	sw	a1,80(a5)
38000e04:	03f00513          	li	a0,63
38000e08:	04a7aa23          	sw	a0,84(a5)
38000e0c:	04b7ac23          	sw	a1,88(a5)
38000e10:	04c7ae23          	sw	a2,92(a5)
38000e14:	06d7a023          	sw	a3,96(a5)
38000e18:	06e7a223          	sw	a4,100(a5)
38000e1c:	0607a423          	sw	zero,104(a5)
38000e20:	38001737          	lui	a4,0x38001
38000e24:	04000693          	li	a3,64
38000e28:	00d7a823          	sw	a3,16(a5)
38000e2c:	0a870693          	addi	a3,a4,168 # 380010a8 <inputdata>
38000e30:	00d7aa23          	sw	a3,20(a5)
38000e34:	1f070713          	addi	a4,a4,496
38000e38:	00e7ac23          	sw	a4,24(a5)
38000e3c:	00a506b7          	lui	a3,0xa50
38000e40:	26000737          	lui	a4,0x26000
38000e44:	00d72623          	sw	a3,12(a4) # 2600000c <_fdata_rom+0x15ffec60>
38000e48:	00100713          	li	a4,1
38000e4c:	00e7a023          	sw	a4,0(a5)
38000e50:	0007a783          	lw	a5,0(a5)
38000e54:	0027f793          	andi	a5,a5,2
38000e58:	00079a63          	bnez	a5,38000e6c <fir+0x90>
38000e5c:	31000737          	lui	a4,0x31000
38000e60:	00072783          	lw	a5,0(a4) # 31000000 <_fdata_rom+0x20ffec54>
38000e64:	0027f793          	andi	a5,a5,2
38000e68:	fe078ce3          	beqz	a5,38000e60 <fir+0x84>
38000e6c:	260007b7          	lui	a5,0x26000
38000e70:	ff5a0737          	lui	a4,0xff5a0
38000e74:	38001537          	lui	a0,0x38001
38000e78:	00e7a623          	sw	a4,12(a5) # 2600000c <_fdata_rom+0x15ffec60>
38000e7c:	1f050513          	addi	a0,a0,496 # 380011f0 <ans>
38000e80:	00008067          	ret

Disassembly of section .data:

38001000 <B>:
38001000:	0001                	.2byte	0x1
38001002:	0000                	.2byte	0x0
38001004:	0002                	.2byte	0x2
38001006:	0000                	.2byte	0x0
38001008:	00000003          	lb	zero,0(zero) # 0 <__DYNAMIC>
3800100c:	0004                	.2byte	0x4
3800100e:	0000                	.2byte	0x0
38001010:	0005                	.2byte	0x5
38001012:	0000                	.2byte	0x0
38001014:	0006                	.2byte	0x6
38001016:	0000                	.2byte	0x0
38001018:	00000007          	.4byte	0x7
3800101c:	0008                	.2byte	0x8
3800101e:	0000                	.2byte	0x0
38001020:	0009                	.2byte	0x9
38001022:	0000                	.2byte	0x0
38001024:	000a                	.2byte	0xa
38001026:	0000                	.2byte	0x0
38001028:	0000000b          	.4byte	0xb
3800102c:	000c                	.2byte	0xc
3800102e:	0000                	.2byte	0x0
38001030:	000d                	.2byte	0xd
38001032:	0000                	.2byte	0x0
38001034:	000e                	.2byte	0xe
38001036:	0000                	.2byte	0x0
38001038:	0000000f          	fence	unknown,unknown
3800103c:	0010                	.2byte	0x10
	...

38001040 <A>:
38001040:	0000                	.2byte	0x0
38001042:	0000                	.2byte	0x0
38001044:	0001                	.2byte	0x1
38001046:	0000                	.2byte	0x0
38001048:	0002                	.2byte	0x2
3800104a:	0000                	.2byte	0x0
3800104c:	00000003          	lb	zero,0(zero) # 0 <__DYNAMIC>
38001050:	0000                	.2byte	0x0
38001052:	0000                	.2byte	0x0
38001054:	0001                	.2byte	0x1
38001056:	0000                	.2byte	0x0
38001058:	0002                	.2byte	0x2
3800105a:	0000                	.2byte	0x0
3800105c:	00000003          	lb	zero,0(zero) # 0 <__DYNAMIC>
38001060:	0000                	.2byte	0x0
38001062:	0000                	.2byte	0x0
38001064:	0001                	.2byte	0x1
38001066:	0000                	.2byte	0x0
38001068:	0002                	.2byte	0x2
3800106a:	0000                	.2byte	0x0
3800106c:	00000003          	lb	zero,0(zero) # 0 <__DYNAMIC>
38001070:	0000                	.2byte	0x0
38001072:	0000                	.2byte	0x0
38001074:	0001                	.2byte	0x1
38001076:	0000                	.2byte	0x0
38001078:	0002                	.2byte	0x2
3800107a:	0000                	.2byte	0x0
3800107c:	00000003          	lb	zero,0(zero) # 0 <__DYNAMIC>

38001080 <QS>:
38001080:	037d                	.2byte	0x37d
38001082:	0000                	.2byte	0x0
38001084:	0028                	.2byte	0x28
38001086:	0000                	.2byte	0x0
38001088:	0ca1                	.2byte	0xca1
3800108a:	0000                	.2byte	0x0
3800108c:	000010ab          	.4byte	0x10ab
38001090:	0a6d                	.2byte	0xa6d
38001092:	0000                	.2byte	0x0
38001094:	09ed                	.2byte	0x9ed
38001096:	0000                	.2byte	0x0
38001098:	2371                	.2byte	0x2371
3800109a:	0000                	.2byte	0x0
3800109c:	00001787          	.4byte	0x1787
380010a0:	1631                	.2byte	0x1631
380010a2:	0000                	.2byte	0x0
380010a4:	120e                	.2byte	0x120e
	...

380010a8 <inputdata>:
380010a8:	0000                	.2byte	0x0
380010aa:	0000                	.2byte	0x0
380010ac:	0001                	.2byte	0x1
380010ae:	0000                	.2byte	0x0
380010b0:	0002                	.2byte	0x2
380010b2:	0000                	.2byte	0x0
380010b4:	00000003          	lb	zero,0(zero) # 0 <__DYNAMIC>
380010b8:	0004                	.2byte	0x4
380010ba:	0000                	.2byte	0x0
380010bc:	0005                	.2byte	0x5
380010be:	0000                	.2byte	0x0
380010c0:	0006                	.2byte	0x6
380010c2:	0000                	.2byte	0x0
380010c4:	00000007          	.4byte	0x7
380010c8:	0008                	.2byte	0x8
380010ca:	0000                	.2byte	0x0
380010cc:	0009                	.2byte	0x9
380010ce:	0000                	.2byte	0x0
380010d0:	000a                	.2byte	0xa
380010d2:	0000                	.2byte	0x0
380010d4:	0000000b          	.4byte	0xb
380010d8:	000c                	.2byte	0xc
380010da:	0000                	.2byte	0x0
380010dc:	000d                	.2byte	0xd
380010de:	0000                	.2byte	0x0
380010e0:	000e                	.2byte	0xe
380010e2:	0000                	.2byte	0x0
380010e4:	0000000f          	fence	unknown,unknown
380010e8:	0010                	.2byte	0x10
380010ea:	0000                	.2byte	0x0
380010ec:	0011                	.2byte	0x11
380010ee:	0000                	.2byte	0x0
380010f0:	0012                	.2byte	0x12
380010f2:	0000                	.2byte	0x0
380010f4:	00000013          	nop
380010f8:	0014                	.2byte	0x14
380010fa:	0000                	.2byte	0x0
380010fc:	0015                	.2byte	0x15
380010fe:	0000                	.2byte	0x0
38001100:	0016                	.2byte	0x16
38001102:	0000                	.2byte	0x0
38001104:	00000017          	auipc	zero,0x0
38001108:	0018                	.2byte	0x18
3800110a:	0000                	.2byte	0x0
3800110c:	0019                	.2byte	0x19
3800110e:	0000                	.2byte	0x0
38001110:	001a                	.2byte	0x1a
38001112:	0000                	.2byte	0x0
38001114:	0000001b          	.4byte	0x1b
38001118:	001c                	.2byte	0x1c
3800111a:	0000                	.2byte	0x0
3800111c:	001d                	.2byte	0x1d
3800111e:	0000                	.2byte	0x0
38001120:	001e                	.2byte	0x1e
38001122:	0000                	.2byte	0x0
38001124:	001f 0000 0020      	.byte	0x1f, 0x00, 0x00, 0x00, 0x20, 0x00
3800112a:	0000                	.2byte	0x0
3800112c:	0021                	.2byte	0x21
3800112e:	0000                	.2byte	0x0
38001130:	0022                	.2byte	0x22
38001132:	0000                	.2byte	0x0
38001134:	00000023          	sb	zero,0(zero) # 0 <__DYNAMIC>
38001138:	0024                	.2byte	0x24
3800113a:	0000                	.2byte	0x0
3800113c:	0025                	.2byte	0x25
3800113e:	0000                	.2byte	0x0
38001140:	0026                	.2byte	0x26
38001142:	0000                	.2byte	0x0
38001144:	00000027          	.4byte	0x27
38001148:	0028                	.2byte	0x28
3800114a:	0000                	.2byte	0x0
3800114c:	0029                	.2byte	0x29
3800114e:	0000                	.2byte	0x0
38001150:	002a                	.2byte	0x2a
38001152:	0000                	.2byte	0x0
38001154:	0000002b          	.4byte	0x2b
38001158:	002c                	.2byte	0x2c
3800115a:	0000                	.2byte	0x0
3800115c:	002d                	.2byte	0x2d
3800115e:	0000                	.2byte	0x0
38001160:	002e                	.2byte	0x2e
38001162:	0000                	.2byte	0x0
38001164:	0000002f          	.4byte	0x2f
38001168:	0030                	.2byte	0x30
3800116a:	0000                	.2byte	0x0
3800116c:	0031                	.2byte	0x31
3800116e:	0000                	.2byte	0x0
38001170:	0032                	.2byte	0x32
38001172:	0000                	.2byte	0x0
38001174:	00000033          	add	zero,zero,zero
38001178:	0034                	.2byte	0x34
3800117a:	0000                	.2byte	0x0
3800117c:	0035                	.2byte	0x35
3800117e:	0000                	.2byte	0x0
38001180:	0036                	.2byte	0x36
38001182:	0000                	.2byte	0x0
38001184:	00000037          	lui	zero,0x0
38001188:	0038                	.2byte	0x38
3800118a:	0000                	.2byte	0x0
3800118c:	0039                	.2byte	0x39
3800118e:	0000                	.2byte	0x0
38001190:	003a                	.2byte	0x3a
38001192:	0000                	.2byte	0x0
38001194:	0000003b          	.4byte	0x3b
38001198:	003c                	.2byte	0x3c
3800119a:	0000                	.2byte	0x0
3800119c:	003d                	.2byte	0x3d
3800119e:	0000                	.2byte	0x0
380011a0:	003e                	.2byte	0x3e
380011a2:	0000                	.2byte	0x0
380011a4:	0000003f  	.8byte	0xffff00000000003f

380011a8 <counter>:
380011a8:	0000                	.2byte	0x0
380011aa:	ffff                	.2byte	0xffff
380011ac:	0000                	.2byte	0x0
	...

Disassembly of section .bss:

380011b0 <result>:
	...

380011f0 <ans>:
	...

Disassembly of section .riscv.attributes:

00000000 <.riscv.attributes>:
   0:	1f41                	.2byte	0x1f41
   2:	0000                	.2byte	0x0
   4:	7200                	.2byte	0x7200
   6:	7369                	.2byte	0x7369
   8:	01007663          	bgeu	zero,a6,14 <__DYNAMIC+0x14>
   c:	0015                	.2byte	0x15
   e:	0000                	.2byte	0x0
  10:	1004                	.2byte	0x1004
  12:	7205                	.2byte	0x7205
  14:	3376                	.2byte	0x3376
  16:	6932                	.2byte	0x6932
  18:	7032                	.2byte	0x7032
  1a:	0030                	.2byte	0x30
  1c:	0108                	.2byte	0x108
  1e:	0b0a                	.2byte	0xb0a

Disassembly of section .comment:

00000000 <.comment>:
   0:	3a434347          	.4byte	0x3a434347
   4:	2820                	.2byte	0x2820
   6:	61653167          	.4byte	0x61653167
   a:	3739                	.2byte	0x3739
   c:	6538                	.2byte	0x6538
   e:	36363033          	.4byte	0x36363033
  12:	2029                	.2byte	0x2029
  14:	3231                	.2byte	0x3231
  16:	312e                	.2byte	0x312e
  18:	302e                	.2byte	0x302e
	...

Disassembly of section .debug_line:

00000000 <.debug_line>:
       0:	0206                	.2byte	0x206
       2:	0000                	.2byte	0x0
       4:	0005                	.2byte	0x5
       6:	0004                	.2byte	0x4
       8:	002e                	.2byte	0x2e
       a:	0000                	.2byte	0x0
       c:	0101                	.2byte	0x101
       e:	fb01                	.2byte	0xfb01
      10:	0d0e                	.2byte	0xd0e
      12:	0100                	.2byte	0x100
      14:	0101                	.2byte	0x101
      16:	0001                	.2byte	0x1
      18:	0000                	.2byte	0x0
      1a:	0001                	.2byte	0x1
      1c:	0100                	.2byte	0x100
      1e:	0101                	.2byte	0x101
      20:	021f 0000 0000      	.byte	0x1f, 0x02, 0x00, 0x00, 0x00, 0x00
      26:	0000003b          	.4byte	0x3b
      2a:	0102                	.2byte	0x102
      2c:	021f 020f 004a      	.byte	0x1f, 0x02, 0x0f, 0x02, 0x4a, 0x00
      32:	0000                	.2byte	0x0
      34:	4a01                	.2byte	0x4a01
      36:	0000                	.2byte	0x0
      38:	0100                	.2byte	0x100
      3a:	0500                	.2byte	0x500
      3c:	0002                	.2byte	0x2
      3e:	0000                	.2byte	0x0
      40:	1710                	.2byte	0x1710
      42:	04090103          	lb	sp,64(s2)
      46:	0100                	.2byte	0x100
      48:	04090103          	lb	sp,64(s2)
      4c:	0100                	.2byte	0x100
      4e:	04090103          	lb	sp,64(s2)
      52:	0100                	.2byte	0x100
      54:	04090103          	lb	sp,64(s2)
      58:	0100                	.2byte	0x100
      5a:	04090103          	lb	sp,64(s2)
      5e:	0100                	.2byte	0x100
      60:	04090103          	lb	sp,64(s2)
      64:	0100                	.2byte	0x100
      66:	04090103          	lb	sp,64(s2)
      6a:	0100                	.2byte	0x100
      6c:	04090403          	lb	s0,64(s2)
      70:	0100                	.2byte	0x100
      72:	04090103          	lb	sp,64(s2)
      76:	0100                	.2byte	0x100
      78:	04090103          	lb	sp,64(s2)
      7c:	0100                	.2byte	0x100
      7e:	04090103          	lb	sp,64(s2)
      82:	0100                	.2byte	0x100
      84:	04090103          	lb	sp,64(s2)
      88:	0100                	.2byte	0x100
      8a:	04090103          	lb	sp,64(s2)
      8e:	0100                	.2byte	0x100
      90:	04090103          	lb	sp,64(s2)
      94:	0100                	.2byte	0x100
      96:	04090103          	lb	sp,64(s2)
      9a:	0100                	.2byte	0x100
      9c:	04090103          	lb	sp,64(s2)
      a0:	0100                	.2byte	0x100
      a2:	04090103          	lb	sp,64(s2)
      a6:	0100                	.2byte	0x100
      a8:	04090103          	lb	sp,64(s2)
      ac:	0100                	.2byte	0x100
      ae:	04090103          	lb	sp,64(s2)
      b2:	0100                	.2byte	0x100
      b4:	04090103          	lb	sp,64(s2)
      b8:	0100                	.2byte	0x100
      ba:	04090103          	lb	sp,64(s2)
      be:	0100                	.2byte	0x100
      c0:	04090103          	lb	sp,64(s2)
      c4:	0100                	.2byte	0x100
      c6:	04090103          	lb	sp,64(s2)
      ca:	0100                	.2byte	0x100
      cc:	04090103          	lb	sp,64(s2)
      d0:	0100                	.2byte	0x100
      d2:	04090103          	lb	sp,64(s2)
      d6:	0100                	.2byte	0x100
      d8:	04090103          	lb	sp,64(s2)
      dc:	0100                	.2byte	0x100
      de:	04090103          	lb	sp,64(s2)
      e2:	0100                	.2byte	0x100
      e4:	04090103          	lb	sp,64(s2)
      e8:	0100                	.2byte	0x100
      ea:	04090103          	lb	sp,64(s2)
      ee:	0100                	.2byte	0x100
      f0:	04090103          	lb	sp,64(s2)
      f4:	0100                	.2byte	0x100
      f6:	04090103          	lb	sp,64(s2)
      fa:	0100                	.2byte	0x100
      fc:	04090103          	lb	sp,64(s2)
     100:	0100                	.2byte	0x100
     102:	04090103          	lb	sp,64(s2)
     106:	0100                	.2byte	0x100
     108:	04090103          	lb	sp,64(s2)
     10c:	0100                	.2byte	0x100
     10e:	04090103          	lb	sp,64(s2)
     112:	0100                	.2byte	0x100
     114:	04090103          	lb	sp,64(s2)
     118:	0100                	.2byte	0x100
     11a:	04090103          	lb	sp,64(s2)
     11e:	0100                	.2byte	0x100
     120:	04090103          	lb	sp,64(s2)
     124:	0100                	.2byte	0x100
     126:	04090103          	lb	sp,64(s2)
     12a:	0100                	.2byte	0x100
     12c:	04090103          	lb	sp,64(s2)
     130:	0100                	.2byte	0x100
     132:	04090103          	lb	sp,64(s2)
     136:	0100                	.2byte	0x100
     138:	04090103          	lb	sp,64(s2)
     13c:	0100                	.2byte	0x100
     13e:	04090103          	lb	sp,64(s2)
     142:	0100                	.2byte	0x100
     144:	04090503          	lb	a0,64(s2)
     148:	0100                	.2byte	0x100
     14a:	04090103          	lb	sp,64(s2)
     14e:	0100                	.2byte	0x100
     150:	08090103          	lb	sp,128(s2)
     154:	0100                	.2byte	0x100
     156:	04090303          	lb	t1,64(s2)
     15a:	0100                	.2byte	0x100
     15c:	08090103          	lb	sp,128(s2)
     160:	0100                	.2byte	0x100
     162:	08090103          	lb	sp,128(s2)
     166:	0100                	.2byte	0x100
     168:	08090203          	lb	tp,128(s2)
     16c:	0100                	.2byte	0x100
     16e:	04090103          	lb	sp,64(s2)
     172:	0100                	.2byte	0x100
     174:	04090103          	lb	sp,64(s2)
     178:	0100                	.2byte	0x100
     17a:	04090103          	lb	sp,64(s2)
     17e:	0100                	.2byte	0x100
     180:	04090103          	lb	sp,64(s2)
     184:	0100                	.2byte	0x100
     186:	04090103          	lb	sp,64(s2)
     18a:	0100                	.2byte	0x100
     18c:	04090403          	lb	s0,64(s2)
     190:	0100                	.2byte	0x100
     192:	08090103          	lb	sp,128(s2)
     196:	0100                	.2byte	0x100
     198:	08090103          	lb	sp,128(s2)
     19c:	0100                	.2byte	0x100
     19e:	08090203          	lb	tp,128(s2)
     1a2:	0100                	.2byte	0x100
     1a4:	04090103          	lb	sp,64(s2)
     1a8:	0100                	.2byte	0x100
     1aa:	04090103          	lb	sp,64(s2)
     1ae:	0100                	.2byte	0x100
     1b0:	04090103          	lb	sp,64(s2)
     1b4:	0100                	.2byte	0x100
     1b6:	04090103          	lb	sp,64(s2)
     1ba:	0100                	.2byte	0x100
     1bc:	04090103          	lb	sp,64(s2)
     1c0:	0100                	.2byte	0x100
     1c2:	04090403          	lb	s0,64(s2)
     1c6:	0100                	.2byte	0x100
     1c8:	08090103          	lb	sp,128(s2)
     1cc:	0100                	.2byte	0x100
     1ce:	08090203          	lb	tp,128(s2)
     1d2:	0100                	.2byte	0x100
     1d4:	04090103          	lb	sp,64(s2)
     1d8:	0100                	.2byte	0x100
     1da:	04090103          	lb	sp,64(s2)
     1de:	0100                	.2byte	0x100
     1e0:	04090203          	lb	tp,64(s2)
     1e4:	0100                	.2byte	0x100
     1e6:	04090403          	lb	s0,64(s2)
     1ea:	0100                	.2byte	0x100
     1ec:	08090103          	lb	sp,128(s2)
     1f0:	0100                	.2byte	0x100
     1f2:	04090303          	lb	t1,64(s2)
     1f6:	0100                	.2byte	0x100
     1f8:	04090303          	lb	t1,64(s2)
     1fc:	0100                	.2byte	0x100
     1fe:	04090203          	lb	tp,64(s2)
     202:	0100                	.2byte	0x100
     204:	0409                	.2byte	0x409
     206:	0000                	.2byte	0x0
     208:	0101                	.2byte	0x101
     20a:	011d                	.2byte	0x11d
     20c:	0000                	.2byte	0x0
     20e:	0005                	.2byte	0x5
     210:	0004                	.2byte	0x4
     212:	004a                	.2byte	0x4a
     214:	0000                	.2byte	0x0
     216:	0101                	.2byte	0x101
     218:	fb01                	.2byte	0xfb01
     21a:	0d0e                	.2byte	0xd0e
     21c:	0100                	.2byte	0x100
     21e:	0101                	.2byte	0x101
     220:	0001                	.2byte	0x1
     222:	0000                	.2byte	0x0
     224:	0001                	.2byte	0x1
     226:	0100                	.2byte	0x100
     228:	0101                	.2byte	0x101
     22a:	041f 0000 0000      	.byte	0x1f, 0x04, 0x00, 0x00, 0x00, 0x00
     230:	0000003b          	.4byte	0x3b
     234:	006a                	.2byte	0x6a
     236:	0000                	.2byte	0x0
     238:	007c                	.2byte	0x7c
     23a:	0000                	.2byte	0x0
     23c:	0102                	.2byte	0x102
     23e:	021f 060f 0064      	.byte	0x1f, 0x02, 0x0f, 0x06, 0x64, 0x00
     244:	0000                	.2byte	0x0
     246:	6401                	.2byte	0x6401
     248:	0000                	.2byte	0x0
     24a:	0100                	.2byte	0x100
     24c:	00b2                	.2byte	0xb2
     24e:	0000                	.2byte	0x0
     250:	bc01                	.2byte	0xbc01
     252:	0000                	.2byte	0x0
     254:	0100                	.2byte	0x100
     256:	00c2                	.2byte	0xc2
     258:	0000                	.2byte	0x0
     25a:	cb02                	.2byte	0xcb02
     25c:	0000                	.2byte	0x0
     25e:	0300                	.2byte	0x300
     260:	0105                	.2byte	0x105
     262:	0500                	.2byte	0x500
     264:	5802                	.2byte	0x5802
     266:	0001                	.2byte	0x1
     268:	0310                	.2byte	0x310
     26a:	05050117          	auipc	sp,0x5050
     26e:	00090803          	lb	a6,0(s2)
     272:	0100                	.2byte	0x100
     274:	0204                	.2byte	0x204
     276:	0205                	.2byte	0x205
     278:	00090403          	lb	s0,0(s2)
     27c:	0100                	.2byte	0x100
     27e:	00090103          	lb	sp,0(s2)
     282:	0100                	.2byte	0x100
     284:	04090103          	lb	sp,64(s2)
     288:	0100                	.2byte	0x100
     28a:	00097203          	.4byte	0x97203
     28e:	0100                	.2byte	0x100
     290:	00090103          	lb	sp,0(s2)
     294:	0100                	.2byte	0x100
     296:	04090103          	lb	sp,64(s2)
     29a:	0100                	.2byte	0x100
     29c:	0104                	.2byte	0x104
     29e:	0505                	.2byte	0x505
     2a0:	00090703          	lb	a4,0(s2)
     2a4:	0100                	.2byte	0x100
     2a6:	00090203          	lb	tp,0(s2)
     2aa:	0100                	.2byte	0x100
     2ac:	0e05                	.2byte	0xe05
     2ae:	0306                	.2byte	0x306
     2b0:	097d                	.2byte	0x97d
     2b2:	0000                	.2byte	0x0
     2b4:	0501                	.2byte	0x501
     2b6:	0903030f          	.4byte	0x903030f
     2ba:	0004                	.2byte	0x4
     2bc:	0501                	.2byte	0x501
     2be:	0308                	.2byte	0x308
     2c0:	0900                	.2byte	0x900
     2c2:	0004                	.2byte	0x4
     2c4:	0501                	.2byte	0x501
     2c6:	0609                	.2byte	0x609
     2c8:	08090103          	lb	sp,128(s2)
     2cc:	0100                	.2byte	0x100
     2ce:	0304                	.2byte	0x304
     2d0:	0205                	.2byte	0x205
     2d2:	0905e703          	.4byte	0x905e703
     2d6:	0000                	.2byte	0x0
     2d8:	0401                	.2byte	0x401
     2da:	0304                	.2byte	0x304
     2dc:	00097a97          	auipc	s5,0x97
     2e0:	0100                	.2byte	0x100
     2e2:	0104                	.2byte	0x104
     2e4:	0105                	.2byte	0x105
     2e6:	0306                	.2byte	0x306
     2e8:	0976                	.2byte	0x976
     2ea:	0000                	.2byte	0x0
     2ec:	0401                	.2byte	0x401
     2ee:	0504                	.2byte	0x504
     2f0:	0320                	.2byte	0x320
     2f2:	090a                	.2byte	0x90a
     2f4:	0008                	.2byte	0x8
     2f6:	0401                	.2byte	0x401
     2f8:	0501                	.2byte	0x501
     2fa:	0609                	.2byte	0x609
     2fc:	0c090303          	lb	t1,192(s2)
     300:	0100                	.2byte	0x100
     302:	0f05                	.2byte	0xf05
     304:	0306                	.2byte	0x306
     306:	0900                	.2byte	0x900
     308:	0000                	.2byte	0x0
     30a:	0501                	.2byte	0x501
     30c:	0609                	.2byte	0x609
     30e:	04090103          	lb	sp,64(s2)
     312:	0100                	.2byte	0x100
     314:	0105                	.2byte	0x105
     316:	0306                	.2byte	0x306
     318:	00000907          	.4byte	0x907
     31c:	0501                	.2byte	0x501
     31e:	0309                	.2byte	0x309
     320:	0979                	.2byte	0x979
     322:	0008                	.2byte	0x8
     324:	0901                	.2byte	0x901
     326:	0004                	.2byte	0x4
     328:	0100                	.2byte	0x100
     32a:	8e01                	.2byte	0x8e01
     32c:	0025                	.2byte	0x25
     32e:	0500                	.2byte	0x500
     330:	0400                	.2byte	0x400
     332:	3800                	.2byte	0x3800
     334:	0000                	.2byte	0x0
     336:	0100                	.2byte	0x100
     338:	0101                	.2byte	0x101
     33a:	000d0efb          	.4byte	0xd0efb
     33e:	0101                	.2byte	0x101
     340:	0101                	.2byte	0x101
     342:	0000                	.2byte	0x0
     344:	0100                	.2byte	0x100
     346:	0000                	.2byte	0x0
     348:	0101                	.2byte	0x101
     34a:	1f01                	.2byte	0x1f01
     34c:	0002                	.2byte	0x2
     34e:	0000                	.2byte	0x0
     350:	7c00                	.2byte	0x7c00
     352:	0000                	.2byte	0x0
     354:	0200                	.2byte	0x200
     356:	1f01                	.2byte	0x1f01
     358:	0f02                	.2byte	0xf02
     35a:	d804                	.2byte	0xd804
     35c:	0000                	.2byte	0x0
     35e:	0000                	.2byte	0x0
     360:	00d8                	.2byte	0xd8
     362:	0000                	.2byte	0x0
     364:	e300                	.2byte	0xe300
     366:	0000                	.2byte	0x0
     368:	0000                	.2byte	0x0
     36a:	000000cb          	.4byte	0xcb
     36e:	0501                	.2byte	0x501
     370:	0001                	.2byte	0x1
     372:	0205                	.2byte	0x205
     374:	0218                	.2byte	0x218
     376:	1000                	.2byte	0x1000
     378:	051a                	.2byte	0x51a
     37a:	0305                	.2byte	0x305
     37c:	0901                	.2byte	0x901
     37e:	0000                	.2byte	0x0
     380:	0501                	.2byte	0x501
     382:	060e                	.2byte	0x60e
     384:	00090003          	lb	zero,0(s2)
     388:	0100                	.2byte	0x100
     38a:	0b05                	.2byte	0xb05
     38c:	0200                	.2byte	0x200
     38e:	0104                	.2byte	0x104
     390:	0306                	.2byte	0x306
     392:	0900                	.2byte	0x900
     394:	0004                	.2byte	0x4
     396:	0501                	.2byte	0x501
     398:	000e                	.2byte	0xe
     39a:	0402                	.2byte	0x402
     39c:	0601                	.2byte	0x601
     39e:	00090003          	lb	zero,0(s2)
     3a2:	0100                	.2byte	0x100
     3a4:	0b05                	.2byte	0xb05
     3a6:	0200                	.2byte	0x200
     3a8:	0104                	.2byte	0x104
     3aa:	04090003          	lb	zero,64(s2)
     3ae:	0100                	.2byte	0x100
     3b0:	0505                	.2byte	0x505
     3b2:	0306                	.2byte	0x306
     3b4:	0901                	.2byte	0x901
     3b6:	0008                	.2byte	0x8
     3b8:	0501                	.2byte	0x501
     3ba:	00030627          	.4byte	0x30627
     3be:	0009                	.2byte	0x9
     3c0:	0100                	.2byte	0x100
     3c2:	0105                	.2byte	0x105
     3c4:	04090103          	lb	sp,64(s2)
     3c8:	0100                	.2byte	0x100
     3ca:	0306                	.2byte	0x306
     3cc:	00040903          	lb	s2,0(s0)
     3d0:	0501                	.2byte	0x501
     3d2:	0302                	.2byte	0x302
     3d4:	0901                	.2byte	0x901
     3d6:	0000                	.2byte	0x0
     3d8:	0501                	.2byte	0x501
     3da:	0605                	.2byte	0x605
     3dc:	00090003          	lb	zero,0(s2)
     3e0:	0100                	.2byte	0x100
     3e2:	0e05                	.2byte	0xe05
     3e4:	0200                	.2byte	0x200
     3e6:	0104                	.2byte	0x104
     3e8:	08090403          	lb	s0,128(s2)
     3ec:	0100                	.2byte	0x100
     3ee:	0b05                	.2byte	0xb05
     3f0:	0200                	.2byte	0x200
     3f2:	0104                	.2byte	0x104
     3f4:	0306                	.2byte	0x306
     3f6:	0900                	.2byte	0x900
     3f8:	0004                	.2byte	0x4
     3fa:	0501                	.2byte	0x501
     3fc:	000e                	.2byte	0xe
     3fe:	0402                	.2byte	0x402
     400:	0601                	.2byte	0x601
     402:	00090003          	lb	zero,0(s2)
     406:	0100                	.2byte	0x100
     408:	0b05                	.2byte	0xb05
     40a:	0200                	.2byte	0x200
     40c:	0104                	.2byte	0x104
     40e:	04090003          	lb	zero,64(s2)
     412:	0100                	.2byte	0x100
     414:	0505                	.2byte	0x505
     416:	0306                	.2byte	0x306
     418:	0901                	.2byte	0x901
     41a:	0008                	.2byte	0x8
     41c:	0501                	.2byte	0x501
     41e:	00030627          	.4byte	0x30627
     422:	0009                	.2byte	0x9
     424:	0100                	.2byte	0x100
     426:	0105                	.2byte	0x105
     428:	04090103          	lb	sp,64(s2)
     42c:	0100                	.2byte	0x100
     42e:	0e05                	.2byte	0xe05
     430:	04097e03          	.4byte	0x4097e03
     434:	0100                	.2byte	0x100
     436:	0b05                	.2byte	0xb05
     438:	0306                	.2byte	0x306
     43a:	0900                	.2byte	0x900
     43c:	0004                	.2byte	0x4
     43e:	0501                	.2byte	0x501
     440:	060e                	.2byte	0x60e
     442:	00090003          	lb	zero,0(s2)
     446:	0100                	.2byte	0x100
     448:	0b05                	.2byte	0xb05
     44a:	04090003          	lb	zero,64(s2)
     44e:	0100                	.2byte	0x100
     450:	0505                	.2byte	0x505
     452:	0306                	.2byte	0x306
     454:	0901                	.2byte	0x901
     456:	0008                	.2byte	0x8
     458:	0501                	.2byte	0x501
     45a:	00030627          	.4byte	0x30627
     45e:	0009                	.2byte	0x9
     460:	0100                	.2byte	0x100
     462:	0105                	.2byte	0x105
     464:	08090103          	lb	sp,128(s2)
     468:	0100                	.2byte	0x100
     46a:	0306                	.2byte	0x306
     46c:	00040903          	lb	s2,0(s0)
     470:	0501                	.2byte	0x501
     472:	0305                	.2byte	0x305
     474:	0901                	.2byte	0x901
     476:	0000                	.2byte	0x0
     478:	0501                	.2byte	0x501
     47a:	030c                	.2byte	0x30c
     47c:	0900                	.2byte	0x900
     47e:	0000                	.2byte	0x0
     480:	0501                	.2byte	0x501
     482:	0605                	.2byte	0x605
     484:	08097603          	.4byte	0x8097603
     488:	0100                	.2byte	0x100
     48a:	0e05                	.2byte	0xe05
     48c:	04090403          	lb	s0,64(s2)
     490:	0100                	.2byte	0x100
     492:	2705                	.2byte	0x2705
     494:	04090103          	lb	sp,64(s2)
     498:	0100                	.2byte	0x100
     49a:	0905                	.2byte	0x905
     49c:	0306                	.2byte	0x306
     49e:	0906                	.2byte	0x906
     4a0:	0004                	.2byte	0x4
     4a2:	0501                	.2byte	0x501
     4a4:	061c                	.2byte	0x61c
     4a6:	00090003          	lb	zero,0(s2)
     4aa:	0100                	.2byte	0x100
     4ac:	0205                	.2byte	0x205
     4ae:	0306                	.2byte	0x306
     4b0:	0975                	.2byte	0x975
     4b2:	0004                	.2byte	0x4
     4b4:	0501                	.2byte	0x501
     4b6:	0605                	.2byte	0x605
     4b8:	00090003          	lb	zero,0(s2)
     4bc:	0100                	.2byte	0x100
     4be:	0b05                	.2byte	0xb05
     4c0:	0306                	.2byte	0x306
     4c2:	0904                	.2byte	0x904
     4c4:	0004                	.2byte	0x4
     4c6:	0501                	.2byte	0x501
     4c8:	060e                	.2byte	0x60e
     4ca:	00090003          	lb	zero,0(s2)
     4ce:	0100                	.2byte	0x100
     4d0:	0b05                	.2byte	0xb05
     4d2:	04090003          	lb	zero,64(s2)
     4d6:	0100                	.2byte	0x100
     4d8:	0505                	.2byte	0x505
     4da:	0306                	.2byte	0x306
     4dc:	0901                	.2byte	0x901
     4de:	0008                	.2byte	0x8
     4e0:	0501                	.2byte	0x501
     4e2:	00030627          	.4byte	0x30627
     4e6:	0009                	.2byte	0x9
     4e8:	0100                	.2byte	0x100
     4ea:	0c05                	.2byte	0xc05
     4ec:	0306                	.2byte	0x306
     4ee:	0905                	.2byte	0x905
     4f0:	0004                	.2byte	0x4
     4f2:	0501                	.2byte	0x501
     4f4:	0601                	.2byte	0x601
     4f6:	08090203          	lb	tp,128(s2)
     4fa:	0100                	.2byte	0x100
     4fc:	0b05                	.2byte	0xb05
     4fe:	0306                	.2byte	0x306
     500:	0978                	.2byte	0x978
     502:	0004                	.2byte	0x4
     504:	0501                	.2byte	0x501
     506:	060e                	.2byte	0x60e
     508:	00090003          	lb	zero,0(s2)
     50c:	0100                	.2byte	0x100
     50e:	0b05                	.2byte	0xb05
     510:	04090003          	lb	zero,64(s2)
     514:	0100                	.2byte	0x100
     516:	0505                	.2byte	0x505
     518:	0306                	.2byte	0x306
     51a:	0901                	.2byte	0x901
     51c:	0008                	.2byte	0x8
     51e:	0501                	.2byte	0x501
     520:	00030627          	.4byte	0x30627
     524:	0009                	.2byte	0x9
     526:	0100                	.2byte	0x100
     528:	0105                	.2byte	0x105
     52a:	04090103          	lb	sp,64(s2)
     52e:	0100                	.2byte	0x100
     530:	0306                	.2byte	0x306
     532:	090a                	.2byte	0x90a
     534:	0004                	.2byte	0x4
     536:	0501                	.2byte	0x501
     538:	0302                	.2byte	0x302
     53a:	0901                	.2byte	0x901
     53c:	0000                	.2byte	0x0
     53e:	0501                	.2byte	0x501
     540:	0305                	.2byte	0x305
     542:	0901                	.2byte	0x901
     544:	0000                	.2byte	0x0
     546:	0501                	.2byte	0x501
     548:	060c                	.2byte	0x60c
     54a:	00090003          	lb	zero,0(s2)
     54e:	0100                	.2byte	0x100
     550:	0105                	.2byte	0x105
     552:	08097e03          	.4byte	0x8097e03
     556:	0100                	.2byte	0x100
     558:	2c05                	.2byte	0x2c05
     55a:	04090203          	lb	tp,64(s2)
     55e:	0100                	.2byte	0x100
     560:	0705                	.2byte	0x705
     562:	04090003          	lb	zero,64(s2)
     566:	0100                	.2byte	0x100
     568:	4305                	.2byte	0x4305
     56a:	0200                	.2byte	0x200
     56c:	0104                	.2byte	0x104
     56e:	04090003          	lb	zero,64(s2)
     572:	0100                	.2byte	0x100
     574:	6305                	.2byte	0x6305
     576:	0200                	.2byte	0x200
     578:	0104                	.2byte	0x104
     57a:	04090003          	lb	zero,64(s2)
     57e:	0100                	.2byte	0x100
     580:	3c05                	.2byte	0x3c05
     582:	0200                	.2byte	0x200
     584:	0104                	.2byte	0x104
     586:	04090003          	lb	zero,64(s2)
     58a:	0100                	.2byte	0x100
     58c:	1a05                	.2byte	0x1a05
     58e:	0200                	.2byte	0x200
     590:	0104                	.2byte	0x104
     592:	0306                	.2byte	0x306
     594:	0901                	.2byte	0x901
     596:	0004                	.2byte	0x4
     598:	0501                	.2byte	0x501
     59a:	000d                	.2byte	0xd
     59c:	0402                	.2byte	0x402
     59e:	0301                	.2byte	0x301
     5a0:	0901                	.2byte	0x901
     5a2:	0000                	.2byte	0x0
     5a4:	0501                	.2byte	0x501
     5a6:	0020                	.2byte	0x20
     5a8:	0402                	.2byte	0x402
     5aa:	0301                	.2byte	0x301
     5ac:	097f                	.2byte	0x97f
     5ae:	0004                	.2byte	0x4
     5b0:	0501                	.2byte	0x501
     5b2:	001a                	.2byte	0x1a
     5b4:	0402                	.2byte	0x402
     5b6:	0301                	.2byte	0x301
     5b8:	0900                	.2byte	0x900
     5ba:	0000                	.2byte	0x0
     5bc:	0501                	.2byte	0x501
     5be:	0009                	.2byte	0x9
     5c0:	0402                	.2byte	0x402
     5c2:	0301                	.2byte	0x301
     5c4:	00000903          	lb	s2,0(zero) # 0 <__DYNAMIC>
     5c8:	0501                	.2byte	0x501
     5ca:	0010                	.2byte	0x10
     5cc:	0402                	.2byte	0x402
     5ce:	0601                	.2byte	0x601
     5d0:	00090003          	lb	zero,0(s2)
     5d4:	0100                	.2byte	0x100
     5d6:	0d05                	.2byte	0xd05
     5d8:	0200                	.2byte	0x200
     5da:	0104                	.2byte	0x104
     5dc:	04090003          	lb	zero,64(s2)
     5e0:	0100                	.2byte	0x100
     5e2:	0505                	.2byte	0x505
     5e4:	0306                	.2byte	0x306
     5e6:	00040903          	lb	s2,0(s0)
     5ea:	0501                	.2byte	0x501
     5ec:	0601                	.2byte	0x601
     5ee:	00090103          	lb	sp,0(s2)
     5f2:	0100                	.2byte	0x100
     5f4:	0306                	.2byte	0x306
     5f6:	00040903          	lb	s2,0(s0)
     5fa:	0501                	.2byte	0x501
     5fc:	0305                	.2byte	0x305
     5fe:	0901                	.2byte	0x901
     600:	0000                	.2byte	0x0
     602:	0301                	.2byte	0x301
     604:	0901                	.2byte	0x901
     606:	0000                	.2byte	0x0
     608:	0501                	.2byte	0x501
     60a:	060c                	.2byte	0x60c
     60c:	00090003          	lb	zero,0(s2)
     610:	0100                	.2byte	0x100
     612:	2c05                	.2byte	0x2c05
     614:	08090003          	lb	zero,128(s2)
     618:	0100                	.2byte	0x100
     61a:	0705                	.2byte	0x705
     61c:	04090003          	lb	zero,64(s2)
     620:	0100                	.2byte	0x100
     622:	4305                	.2byte	0x4305
     624:	0200                	.2byte	0x200
     626:	0104                	.2byte	0x104
     628:	04090003          	lb	zero,64(s2)
     62c:	0100                	.2byte	0x100
     62e:	6305                	.2byte	0x6305
     630:	0200                	.2byte	0x200
     632:	0104                	.2byte	0x104
     634:	04090003          	lb	zero,64(s2)
     638:	0100                	.2byte	0x100
     63a:	3c05                	.2byte	0x3c05
     63c:	0200                	.2byte	0x200
     63e:	0104                	.2byte	0x104
     640:	04090003          	lb	zero,64(s2)
     644:	0100                	.2byte	0x100
     646:	1a05                	.2byte	0x1a05
     648:	0200                	.2byte	0x200
     64a:	0104                	.2byte	0x104
     64c:	0306                	.2byte	0x306
     64e:	0901                	.2byte	0x901
     650:	0004                	.2byte	0x4
     652:	0501                	.2byte	0x501
     654:	000d                	.2byte	0xd
     656:	0402                	.2byte	0x402
     658:	0301                	.2byte	0x301
     65a:	0901                	.2byte	0x901
     65c:	0000                	.2byte	0x0
     65e:	0501                	.2byte	0x501
     660:	0020                	.2byte	0x20
     662:	0402                	.2byte	0x402
     664:	0301                	.2byte	0x301
     666:	097f                	.2byte	0x97f
     668:	0004                	.2byte	0x4
     66a:	0501                	.2byte	0x501
     66c:	001a                	.2byte	0x1a
     66e:	0402                	.2byte	0x402
     670:	0301                	.2byte	0x301
     672:	0900                	.2byte	0x900
     674:	0000                	.2byte	0x0
     676:	0501                	.2byte	0x501
     678:	0009                	.2byte	0x9
     67a:	0402                	.2byte	0x402
     67c:	0301                	.2byte	0x301
     67e:	00000903          	lb	s2,0(zero) # 0 <__DYNAMIC>
     682:	0501                	.2byte	0x501
     684:	0010                	.2byte	0x10
     686:	0402                	.2byte	0x402
     688:	0601                	.2byte	0x601
     68a:	00090003          	lb	zero,0(s2)
     68e:	0100                	.2byte	0x100
     690:	0505                	.2byte	0x505
     692:	0306                	.2byte	0x306
     694:	00040903          	lb	s2,0(s0)
     698:	0501                	.2byte	0x501
     69a:	0601                	.2byte	0x601
     69c:	00090103          	lb	sp,0(s2)
     6a0:	0100                	.2byte	0x100
     6a2:	0409                	.2byte	0x409
     6a4:	0000                	.2byte	0x0
     6a6:	0101                	.2byte	0x101
     6a8:	0105                	.2byte	0x105
     6aa:	0500                	.2byte	0x500
     6ac:	2402                	.2byte	0x2402
     6ae:	0000                	.2byte	0x0
     6b0:	0338                	.2byte	0x338
     6b2:	013a                	.2byte	0x13a
     6b4:	0205                	.2byte	0x205
     6b6:	00090103          	lb	sp,0(s2)
     6ba:	0100                	.2byte	0x100
     6bc:	00090103          	lb	sp,0(s2)
     6c0:	0100                	.2byte	0x100
     6c2:	00090103          	lb	sp,0(s2)
     6c6:	0100                	.2byte	0x100
     6c8:	00090103          	lb	sp,0(s2)
     6cc:	0100                	.2byte	0x100
     6ce:	00090103          	lb	sp,0(s2)
     6d2:	0100                	.2byte	0x100
     6d4:	0d05                	.2byte	0xd05
     6d6:	00090003          	lb	zero,0(s2)
     6da:	0100                	.2byte	0x100
     6dc:	0105                	.2byte	0x105
     6de:	0306                	.2byte	0x306
     6e0:	0000097b          	.4byte	0x97b
     6e4:	0501                	.2byte	0x501
     6e6:	031c                	.2byte	0x31c
     6e8:	0909                	.2byte	0x909
     6ea:	0008                	.2byte	0x8
     6ec:	0501                	.2byte	0x501
     6ee:	0301                	.2byte	0x301
     6f0:	00080977          	.4byte	0x80977
     6f4:	0501                	.2byte	0x501
     6f6:	031c                	.2byte	0x31c
     6f8:	0909                	.2byte	0x909
     6fa:	0004                	.2byte	0x4
     6fc:	0501                	.2byte	0x501
     6fe:	030d                	.2byte	0x30d
     700:	0900                	.2byte	0x900
     702:	0004                	.2byte	0x4
     704:	0501                	.2byte	0x501
     706:	0301                	.2byte	0x301
     708:	00040977          	.4byte	0x40977
     70c:	0501                	.2byte	0x501
     70e:	031c                	.2byte	0x31c
     710:	0909                	.2byte	0x909
     712:	0008                	.2byte	0x8
     714:	0501                	.2byte	0x501
     716:	030d                	.2byte	0x30d
     718:	0900                	.2byte	0x900
     71a:	0004                	.2byte	0x4
     71c:	0501                	.2byte	0x501
     71e:	0319                	.2byte	0x319
     720:	0900                	.2byte	0x900
     722:	0004                	.2byte	0x4
     724:	0501                	.2byte	0x501
     726:	0301                	.2byte	0x301
     728:	00080977          	.4byte	0x80977
     72c:	0501                	.2byte	0x501
     72e:	0319                	.2byte	0x319
     730:	0909                	.2byte	0x909
     732:	0024                	.2byte	0x24
     734:	0501                	.2byte	0x501
     736:	031c                	.2byte	0x31c
     738:	0900                	.2byte	0x900
     73a:	0014                	.2byte	0x14
     73c:	0501                	.2byte	0x501
     73e:	0319                	.2byte	0x319
     740:	0900                	.2byte	0x900
     742:	0004                	.2byte	0x4
     744:	0501                	.2byte	0x501
     746:	030d                	.2byte	0x30d
     748:	0900                	.2byte	0x900
     74a:	0008                	.2byte	0x8
     74c:	0501                	.2byte	0x501
     74e:	0319                	.2byte	0x319
     750:	0900                	.2byte	0x900
     752:	0004                	.2byte	0x4
     754:	0501                	.2byte	0x501
     756:	031c                	.2byte	0x31c
     758:	0900                	.2byte	0x900
     75a:	000c                	.2byte	0xc
     75c:	0501                	.2byte	0x501
     75e:	0309                	.2byte	0x309
     760:	0900                	.2byte	0x900
     762:	0004                	.2byte	0x4
     764:	0501                	.2byte	0x501
     766:	0319                	.2byte	0x319
     768:	0900                	.2byte	0x900
     76a:	0004                	.2byte	0x4
     76c:	0501                	.2byte	0x501
     76e:	030d                	.2byte	0x30d
     770:	0900                	.2byte	0x900
     772:	0004                	.2byte	0x4
     774:	0501                	.2byte	0x501
     776:	0319                	.2byte	0x319
     778:	0900                	.2byte	0x900
     77a:	0004                	.2byte	0x4
     77c:	0501                	.2byte	0x501
     77e:	031c                	.2byte	0x31c
     780:	0900                	.2byte	0x900
     782:	0010                	.2byte	0x10
     784:	0501                	.2byte	0x501
     786:	0309                	.2byte	0x309
     788:	0900                	.2byte	0x900
     78a:	0004                	.2byte	0x4
     78c:	0501                	.2byte	0x501
     78e:	0316                	.2byte	0x316
     790:	0901                	.2byte	0x901
     792:	0004                	.2byte	0x4
     794:	0501                	.2byte	0x501
     796:	0309                	.2byte	0x309
     798:	097f                	.2byte	0x97f
     79a:	0008                	.2byte	0x8
     79c:	0501                	.2byte	0x501
     79e:	0316                	.2byte	0x316
     7a0:	0901                	.2byte	0x901
     7a2:	0004                	.2byte	0x4
     7a4:	0501                	.2byte	0x501
     7a6:	0319                	.2byte	0x319
     7a8:	097f                	.2byte	0x97f
     7aa:	0004                	.2byte	0x4
     7ac:	0501                	.2byte	0x501
     7ae:	031c                	.2byte	0x31c
     7b0:	0900                	.2byte	0x900
     7b2:	000c                	.2byte	0xc
     7b4:	0501                	.2byte	0x501
     7b6:	0319                	.2byte	0x319
     7b8:	0900                	.2byte	0x900
     7ba:	0008                	.2byte	0x8
     7bc:	0501                	.2byte	0x501
     7be:	031c                	.2byte	0x31c
     7c0:	0900                	.2byte	0x900
     7c2:	000c                	.2byte	0xc
     7c4:	0501                	.2byte	0x501
     7c6:	0319                	.2byte	0x319
     7c8:	0900                	.2byte	0x900
     7ca:	0008                	.2byte	0x8
     7cc:	0501                	.2byte	0x501
     7ce:	031c                	.2byte	0x31c
     7d0:	0900                	.2byte	0x900
     7d2:	0004                	.2byte	0x4
     7d4:	0501                	.2byte	0x501
     7d6:	0319                	.2byte	0x319
     7d8:	0900                	.2byte	0x900
     7da:	0004                	.2byte	0x4
     7dc:	0501                	.2byte	0x501
     7de:	0309                	.2byte	0x309
     7e0:	0900                	.2byte	0x900
     7e2:	0010                	.2byte	0x10
     7e4:	0501                	.2byte	0x501
     7e6:	031c                	.2byte	0x31c
     7e8:	0900                	.2byte	0x900
     7ea:	0004                	.2byte	0x4
     7ec:	0501                	.2byte	0x501
     7ee:	0319                	.2byte	0x319
     7f0:	0900                	.2byte	0x900
     7f2:	0004                	.2byte	0x4
     7f4:	0501                	.2byte	0x501
     7f6:	031c                	.2byte	0x31c
     7f8:	0900                	.2byte	0x900
     7fa:	0004                	.2byte	0x4
     7fc:	0501                	.2byte	0x501
     7fe:	0319                	.2byte	0x319
     800:	0900                	.2byte	0x900
     802:	0004                	.2byte	0x4
     804:	0501                	.2byte	0x501
     806:	031c                	.2byte	0x31c
     808:	0900                	.2byte	0x900
     80a:	000c                	.2byte	0xc
     80c:	0501                	.2byte	0x501
     80e:	0309                	.2byte	0x309
     810:	0900                	.2byte	0x900
     812:	0004                	.2byte	0x4
     814:	0501                	.2byte	0x501
     816:	0319                	.2byte	0x319
     818:	0900                	.2byte	0x900
     81a:	0004                	.2byte	0x4
     81c:	0501                	.2byte	0x501
     81e:	031c                	.2byte	0x31c
     820:	0900                	.2byte	0x900
     822:	0004                	.2byte	0x4
     824:	0501                	.2byte	0x501
     826:	0309                	.2byte	0x309
     828:	0900                	.2byte	0x900
     82a:	0004                	.2byte	0x4
     82c:	0501                	.2byte	0x501
     82e:	0316                	.2byte	0x316
     830:	0901                	.2byte	0x901
     832:	0004                	.2byte	0x4
     834:	0501                	.2byte	0x501
     836:	0319                	.2byte	0x319
     838:	097f                	.2byte	0x97f
     83a:	0004                	.2byte	0x4
     83c:	0501                	.2byte	0x501
     83e:	031c                	.2byte	0x31c
     840:	0900                	.2byte	0x900
     842:	000c                	.2byte	0xc
     844:	0501                	.2byte	0x501
     846:	0319                	.2byte	0x319
     848:	0900                	.2byte	0x900
     84a:	0004                	.2byte	0x4
     84c:	0501                	.2byte	0x501
     84e:	031c                	.2byte	0x31c
     850:	0900                	.2byte	0x900
     852:	0004                	.2byte	0x4
     854:	0501                	.2byte	0x501
     856:	0319                	.2byte	0x319
     858:	0900                	.2byte	0x900
     85a:	0004                	.2byte	0x4
     85c:	0501                	.2byte	0x501
     85e:	031c                	.2byte	0x31c
     860:	0900                	.2byte	0x900
     862:	000c                	.2byte	0xc
     864:	0501                	.2byte	0x501
     866:	0319                	.2byte	0x319
     868:	0900                	.2byte	0x900
     86a:	0004                	.2byte	0x4
     86c:	0501                	.2byte	0x501
     86e:	031c                	.2byte	0x31c
     870:	0900                	.2byte	0x900
     872:	0004                	.2byte	0x4
     874:	0501                	.2byte	0x501
     876:	0319                	.2byte	0x319
     878:	0900                	.2byte	0x900
     87a:	0004                	.2byte	0x4
     87c:	0501                	.2byte	0x501
     87e:	0309                	.2byte	0x309
     880:	0900                	.2byte	0x900
     882:	0010                	.2byte	0x10
     884:	0501                	.2byte	0x501
     886:	031c                	.2byte	0x31c
     888:	0900                	.2byte	0x900
     88a:	0004                	.2byte	0x4
     88c:	0501                	.2byte	0x501
     88e:	0319                	.2byte	0x319
     890:	0900                	.2byte	0x900
     892:	0004                	.2byte	0x4
     894:	0501                	.2byte	0x501
     896:	031c                	.2byte	0x31c
     898:	0900                	.2byte	0x900
     89a:	0004                	.2byte	0x4
     89c:	0501                	.2byte	0x501
     89e:	0319                	.2byte	0x319
     8a0:	0900                	.2byte	0x900
     8a2:	0004                	.2byte	0x4
     8a4:	0501                	.2byte	0x501
     8a6:	031c                	.2byte	0x31c
     8a8:	0900                	.2byte	0x900
     8aa:	000c                	.2byte	0xc
     8ac:	0501                	.2byte	0x501
     8ae:	0309                	.2byte	0x309
     8b0:	0900                	.2byte	0x900
     8b2:	0004                	.2byte	0x4
     8b4:	0501                	.2byte	0x501
     8b6:	0319                	.2byte	0x319
     8b8:	0900                	.2byte	0x900
     8ba:	0004                	.2byte	0x4
     8bc:	0501                	.2byte	0x501
     8be:	0309                	.2byte	0x309
     8c0:	0900                	.2byte	0x900
     8c2:	0004                	.2byte	0x4
     8c4:	0501                	.2byte	0x501
     8c6:	0319                	.2byte	0x319
     8c8:	0900                	.2byte	0x900
     8ca:	0004                	.2byte	0x4
     8cc:	0501                	.2byte	0x501
     8ce:	0316                	.2byte	0x316
     8d0:	0901                	.2byte	0x901
     8d2:	0004                	.2byte	0x4
     8d4:	0501                	.2byte	0x501
     8d6:	0319                	.2byte	0x319
     8d8:	097f                	.2byte	0x97f
     8da:	0004                	.2byte	0x4
     8dc:	0501                	.2byte	0x501
     8de:	031c                	.2byte	0x31c
     8e0:	0900                	.2byte	0x900
     8e2:	0014                	.2byte	0x14
     8e4:	0501                	.2byte	0x501
     8e6:	0319                	.2byte	0x319
     8e8:	0900                	.2byte	0x900
     8ea:	0004                	.2byte	0x4
     8ec:	0501                	.2byte	0x501
     8ee:	031c                	.2byte	0x31c
     8f0:	0900                	.2byte	0x900
     8f2:	0004                	.2byte	0x4
     8f4:	0501                	.2byte	0x501
     8f6:	060e                	.2byte	0x60e
     8f8:	04097d03          	.4byte	0x4097d03
     8fc:	0100                	.2byte	0x100
     8fe:	0f05                	.2byte	0xf05
     900:	00090203          	lb	tp,0(s2)
     904:	0100                	.2byte	0x100
     906:	0505                	.2byte	0x505
     908:	00090103          	lb	sp,0(s2)
     90c:	0100                	.2byte	0x100
     90e:	1305                	.2byte	0x1305
     910:	00097f03          	.4byte	0x97f03
     914:	0100                	.2byte	0x100
     916:	0f05                	.2byte	0xf05
     918:	00090003          	lb	zero,0(s2)
     91c:	0100                	.2byte	0x100
     91e:	0505                	.2byte	0x505
     920:	00090103          	lb	sp,0(s2)
     924:	0100                	.2byte	0x100
     926:	1305                	.2byte	0x1305
     928:	00097f03          	.4byte	0x97f03
     92c:	0100                	.2byte	0x100
     92e:	0f05                	.2byte	0xf05
     930:	00090003          	lb	zero,0(s2)
     934:	0100                	.2byte	0x100
     936:	0505                	.2byte	0x505
     938:	00090103          	lb	sp,0(s2)
     93c:	0100                	.2byte	0x100
     93e:	1305                	.2byte	0x1305
     940:	00097f03          	.4byte	0x97f03
     944:	0100                	.2byte	0x100
     946:	0f05                	.2byte	0xf05
     948:	00090003          	lb	zero,0(s2)
     94c:	0100                	.2byte	0x100
     94e:	0505                	.2byte	0x505
     950:	00090103          	lb	sp,0(s2)
     954:	0100                	.2byte	0x100
     956:	1305                	.2byte	0x1305
     958:	00097f03          	.4byte	0x97f03
     95c:	0100                	.2byte	0x100
     95e:	0f05                	.2byte	0xf05
     960:	00090003          	lb	zero,0(s2)
     964:	0100                	.2byte	0x100
     966:	0405                	.2byte	0x405
     968:	00090203          	lb	tp,0(s2)
     96c:	0100                	.2byte	0x100
     96e:	1305                	.2byte	0x1305
     970:	00097c03          	.4byte	0x97c03
     974:	0100                	.2byte	0x100
     976:	0e05                	.2byte	0xe05
     978:	00090003          	lb	zero,0(s2)
     97c:	0100                	.2byte	0x100
     97e:	0f05                	.2byte	0xf05
     980:	00090203          	lb	tp,0(s2)
     984:	0100                	.2byte	0x100
     986:	0505                	.2byte	0x505
     988:	00090103          	lb	sp,0(s2)
     98c:	0100                	.2byte	0x100
     98e:	1305                	.2byte	0x1305
     990:	00097f03          	.4byte	0x97f03
     994:	0100                	.2byte	0x100
     996:	0f05                	.2byte	0xf05
     998:	00090003          	lb	zero,0(s2)
     99c:	0100                	.2byte	0x100
     99e:	0505                	.2byte	0x505
     9a0:	00090103          	lb	sp,0(s2)
     9a4:	0100                	.2byte	0x100
     9a6:	1305                	.2byte	0x1305
     9a8:	00097f03          	.4byte	0x97f03
     9ac:	0100                	.2byte	0x100
     9ae:	0f05                	.2byte	0xf05
     9b0:	00090003          	lb	zero,0(s2)
     9b4:	0100                	.2byte	0x100
     9b6:	0505                	.2byte	0x505
     9b8:	00090103          	lb	sp,0(s2)
     9bc:	0100                	.2byte	0x100
     9be:	1305                	.2byte	0x1305
     9c0:	00097f03          	.4byte	0x97f03
     9c4:	0100                	.2byte	0x100
     9c6:	0f05                	.2byte	0xf05
     9c8:	00090003          	lb	zero,0(s2)
     9cc:	0100                	.2byte	0x100
     9ce:	0505                	.2byte	0x505
     9d0:	00090103          	lb	sp,0(s2)
     9d4:	0100                	.2byte	0x100
     9d6:	1305                	.2byte	0x1305
     9d8:	00097f03          	.4byte	0x97f03
     9dc:	0100                	.2byte	0x100
     9de:	0f05                	.2byte	0xf05
     9e0:	00090003          	lb	zero,0(s2)
     9e4:	0100                	.2byte	0x100
     9e6:	0405                	.2byte	0x405
     9e8:	00090203          	lb	tp,0(s2)
     9ec:	0100                	.2byte	0x100
     9ee:	1305                	.2byte	0x1305
     9f0:	00097c03          	.4byte	0x97c03
     9f4:	0100                	.2byte	0x100
     9f6:	0e05                	.2byte	0xe05
     9f8:	00090003          	lb	zero,0(s2)
     9fc:	0100                	.2byte	0x100
     9fe:	0f05                	.2byte	0xf05
     a00:	00090203          	lb	tp,0(s2)
     a04:	0100                	.2byte	0x100
     a06:	0505                	.2byte	0x505
     a08:	00090103          	lb	sp,0(s2)
     a0c:	0100                	.2byte	0x100
     a0e:	1305                	.2byte	0x1305
     a10:	00097f03          	.4byte	0x97f03
     a14:	0100                	.2byte	0x100
     a16:	0f05                	.2byte	0xf05
     a18:	00090003          	lb	zero,0(s2)
     a1c:	0100                	.2byte	0x100
     a1e:	0505                	.2byte	0x505
     a20:	00090103          	lb	sp,0(s2)
     a24:	0100                	.2byte	0x100
     a26:	1305                	.2byte	0x1305
     a28:	00097f03          	.4byte	0x97f03
     a2c:	0100                	.2byte	0x100
     a2e:	0f05                	.2byte	0xf05
     a30:	00090003          	lb	zero,0(s2)
     a34:	0100                	.2byte	0x100
     a36:	0505                	.2byte	0x505
     a38:	00090103          	lb	sp,0(s2)
     a3c:	0100                	.2byte	0x100
     a3e:	1305                	.2byte	0x1305
     a40:	00097f03          	.4byte	0x97f03
     a44:	0100                	.2byte	0x100
     a46:	0f05                	.2byte	0xf05
     a48:	00090003          	lb	zero,0(s2)
     a4c:	0100                	.2byte	0x100
     a4e:	0505                	.2byte	0x505
     a50:	00090103          	lb	sp,0(s2)
     a54:	0100                	.2byte	0x100
     a56:	1305                	.2byte	0x1305
     a58:	00097f03          	.4byte	0x97f03
     a5c:	0100                	.2byte	0x100
     a5e:	0f05                	.2byte	0xf05
     a60:	00090003          	lb	zero,0(s2)
     a64:	0100                	.2byte	0x100
     a66:	0405                	.2byte	0x405
     a68:	00090203          	lb	tp,0(s2)
     a6c:	0100                	.2byte	0x100
     a6e:	1305                	.2byte	0x1305
     a70:	00097c03          	.4byte	0x97c03
     a74:	0100                	.2byte	0x100
     a76:	0e05                	.2byte	0xe05
     a78:	00090003          	lb	zero,0(s2)
     a7c:	0100                	.2byte	0x100
     a7e:	0f05                	.2byte	0xf05
     a80:	00090203          	lb	tp,0(s2)
     a84:	0100                	.2byte	0x100
     a86:	0505                	.2byte	0x505
     a88:	00090103          	lb	sp,0(s2)
     a8c:	0100                	.2byte	0x100
     a8e:	1305                	.2byte	0x1305
     a90:	00097f03          	.4byte	0x97f03
     a94:	0100                	.2byte	0x100
     a96:	0f05                	.2byte	0xf05
     a98:	00090003          	lb	zero,0(s2)
     a9c:	0100                	.2byte	0x100
     a9e:	0505                	.2byte	0x505
     aa0:	00090103          	lb	sp,0(s2)
     aa4:	0100                	.2byte	0x100
     aa6:	1905                	.2byte	0x1905
     aa8:	0306                	.2byte	0x306
     aaa:	0900                	.2byte	0x900
     aac:	0000                	.2byte	0x0
     aae:	0501                	.2byte	0x501
     ab0:	0309                	.2byte	0x309
     ab2:	0900                	.2byte	0x900
     ab4:	0014                	.2byte	0x14
     ab6:	0501                	.2byte	0x501
     ab8:	7f030613          	addi	a2,t1,2032
     abc:	0409                	.2byte	0x409
     abe:	0100                	.2byte	0x100
     ac0:	0f05                	.2byte	0xf05
     ac2:	00090003          	lb	zero,0(s2)
     ac6:	0100                	.2byte	0x100
     ac8:	0505                	.2byte	0x505
     aca:	00090103          	lb	sp,0(s2)
     ace:	0100                	.2byte	0x100
     ad0:	1905                	.2byte	0x1905
     ad2:	0306                	.2byte	0x306
     ad4:	0900                	.2byte	0x900
     ad6:	0000                	.2byte	0x0
     ad8:	0501                	.2byte	0x501
     ada:	0309                	.2byte	0x309
     adc:	0900                	.2byte	0x900
     ade:	0010                	.2byte	0x10
     ae0:	0501                	.2byte	0x501
     ae2:	7f030613          	addi	a2,t1,2032
     ae6:	0409                	.2byte	0x409
     ae8:	0100                	.2byte	0x100
     aea:	0f05                	.2byte	0xf05
     aec:	00090003          	lb	zero,0(s2)
     af0:	0100                	.2byte	0x100
     af2:	0505                	.2byte	0x505
     af4:	00090103          	lb	sp,0(s2)
     af8:	0100                	.2byte	0x100
     afa:	1305                	.2byte	0x1305
     afc:	00097f03          	.4byte	0x97f03
     b00:	0100                	.2byte	0x100
     b02:	0f05                	.2byte	0xf05
     b04:	00090003          	lb	zero,0(s2)
     b08:	0100                	.2byte	0x100
     b0a:	0405                	.2byte	0x405
     b0c:	00090203          	lb	tp,0(s2)
     b10:	0100                	.2byte	0x100
     b12:	1905                	.2byte	0x1905
     b14:	0306                	.2byte	0x306
     b16:	097f                	.2byte	0x97f
     b18:	0000                	.2byte	0x0
     b1a:	0501                	.2byte	0x501
     b1c:	030d                	.2byte	0x30d
     b1e:	0900                	.2byte	0x900
     b20:	0004                	.2byte	0x4
     b22:	0501                	.2byte	0x501
     b24:	0309                	.2byte	0x309
     b26:	0900                	.2byte	0x900
     b28:	0004                	.2byte	0x4
     b2a:	0501                	.2byte	0x501
     b2c:	0319                	.2byte	0x319
     b2e:	0900                	.2byte	0x900
     b30:	0004                	.2byte	0x4
     b32:	0501                	.2byte	0x501
     b34:	0316                	.2byte	0x316
     b36:	0901                	.2byte	0x901
     b38:	0004                	.2byte	0x4
     b3a:	0501                	.2byte	0x501
     b3c:	7c030613          	addi	a2,t1,1984
     b40:	0409                	.2byte	0x409
     b42:	0100                	.2byte	0x100
     b44:	0e05                	.2byte	0xe05
     b46:	00090003          	lb	zero,0(s2)
     b4a:	0100                	.2byte	0x100
     b4c:	1205                	.2byte	0x1205
     b4e:	00097f03          	.4byte	0x97f03
     b52:	0100                	.2byte	0x100
     b54:	0d05                	.2byte	0xd05
     b56:	00090003          	lb	zero,0(s2)
     b5a:	0100                	.2byte	0x100
     b5c:	0e05                	.2byte	0xe05
     b5e:	00090103          	lb	sp,0(s2)
     b62:	0100                	.2byte	0x100
     b64:	0f05                	.2byte	0xf05
     b66:	00090203          	lb	tp,0(s2)
     b6a:	0100                	.2byte	0x100
     b6c:	0505                	.2byte	0x505
     b6e:	00090103          	lb	sp,0(s2)
     b72:	0100                	.2byte	0x100
     b74:	1905                	.2byte	0x1905
     b76:	0306                	.2byte	0x306
     b78:	0900                	.2byte	0x900
     b7a:	0000                	.2byte	0x0
     b7c:	0501                	.2byte	0x501
     b7e:	030d                	.2byte	0x30d
     b80:	0900                	.2byte	0x900
     b82:	0008                	.2byte	0x8
     b84:	0501                	.2byte	0x501
     b86:	7f030613          	addi	a2,t1,2032
     b8a:	0409                	.2byte	0x409
     b8c:	0100                	.2byte	0x100
     b8e:	0f05                	.2byte	0xf05
     b90:	00090003          	lb	zero,0(s2)
     b94:	0100                	.2byte	0x100
     b96:	0505                	.2byte	0x505
     b98:	00090103          	lb	sp,0(s2)
     b9c:	0100                	.2byte	0x100
     b9e:	1905                	.2byte	0x1905
     ba0:	0306                	.2byte	0x306
     ba2:	0900                	.2byte	0x900
     ba4:	0000                	.2byte	0x0
     ba6:	0501                	.2byte	0x501
     ba8:	030d                	.2byte	0x30d
     baa:	0900                	.2byte	0x900
     bac:	0010                	.2byte	0x10
     bae:	0501                	.2byte	0x501
     bb0:	0309                	.2byte	0x309
     bb2:	0900                	.2byte	0x900
     bb4:	0004                	.2byte	0x4
     bb6:	0501                	.2byte	0x501
     bb8:	0319                	.2byte	0x319
     bba:	0900                	.2byte	0x900
     bbc:	0004                	.2byte	0x4
     bbe:	0501                	.2byte	0x501
     bc0:	0309                	.2byte	0x309
     bc2:	0900                	.2byte	0x900
     bc4:	0008                	.2byte	0x8
     bc6:	0501                	.2byte	0x501
     bc8:	7f030613          	addi	a2,t1,2032
     bcc:	0409                	.2byte	0x409
     bce:	0100                	.2byte	0x100
     bd0:	0f05                	.2byte	0xf05
     bd2:	00090003          	lb	zero,0(s2)
     bd6:	0100                	.2byte	0x100
     bd8:	0505                	.2byte	0x505
     bda:	00090103          	lb	sp,0(s2)
     bde:	0100                	.2byte	0x100
     be0:	1905                	.2byte	0x1905
     be2:	0306                	.2byte	0x306
     be4:	0900                	.2byte	0x900
     be6:	0000                	.2byte	0x0
     be8:	0501                	.2byte	0x501
     bea:	0309                	.2byte	0x309
     bec:	0900                	.2byte	0x900
     bee:	0004                	.2byte	0x4
     bf0:	0501                	.2byte	0x501
     bf2:	030d                	.2byte	0x30d
     bf4:	0900                	.2byte	0x900
     bf6:	0004                	.2byte	0x4
     bf8:	0501                	.2byte	0x501
     bfa:	0319                	.2byte	0x319
     bfc:	0900                	.2byte	0x900
     bfe:	0004                	.2byte	0x4
     c00:	0501                	.2byte	0x501
     c02:	0309                	.2byte	0x309
     c04:	0900                	.2byte	0x900
     c06:	0004                	.2byte	0x4
     c08:	0501                	.2byte	0x501
     c0a:	0319                	.2byte	0x319
     c0c:	0900                	.2byte	0x900
     c0e:	0004                	.2byte	0x4
     c10:	0501                	.2byte	0x501
     c12:	0309                	.2byte	0x309
     c14:	0900                	.2byte	0x900
     c16:	0004                	.2byte	0x4
     c18:	0501                	.2byte	0x501
     c1a:	7f030613          	addi	a2,t1,2032
     c1e:	0409                	.2byte	0x409
     c20:	0100                	.2byte	0x100
     c22:	0f05                	.2byte	0xf05
     c24:	00090003          	lb	zero,0(s2)
     c28:	0100                	.2byte	0x100
     c2a:	0505                	.2byte	0x505
     c2c:	00090103          	lb	sp,0(s2)
     c30:	0100                	.2byte	0x100
     c32:	1305                	.2byte	0x1305
     c34:	00097f03          	.4byte	0x97f03
     c38:	0100                	.2byte	0x100
     c3a:	0f05                	.2byte	0xf05
     c3c:	00090003          	lb	zero,0(s2)
     c40:	0100                	.2byte	0x100
     c42:	0405                	.2byte	0x405
     c44:	00090203          	lb	tp,0(s2)
     c48:	0100                	.2byte	0x100
     c4a:	1905                	.2byte	0x1905
     c4c:	0306                	.2byte	0x306
     c4e:	097f                	.2byte	0x97f
     c50:	0000                	.2byte	0x0
     c52:	0501                	.2byte	0x501
     c54:	0309                	.2byte	0x309
     c56:	0900                	.2byte	0x900
     c58:	0004                	.2byte	0x4
     c5a:	0501                	.2byte	0x501
     c5c:	0319                	.2byte	0x319
     c5e:	0900                	.2byte	0x900
     c60:	0004                	.2byte	0x4
     c62:	0501                	.2byte	0x501
     c64:	0309                	.2byte	0x309
     c66:	0900                	.2byte	0x900
     c68:	0004                	.2byte	0x4
     c6a:	0501                	.2byte	0x501
     c6c:	0316                	.2byte	0x316
     c6e:	0901                	.2byte	0x901
     c70:	0004                	.2byte	0x4
     c72:	0501                	.2byte	0x501
     c74:	7c030613          	addi	a2,t1,1984
     c78:	0409                	.2byte	0x409
     c7a:	0100                	.2byte	0x100
     c7c:	0e05                	.2byte	0xe05
     c7e:	00090003          	lb	zero,0(s2)
     c82:	0100                	.2byte	0x100
     c84:	0f05                	.2byte	0xf05
     c86:	00090203          	lb	tp,0(s2)
     c8a:	0100                	.2byte	0x100
     c8c:	0505                	.2byte	0x505
     c8e:	00090103          	lb	sp,0(s2)
     c92:	0100                	.2byte	0x100
     c94:	1305                	.2byte	0x1305
     c96:	00097f03          	.4byte	0x97f03
     c9a:	0100                	.2byte	0x100
     c9c:	0f05                	.2byte	0xf05
     c9e:	00090003          	lb	zero,0(s2)
     ca2:	0100                	.2byte	0x100
     ca4:	0505                	.2byte	0x505
     ca6:	00090103          	lb	sp,0(s2)
     caa:	0100                	.2byte	0x100
     cac:	1905                	.2byte	0x1905
     cae:	0306                	.2byte	0x306
     cb0:	0900                	.2byte	0x900
     cb2:	0000                	.2byte	0x0
     cb4:	0501                	.2byte	0x501
     cb6:	0309                	.2byte	0x309
     cb8:	0900                	.2byte	0x900
     cba:	001c                	.2byte	0x1c
     cbc:	0501                	.2byte	0x501
     cbe:	0319                	.2byte	0x319
     cc0:	0900                	.2byte	0x900
     cc2:	0004                	.2byte	0x4
     cc4:	0501                	.2byte	0x501
     cc6:	0309                	.2byte	0x309
     cc8:	0900                	.2byte	0x900
     cca:	0008                	.2byte	0x8
     ccc:	0501                	.2byte	0x501
     cce:	0319                	.2byte	0x319
     cd0:	0900                	.2byte	0x900
     cd2:	0004                	.2byte	0x4
     cd4:	0501                	.2byte	0x501
     cd6:	0309                	.2byte	0x309
     cd8:	0900                	.2byte	0x900
     cda:	0004                	.2byte	0x4
     cdc:	0501                	.2byte	0x501
     cde:	7f030613          	addi	a2,t1,2032
     ce2:	0409                	.2byte	0x409
     ce4:	0100                	.2byte	0x100
     ce6:	0f05                	.2byte	0xf05
     ce8:	00090003          	lb	zero,0(s2)
     cec:	0100                	.2byte	0x100
     cee:	0505                	.2byte	0x505
     cf0:	00090103          	lb	sp,0(s2)
     cf4:	0100                	.2byte	0x100
     cf6:	1905                	.2byte	0x1905
     cf8:	0306                	.2byte	0x306
     cfa:	0900                	.2byte	0x900
     cfc:	0000                	.2byte	0x0
     cfe:	0501                	.2byte	0x501
     d00:	0309                	.2byte	0x309
     d02:	0900                	.2byte	0x900
     d04:	0004                	.2byte	0x4
     d06:	0501                	.2byte	0x501
     d08:	0319                	.2byte	0x319
     d0a:	0900                	.2byte	0x900
     d0c:	0004                	.2byte	0x4
     d0e:	0501                	.2byte	0x501
     d10:	0309                	.2byte	0x309
     d12:	0900                	.2byte	0x900
     d14:	0008                	.2byte	0x8
     d16:	0501                	.2byte	0x501
     d18:	0319                	.2byte	0x319
     d1a:	0900                	.2byte	0x900
     d1c:	0004                	.2byte	0x4
     d1e:	0501                	.2byte	0x501
     d20:	0309                	.2byte	0x309
     d22:	0900                	.2byte	0x900
     d24:	0004                	.2byte	0x4
     d26:	0501                	.2byte	0x501
     d28:	7f030613          	addi	a2,t1,2032
     d2c:	0409                	.2byte	0x409
     d2e:	0100                	.2byte	0x100
     d30:	0f05                	.2byte	0xf05
     d32:	00090003          	lb	zero,0(s2)
     d36:	0100                	.2byte	0x100
     d38:	0505                	.2byte	0x505
     d3a:	00090103          	lb	sp,0(s2)
     d3e:	0100                	.2byte	0x100
     d40:	1305                	.2byte	0x1305
     d42:	00097f03          	.4byte	0x97f03
     d46:	0100                	.2byte	0x100
     d48:	0f05                	.2byte	0xf05
     d4a:	00090003          	lb	zero,0(s2)
     d4e:	0100                	.2byte	0x100
     d50:	0405                	.2byte	0x405
     d52:	00090203          	lb	tp,0(s2)
     d56:	0100                	.2byte	0x100
     d58:	1905                	.2byte	0x1905
     d5a:	0306                	.2byte	0x306
     d5c:	097f                	.2byte	0x97f
     d5e:	0000                	.2byte	0x0
     d60:	0501                	.2byte	0x501
     d62:	0309                	.2byte	0x309
     d64:	0900                	.2byte	0x900
     d66:	0004                	.2byte	0x4
     d68:	0501                	.2byte	0x501
     d6a:	0319                	.2byte	0x319
     d6c:	0900                	.2byte	0x900
     d6e:	0004                	.2byte	0x4
     d70:	0501                	.2byte	0x501
     d72:	0309                	.2byte	0x309
     d74:	0900                	.2byte	0x900
     d76:	0004                	.2byte	0x4
     d78:	0501                	.2byte	0x501
     d7a:	0316                	.2byte	0x316
     d7c:	0901                	.2byte	0x901
     d7e:	0004                	.2byte	0x4
     d80:	0501                	.2byte	0x501
     d82:	7c030613          	addi	a2,t1,1984
     d86:	0409                	.2byte	0x409
     d88:	0100                	.2byte	0x100
     d8a:	0e05                	.2byte	0xe05
     d8c:	00090003          	lb	zero,0(s2)
     d90:	0100                	.2byte	0x100
     d92:	0f05                	.2byte	0xf05
     d94:	00090203          	lb	tp,0(s2)
     d98:	0100                	.2byte	0x100
     d9a:	0505                	.2byte	0x505
     d9c:	00090103          	lb	sp,0(s2)
     da0:	0100                	.2byte	0x100
     da2:	1305                	.2byte	0x1305
     da4:	00097f03          	.4byte	0x97f03
     da8:	0100                	.2byte	0x100
     daa:	0f05                	.2byte	0xf05
     dac:	00090003          	lb	zero,0(s2)
     db0:	0100                	.2byte	0x100
     db2:	0505                	.2byte	0x505
     db4:	00090103          	lb	sp,0(s2)
     db8:	0100                	.2byte	0x100
     dba:	1905                	.2byte	0x1905
     dbc:	0306                	.2byte	0x306
     dbe:	0900                	.2byte	0x900
     dc0:	0000                	.2byte	0x0
     dc2:	0501                	.2byte	0x501
     dc4:	0309                	.2byte	0x309
     dc6:	0900                	.2byte	0x900
     dc8:	001c                	.2byte	0x1c
     dca:	0501                	.2byte	0x501
     dcc:	0319                	.2byte	0x319
     dce:	0900                	.2byte	0x900
     dd0:	0004                	.2byte	0x4
     dd2:	0501                	.2byte	0x501
     dd4:	0309                	.2byte	0x309
     dd6:	0900                	.2byte	0x900
     dd8:	0008                	.2byte	0x8
     dda:	0501                	.2byte	0x501
     ddc:	0319                	.2byte	0x319
     dde:	0900                	.2byte	0x900
     de0:	0004                	.2byte	0x4
     de2:	0501                	.2byte	0x501
     de4:	0309                	.2byte	0x309
     de6:	0900                	.2byte	0x900
     de8:	0004                	.2byte	0x4
     dea:	0501                	.2byte	0x501
     dec:	7f030613          	addi	a2,t1,2032
     df0:	0409                	.2byte	0x409
     df2:	0100                	.2byte	0x100
     df4:	0f05                	.2byte	0xf05
     df6:	00090003          	lb	zero,0(s2)
     dfa:	0100                	.2byte	0x100
     dfc:	0505                	.2byte	0x505
     dfe:	00090103          	lb	sp,0(s2)
     e02:	0100                	.2byte	0x100
     e04:	1905                	.2byte	0x1905
     e06:	0306                	.2byte	0x306
     e08:	0900                	.2byte	0x900
     e0a:	0000                	.2byte	0x0
     e0c:	0501                	.2byte	0x501
     e0e:	0309                	.2byte	0x309
     e10:	0900                	.2byte	0x900
     e12:	0004                	.2byte	0x4
     e14:	0501                	.2byte	0x501
     e16:	0319                	.2byte	0x319
     e18:	0900                	.2byte	0x900
     e1a:	0004                	.2byte	0x4
     e1c:	0501                	.2byte	0x501
     e1e:	0309                	.2byte	0x309
     e20:	0900                	.2byte	0x900
     e22:	0008                	.2byte	0x8
     e24:	0501                	.2byte	0x501
     e26:	0319                	.2byte	0x319
     e28:	0900                	.2byte	0x900
     e2a:	0004                	.2byte	0x4
     e2c:	0501                	.2byte	0x501
     e2e:	0309                	.2byte	0x309
     e30:	0900                	.2byte	0x900
     e32:	0004                	.2byte	0x4
     e34:	0501                	.2byte	0x501
     e36:	7f030613          	addi	a2,t1,2032
     e3a:	0409                	.2byte	0x409
     e3c:	0100                	.2byte	0x100
     e3e:	0f05                	.2byte	0xf05
     e40:	00090003          	lb	zero,0(s2)
     e44:	0100                	.2byte	0x100
     e46:	0505                	.2byte	0x505
     e48:	00090103          	lb	sp,0(s2)
     e4c:	0100                	.2byte	0x100
     e4e:	1305                	.2byte	0x1305
     e50:	00097f03          	.4byte	0x97f03
     e54:	0100                	.2byte	0x100
     e56:	0f05                	.2byte	0xf05
     e58:	00090003          	lb	zero,0(s2)
     e5c:	0100                	.2byte	0x100
     e5e:	0405                	.2byte	0x405
     e60:	00090203          	lb	tp,0(s2)
     e64:	0100                	.2byte	0x100
     e66:	1905                	.2byte	0x1905
     e68:	0306                	.2byte	0x306
     e6a:	097f                	.2byte	0x97f
     e6c:	0000                	.2byte	0x0
     e6e:	0501                	.2byte	0x501
     e70:	0309                	.2byte	0x309
     e72:	0900                	.2byte	0x900
     e74:	0004                	.2byte	0x4
     e76:	0501                	.2byte	0x501
     e78:	0319                	.2byte	0x319
     e7a:	0900                	.2byte	0x900
     e7c:	0004                	.2byte	0x4
     e7e:	0501                	.2byte	0x501
     e80:	0309                	.2byte	0x309
     e82:	0900                	.2byte	0x900
     e84:	0004                	.2byte	0x4
     e86:	0501                	.2byte	0x501
     e88:	0316                	.2byte	0x316
     e8a:	0901                	.2byte	0x901
     e8c:	0004                	.2byte	0x4
     e8e:	0501                	.2byte	0x501
     e90:	7c030613          	addi	a2,t1,1984
     e94:	0409                	.2byte	0x409
     e96:	0100                	.2byte	0x100
     e98:	0e05                	.2byte	0xe05
     e9a:	00090003          	lb	zero,0(s2)
     e9e:	0100                	.2byte	0x100
     ea0:	0f05                	.2byte	0xf05
     ea2:	00090203          	lb	tp,0(s2)
     ea6:	0100                	.2byte	0x100
     ea8:	0505                	.2byte	0x505
     eaa:	00090103          	lb	sp,0(s2)
     eae:	0100                	.2byte	0x100
     eb0:	1305                	.2byte	0x1305
     eb2:	00097f03          	.4byte	0x97f03
     eb6:	0100                	.2byte	0x100
     eb8:	0f05                	.2byte	0xf05
     eba:	00090003          	lb	zero,0(s2)
     ebe:	0100                	.2byte	0x100
     ec0:	0505                	.2byte	0x505
     ec2:	00090103          	lb	sp,0(s2)
     ec6:	0100                	.2byte	0x100
     ec8:	1905                	.2byte	0x1905
     eca:	0306                	.2byte	0x306
     ecc:	0900                	.2byte	0x900
     ece:	0000                	.2byte	0x0
     ed0:	0501                	.2byte	0x501
     ed2:	0309                	.2byte	0x309
     ed4:	0900                	.2byte	0x900
     ed6:	0028                	.2byte	0x28
     ed8:	0501                	.2byte	0x501
     eda:	7f030613          	addi	a2,t1,2032
     ede:	0409                	.2byte	0x409
     ee0:	0100                	.2byte	0x100
     ee2:	0f05                	.2byte	0xf05
     ee4:	00090003          	lb	zero,0(s2)
     ee8:	0100                	.2byte	0x100
     eea:	0505                	.2byte	0x505
     eec:	00090103          	lb	sp,0(s2)
     ef0:	0100                	.2byte	0x100
     ef2:	1905                	.2byte	0x1905
     ef4:	0306                	.2byte	0x306
     ef6:	0900                	.2byte	0x900
     ef8:	0000                	.2byte	0x0
     efa:	0501                	.2byte	0x501
     efc:	0309                	.2byte	0x309
     efe:	0900                	.2byte	0x900
     f00:	0010                	.2byte	0x10
     f02:	0501                	.2byte	0x501
     f04:	7f030613          	addi	a2,t1,2032
     f08:	0409                	.2byte	0x409
     f0a:	0100                	.2byte	0x100
     f0c:	0f05                	.2byte	0xf05
     f0e:	00090003          	lb	zero,0(s2)
     f12:	0100                	.2byte	0x100
     f14:	0505                	.2byte	0x505
     f16:	00090103          	lb	sp,0(s2)
     f1a:	0100                	.2byte	0x100
     f1c:	1305                	.2byte	0x1305
     f1e:	00097f03          	.4byte	0x97f03
     f22:	0100                	.2byte	0x100
     f24:	0f05                	.2byte	0xf05
     f26:	00090003          	lb	zero,0(s2)
     f2a:	0100                	.2byte	0x100
     f2c:	0405                	.2byte	0x405
     f2e:	00090203          	lb	tp,0(s2)
     f32:	0100                	.2byte	0x100
     f34:	1905                	.2byte	0x1905
     f36:	0306                	.2byte	0x306
     f38:	097f                	.2byte	0x97f
     f3a:	0000                	.2byte	0x0
     f3c:	0501                	.2byte	0x501
     f3e:	030d                	.2byte	0x30d
     f40:	0900                	.2byte	0x900
     f42:	0004                	.2byte	0x4
     f44:	0501                	.2byte	0x501
     f46:	0319                	.2byte	0x319
     f48:	0900                	.2byte	0x900
     f4a:	0004                	.2byte	0x4
     f4c:	0501                	.2byte	0x501
     f4e:	0309                	.2byte	0x309
     f50:	0900                	.2byte	0x900
     f52:	0004                	.2byte	0x4
     f54:	0501                	.2byte	0x501
     f56:	0316                	.2byte	0x316
     f58:	0901                	.2byte	0x901
     f5a:	0004                	.2byte	0x4
     f5c:	0501                	.2byte	0x501
     f5e:	7c030613          	addi	a2,t1,1984
     f62:	0409                	.2byte	0x409
     f64:	0100                	.2byte	0x100
     f66:	0e05                	.2byte	0xe05
     f68:	00090003          	lb	zero,0(s2)
     f6c:	0100                	.2byte	0x100
     f6e:	1205                	.2byte	0x1205
     f70:	00097f03          	.4byte	0x97f03
     f74:	0100                	.2byte	0x100
     f76:	0d05                	.2byte	0xd05
     f78:	00090003          	lb	zero,0(s2)
     f7c:	0100                	.2byte	0x100
     f7e:	0e05                	.2byte	0xe05
     f80:	00090103          	lb	sp,0(s2)
     f84:	0100                	.2byte	0x100
     f86:	0f05                	.2byte	0xf05
     f88:	00090203          	lb	tp,0(s2)
     f8c:	0100                	.2byte	0x100
     f8e:	0505                	.2byte	0x505
     f90:	00090103          	lb	sp,0(s2)
     f94:	0100                	.2byte	0x100
     f96:	1305                	.2byte	0x1305
     f98:	00097f03          	.4byte	0x97f03
     f9c:	0100                	.2byte	0x100
     f9e:	0f05                	.2byte	0xf05
     fa0:	00090003          	lb	zero,0(s2)
     fa4:	0100                	.2byte	0x100
     fa6:	0505                	.2byte	0x505
     fa8:	00090103          	lb	sp,0(s2)
     fac:	0100                	.2byte	0x100
     fae:	1905                	.2byte	0x1905
     fb0:	0306                	.2byte	0x306
     fb2:	0900                	.2byte	0x900
     fb4:	0000                	.2byte	0x0
     fb6:	0501                	.2byte	0x501
     fb8:	030d                	.2byte	0x30d
     fba:	0900                	.2byte	0x900
     fbc:	0008                	.2byte	0x8
     fbe:	0501                	.2byte	0x501
     fc0:	0319                	.2byte	0x319
     fc2:	0900                	.2byte	0x900
     fc4:	0004                	.2byte	0x4
     fc6:	0501                	.2byte	0x501
     fc8:	030d                	.2byte	0x30d
     fca:	0900                	.2byte	0x900
     fcc:	0010                	.2byte	0x10
     fce:	0501                	.2byte	0x501
     fd0:	0309                	.2byte	0x309
     fd2:	0900                	.2byte	0x900
     fd4:	0004                	.2byte	0x4
     fd6:	0501                	.2byte	0x501
     fd8:	0319                	.2byte	0x319
     fda:	0900                	.2byte	0x900
     fdc:	0004                	.2byte	0x4
     fde:	0501                	.2byte	0x501
     fe0:	0309                	.2byte	0x309
     fe2:	0900                	.2byte	0x900
     fe4:	0008                	.2byte	0x8
     fe6:	0501                	.2byte	0x501
     fe8:	7f030613          	addi	a2,t1,2032
     fec:	0409                	.2byte	0x409
     fee:	0100                	.2byte	0x100
     ff0:	0f05                	.2byte	0xf05
     ff2:	00090003          	lb	zero,0(s2)
     ff6:	0100                	.2byte	0x100
     ff8:	0505                	.2byte	0x505
     ffa:	00090103          	lb	sp,0(s2)
     ffe:	0100                	.2byte	0x100
    1000:	1905                	.2byte	0x1905
    1002:	0306                	.2byte	0x306
    1004:	0900                	.2byte	0x900
    1006:	0000                	.2byte	0x0
    1008:	0501                	.2byte	0x501
    100a:	0309                	.2byte	0x309
    100c:	0900                	.2byte	0x900
    100e:	0004                	.2byte	0x4
    1010:	0501                	.2byte	0x501
    1012:	030d                	.2byte	0x30d
    1014:	0900                	.2byte	0x900
    1016:	0004                	.2byte	0x4
    1018:	0501                	.2byte	0x501
    101a:	0319                	.2byte	0x319
    101c:	0900                	.2byte	0x900
    101e:	0004                	.2byte	0x4
    1020:	0501                	.2byte	0x501
    1022:	0309                	.2byte	0x309
    1024:	0900                	.2byte	0x900
    1026:	0004                	.2byte	0x4
    1028:	0501                	.2byte	0x501
    102a:	0319                	.2byte	0x319
    102c:	0900                	.2byte	0x900
    102e:	0004                	.2byte	0x4
    1030:	0501                	.2byte	0x501
    1032:	0309                	.2byte	0x309
    1034:	0900                	.2byte	0x900
    1036:	0004                	.2byte	0x4
    1038:	0501                	.2byte	0x501
    103a:	7f030613          	addi	a2,t1,2032
    103e:	0409                	.2byte	0x409
    1040:	0100                	.2byte	0x100
    1042:	0f05                	.2byte	0xf05
    1044:	00090003          	lb	zero,0(s2)
    1048:	0100                	.2byte	0x100
    104a:	0505                	.2byte	0x505
    104c:	00090103          	lb	sp,0(s2)
    1050:	0100                	.2byte	0x100
    1052:	1305                	.2byte	0x1305
    1054:	00097f03          	.4byte	0x97f03
    1058:	0100                	.2byte	0x100
    105a:	0f05                	.2byte	0xf05
    105c:	00090003          	lb	zero,0(s2)
    1060:	0100                	.2byte	0x100
    1062:	0405                	.2byte	0x405
    1064:	00090203          	lb	tp,0(s2)
    1068:	0100                	.2byte	0x100
    106a:	1905                	.2byte	0x1905
    106c:	0306                	.2byte	0x306
    106e:	097f                	.2byte	0x97f
    1070:	0000                	.2byte	0x0
    1072:	0501                	.2byte	0x501
    1074:	0309                	.2byte	0x309
    1076:	0900                	.2byte	0x900
    1078:	0004                	.2byte	0x4
    107a:	0501                	.2byte	0x501
    107c:	0319                	.2byte	0x319
    107e:	0900                	.2byte	0x900
    1080:	0004                	.2byte	0x4
    1082:	0501                	.2byte	0x501
    1084:	0309                	.2byte	0x309
    1086:	0900                	.2byte	0x900
    1088:	0004                	.2byte	0x4
    108a:	0501                	.2byte	0x501
    108c:	0316                	.2byte	0x316
    108e:	0901                	.2byte	0x901
    1090:	0004                	.2byte	0x4
    1092:	0501                	.2byte	0x501
    1094:	7c030613          	addi	a2,t1,1984
    1098:	0409                	.2byte	0x409
    109a:	0100                	.2byte	0x100
    109c:	0e05                	.2byte	0xe05
    109e:	00090003          	lb	zero,0(s2)
    10a2:	0100                	.2byte	0x100
    10a4:	0f05                	.2byte	0xf05
    10a6:	00090203          	lb	tp,0(s2)
    10aa:	0100                	.2byte	0x100
    10ac:	0505                	.2byte	0x505
    10ae:	00090103          	lb	sp,0(s2)
    10b2:	0100                	.2byte	0x100
    10b4:	1305                	.2byte	0x1305
    10b6:	00097f03          	.4byte	0x97f03
    10ba:	0100                	.2byte	0x100
    10bc:	0f05                	.2byte	0xf05
    10be:	00090003          	lb	zero,0(s2)
    10c2:	0100                	.2byte	0x100
    10c4:	0505                	.2byte	0x505
    10c6:	00090103          	lb	sp,0(s2)
    10ca:	0100                	.2byte	0x100
    10cc:	1905                	.2byte	0x1905
    10ce:	0306                	.2byte	0x306
    10d0:	0900                	.2byte	0x900
    10d2:	0000                	.2byte	0x0
    10d4:	0501                	.2byte	0x501
    10d6:	0309                	.2byte	0x309
    10d8:	0900                	.2byte	0x900
    10da:	001c                	.2byte	0x1c
    10dc:	0501                	.2byte	0x501
    10de:	0319                	.2byte	0x319
    10e0:	0900                	.2byte	0x900
    10e2:	0004                	.2byte	0x4
    10e4:	0501                	.2byte	0x501
    10e6:	0309                	.2byte	0x309
    10e8:	0900                	.2byte	0x900
    10ea:	0008                	.2byte	0x8
    10ec:	0501                	.2byte	0x501
    10ee:	0319                	.2byte	0x319
    10f0:	0900                	.2byte	0x900
    10f2:	0004                	.2byte	0x4
    10f4:	0501                	.2byte	0x501
    10f6:	0309                	.2byte	0x309
    10f8:	0900                	.2byte	0x900
    10fa:	0004                	.2byte	0x4
    10fc:	0501                	.2byte	0x501
    10fe:	7f030613          	addi	a2,t1,2032
    1102:	0409                	.2byte	0x409
    1104:	0100                	.2byte	0x100
    1106:	0f05                	.2byte	0xf05
    1108:	00090003          	lb	zero,0(s2)
    110c:	0100                	.2byte	0x100
    110e:	0505                	.2byte	0x505
    1110:	00090103          	lb	sp,0(s2)
    1114:	0100                	.2byte	0x100
    1116:	1905                	.2byte	0x1905
    1118:	0306                	.2byte	0x306
    111a:	0900                	.2byte	0x900
    111c:	0000                	.2byte	0x0
    111e:	0501                	.2byte	0x501
    1120:	0309                	.2byte	0x309
    1122:	0900                	.2byte	0x900
    1124:	0008                	.2byte	0x8
    1126:	0501                	.2byte	0x501
    1128:	0319                	.2byte	0x319
    112a:	0900                	.2byte	0x900
    112c:	0004                	.2byte	0x4
    112e:	0501                	.2byte	0x501
    1130:	0309                	.2byte	0x309
    1132:	0900                	.2byte	0x900
    1134:	0008                	.2byte	0x8
    1136:	0501                	.2byte	0x501
    1138:	7f030613          	addi	a2,t1,2032
    113c:	0809                	.2byte	0x809
    113e:	0100                	.2byte	0x100
    1140:	0f05                	.2byte	0xf05
    1142:	00090003          	lb	zero,0(s2)
    1146:	0100                	.2byte	0x100
    1148:	0505                	.2byte	0x505
    114a:	00090103          	lb	sp,0(s2)
    114e:	0100                	.2byte	0x100
    1150:	1305                	.2byte	0x1305
    1152:	00097f03          	.4byte	0x97f03
    1156:	0100                	.2byte	0x100
    1158:	0f05                	.2byte	0xf05
    115a:	00090003          	lb	zero,0(s2)
    115e:	0100                	.2byte	0x100
    1160:	0405                	.2byte	0x405
    1162:	00090203          	lb	tp,0(s2)
    1166:	0100                	.2byte	0x100
    1168:	1905                	.2byte	0x1905
    116a:	0306                	.2byte	0x306
    116c:	097f                	.2byte	0x97f
    116e:	0000                	.2byte	0x0
    1170:	0501                	.2byte	0x501
    1172:	0309                	.2byte	0x309
    1174:	0900                	.2byte	0x900
    1176:	0004                	.2byte	0x4
    1178:	0501                	.2byte	0x501
    117a:	0319                	.2byte	0x319
    117c:	0900                	.2byte	0x900
    117e:	0004                	.2byte	0x4
    1180:	0501                	.2byte	0x501
    1182:	0309                	.2byte	0x309
    1184:	0900                	.2byte	0x900
    1186:	0004                	.2byte	0x4
    1188:	0501                	.2byte	0x501
    118a:	0316                	.2byte	0x316
    118c:	0901                	.2byte	0x901
    118e:	0004                	.2byte	0x4
    1190:	0501                	.2byte	0x501
    1192:	7c030613          	addi	a2,t1,1984
    1196:	0409                	.2byte	0x409
    1198:	0100                	.2byte	0x100
    119a:	0e05                	.2byte	0xe05
    119c:	00090003          	lb	zero,0(s2)
    11a0:	0100                	.2byte	0x100
    11a2:	0f05                	.2byte	0xf05
    11a4:	00090203          	lb	tp,0(s2)
    11a8:	0100                	.2byte	0x100
    11aa:	0505                	.2byte	0x505
    11ac:	00090103          	lb	sp,0(s2)
    11b0:	0100                	.2byte	0x100
    11b2:	1305                	.2byte	0x1305
    11b4:	00097f03          	.4byte	0x97f03
    11b8:	0100                	.2byte	0x100
    11ba:	0f05                	.2byte	0xf05
    11bc:	00090003          	lb	zero,0(s2)
    11c0:	0100                	.2byte	0x100
    11c2:	0505                	.2byte	0x505
    11c4:	00090103          	lb	sp,0(s2)
    11c8:	0100                	.2byte	0x100
    11ca:	1905                	.2byte	0x1905
    11cc:	0306                	.2byte	0x306
    11ce:	0900                	.2byte	0x900
    11d0:	0000                	.2byte	0x0
    11d2:	0501                	.2byte	0x501
    11d4:	0309                	.2byte	0x309
    11d6:	0900                	.2byte	0x900
    11d8:	001c                	.2byte	0x1c
    11da:	0501                	.2byte	0x501
    11dc:	0319                	.2byte	0x319
    11de:	0900                	.2byte	0x900
    11e0:	0004                	.2byte	0x4
    11e2:	0501                	.2byte	0x501
    11e4:	0309                	.2byte	0x309
    11e6:	0900                	.2byte	0x900
    11e8:	0008                	.2byte	0x8
    11ea:	0501                	.2byte	0x501
    11ec:	0319                	.2byte	0x319
    11ee:	0900                	.2byte	0x900
    11f0:	0004                	.2byte	0x4
    11f2:	0501                	.2byte	0x501
    11f4:	0309                	.2byte	0x309
    11f6:	0900                	.2byte	0x900
    11f8:	0004                	.2byte	0x4
    11fa:	0501                	.2byte	0x501
    11fc:	7f030613          	addi	a2,t1,2032
    1200:	0409                	.2byte	0x409
    1202:	0100                	.2byte	0x100
    1204:	0f05                	.2byte	0xf05
    1206:	00090003          	lb	zero,0(s2)
    120a:	0100                	.2byte	0x100
    120c:	0505                	.2byte	0x505
    120e:	00090103          	lb	sp,0(s2)
    1212:	0100                	.2byte	0x100
    1214:	1905                	.2byte	0x1905
    1216:	0306                	.2byte	0x306
    1218:	0900                	.2byte	0x900
    121a:	0000                	.2byte	0x0
    121c:	0501                	.2byte	0x501
    121e:	0309                	.2byte	0x309
    1220:	0900                	.2byte	0x900
    1222:	0004                	.2byte	0x4
    1224:	0501                	.2byte	0x501
    1226:	0319                	.2byte	0x319
    1228:	0900                	.2byte	0x900
    122a:	0004                	.2byte	0x4
    122c:	0501                	.2byte	0x501
    122e:	0309                	.2byte	0x309
    1230:	0900                	.2byte	0x900
    1232:	0008                	.2byte	0x8
    1234:	0501                	.2byte	0x501
    1236:	0319                	.2byte	0x319
    1238:	0900                	.2byte	0x900
    123a:	0004                	.2byte	0x4
    123c:	0501                	.2byte	0x501
    123e:	0309                	.2byte	0x309
    1240:	0900                	.2byte	0x900
    1242:	0004                	.2byte	0x4
    1244:	0501                	.2byte	0x501
    1246:	7f030613          	addi	a2,t1,2032
    124a:	0409                	.2byte	0x409
    124c:	0100                	.2byte	0x100
    124e:	0f05                	.2byte	0xf05
    1250:	00090003          	lb	zero,0(s2)
    1254:	0100                	.2byte	0x100
    1256:	0505                	.2byte	0x505
    1258:	00090103          	lb	sp,0(s2)
    125c:	0100                	.2byte	0x100
    125e:	1305                	.2byte	0x1305
    1260:	00097f03          	.4byte	0x97f03
    1264:	0100                	.2byte	0x100
    1266:	0f05                	.2byte	0xf05
    1268:	00090003          	lb	zero,0(s2)
    126c:	0100                	.2byte	0x100
    126e:	0405                	.2byte	0x405
    1270:	00090203          	lb	tp,0(s2)
    1274:	0100                	.2byte	0x100
    1276:	1905                	.2byte	0x1905
    1278:	0306                	.2byte	0x306
    127a:	097f                	.2byte	0x97f
    127c:	0000                	.2byte	0x0
    127e:	0501                	.2byte	0x501
    1280:	0309                	.2byte	0x309
    1282:	0900                	.2byte	0x900
    1284:	0004                	.2byte	0x4
    1286:	0501                	.2byte	0x501
    1288:	0319                	.2byte	0x319
    128a:	0900                	.2byte	0x900
    128c:	0004                	.2byte	0x4
    128e:	0501                	.2byte	0x501
    1290:	0309                	.2byte	0x309
    1292:	0900                	.2byte	0x900
    1294:	0004                	.2byte	0x4
    1296:	0501                	.2byte	0x501
    1298:	0316                	.2byte	0x316
    129a:	0901                	.2byte	0x901
    129c:	0004                	.2byte	0x4
    129e:	0501                	.2byte	0x501
    12a0:	7c030613          	addi	a2,t1,1984
    12a4:	0409                	.2byte	0x409
    12a6:	0100                	.2byte	0x100
    12a8:	0e05                	.2byte	0xe05
    12aa:	00090003          	lb	zero,0(s2)
    12ae:	0100                	.2byte	0x100
    12b0:	0f05                	.2byte	0xf05
    12b2:	00090203          	lb	tp,0(s2)
    12b6:	0100                	.2byte	0x100
    12b8:	0505                	.2byte	0x505
    12ba:	00090103          	lb	sp,0(s2)
    12be:	0100                	.2byte	0x100
    12c0:	1305                	.2byte	0x1305
    12c2:	00097f03          	.4byte	0x97f03
    12c6:	0100                	.2byte	0x100
    12c8:	0f05                	.2byte	0xf05
    12ca:	00090003          	lb	zero,0(s2)
    12ce:	0100                	.2byte	0x100
    12d0:	0505                	.2byte	0x505
    12d2:	00090103          	lb	sp,0(s2)
    12d6:	0100                	.2byte	0x100
    12d8:	1905                	.2byte	0x1905
    12da:	0306                	.2byte	0x306
    12dc:	0900                	.2byte	0x900
    12de:	0000                	.2byte	0x0
    12e0:	0501                	.2byte	0x501
    12e2:	0309                	.2byte	0x309
    12e4:	0900                	.2byte	0x900
    12e6:	0028                	.2byte	0x28
    12e8:	0501                	.2byte	0x501
    12ea:	7f030613          	addi	a2,t1,2032
    12ee:	0409                	.2byte	0x409
    12f0:	0100                	.2byte	0x100
    12f2:	0f05                	.2byte	0xf05
    12f4:	00090003          	lb	zero,0(s2)
    12f8:	0100                	.2byte	0x100
    12fa:	0505                	.2byte	0x505
    12fc:	00090103          	lb	sp,0(s2)
    1300:	0100                	.2byte	0x100
    1302:	1905                	.2byte	0x1905
    1304:	0306                	.2byte	0x306
    1306:	0900                	.2byte	0x900
    1308:	0000                	.2byte	0x0
    130a:	0501                	.2byte	0x501
    130c:	0309                	.2byte	0x309
    130e:	0900                	.2byte	0x900
    1310:	0010                	.2byte	0x10
    1312:	0501                	.2byte	0x501
    1314:	7f030613          	addi	a2,t1,2032
    1318:	0409                	.2byte	0x409
    131a:	0100                	.2byte	0x100
    131c:	0f05                	.2byte	0xf05
    131e:	00090003          	lb	zero,0(s2)
    1322:	0100                	.2byte	0x100
    1324:	0505                	.2byte	0x505
    1326:	00090103          	lb	sp,0(s2)
    132a:	0100                	.2byte	0x100
    132c:	1305                	.2byte	0x1305
    132e:	00097f03          	.4byte	0x97f03
    1332:	0100                	.2byte	0x100
    1334:	0f05                	.2byte	0xf05
    1336:	00090003          	lb	zero,0(s2)
    133a:	0100                	.2byte	0x100
    133c:	0405                	.2byte	0x405
    133e:	00090203          	lb	tp,0(s2)
    1342:	0100                	.2byte	0x100
    1344:	1905                	.2byte	0x1905
    1346:	0306                	.2byte	0x306
    1348:	097f                	.2byte	0x97f
    134a:	0000                	.2byte	0x0
    134c:	0501                	.2byte	0x501
    134e:	030d                	.2byte	0x30d
    1350:	0900                	.2byte	0x900
    1352:	0004                	.2byte	0x4
    1354:	0501                	.2byte	0x501
    1356:	0319                	.2byte	0x319
    1358:	0900                	.2byte	0x900
    135a:	0004                	.2byte	0x4
    135c:	0501                	.2byte	0x501
    135e:	0309                	.2byte	0x309
    1360:	0900                	.2byte	0x900
    1362:	0004                	.2byte	0x4
    1364:	0501                	.2byte	0x501
    1366:	0316                	.2byte	0x316
    1368:	0901                	.2byte	0x901
    136a:	0004                	.2byte	0x4
    136c:	0501                	.2byte	0x501
    136e:	7c030613          	addi	a2,t1,1984
    1372:	0409                	.2byte	0x409
    1374:	0100                	.2byte	0x100
    1376:	0e05                	.2byte	0xe05
    1378:	00090003          	lb	zero,0(s2)
    137c:	0100                	.2byte	0x100
    137e:	1205                	.2byte	0x1205
    1380:	00097f03          	.4byte	0x97f03
    1384:	0100                	.2byte	0x100
    1386:	0d05                	.2byte	0xd05
    1388:	00090003          	lb	zero,0(s2)
    138c:	0100                	.2byte	0x100
    138e:	0e05                	.2byte	0xe05
    1390:	00090103          	lb	sp,0(s2)
    1394:	0100                	.2byte	0x100
    1396:	0f05                	.2byte	0xf05
    1398:	00090203          	lb	tp,0(s2)
    139c:	0100                	.2byte	0x100
    139e:	0505                	.2byte	0x505
    13a0:	00090103          	lb	sp,0(s2)
    13a4:	0100                	.2byte	0x100
    13a6:	1305                	.2byte	0x1305
    13a8:	00097f03          	.4byte	0x97f03
    13ac:	0100                	.2byte	0x100
    13ae:	0f05                	.2byte	0xf05
    13b0:	00090003          	lb	zero,0(s2)
    13b4:	0100                	.2byte	0x100
    13b6:	0505                	.2byte	0x505
    13b8:	00090103          	lb	sp,0(s2)
    13bc:	0100                	.2byte	0x100
    13be:	1905                	.2byte	0x1905
    13c0:	0306                	.2byte	0x306
    13c2:	0900                	.2byte	0x900
    13c4:	0000                	.2byte	0x0
    13c6:	0501                	.2byte	0x501
    13c8:	030d                	.2byte	0x30d
    13ca:	0900                	.2byte	0x900
    13cc:	0008                	.2byte	0x8
    13ce:	0501                	.2byte	0x501
    13d0:	0319                	.2byte	0x319
    13d2:	0900                	.2byte	0x900
    13d4:	0004                	.2byte	0x4
    13d6:	0501                	.2byte	0x501
    13d8:	030d                	.2byte	0x30d
    13da:	0900                	.2byte	0x900
    13dc:	0010                	.2byte	0x10
    13de:	0501                	.2byte	0x501
    13e0:	0319                	.2byte	0x319
    13e2:	0900                	.2byte	0x900
    13e4:	0004                	.2byte	0x4
    13e6:	0501                	.2byte	0x501
    13e8:	0309                	.2byte	0x309
    13ea:	0900                	.2byte	0x900
    13ec:	0004                	.2byte	0x4
    13ee:	0501                	.2byte	0x501
    13f0:	7f030613          	addi	a2,t1,2032
    13f4:	0409                	.2byte	0x409
    13f6:	0100                	.2byte	0x100
    13f8:	0f05                	.2byte	0xf05
    13fa:	00090003          	lb	zero,0(s2)
    13fe:	0100                	.2byte	0x100
    1400:	0505                	.2byte	0x505
    1402:	00090103          	lb	sp,0(s2)
    1406:	0100                	.2byte	0x100
    1408:	1905                	.2byte	0x1905
    140a:	0306                	.2byte	0x306
    140c:	0900                	.2byte	0x900
    140e:	0000                	.2byte	0x0
    1410:	0501                	.2byte	0x501
    1412:	030d                	.2byte	0x30d
    1414:	0900                	.2byte	0x900
    1416:	0008                	.2byte	0x8
    1418:	0501                	.2byte	0x501
    141a:	0319                	.2byte	0x319
    141c:	0900                	.2byte	0x900
    141e:	0004                	.2byte	0x4
    1420:	0501                	.2byte	0x501
    1422:	0309                	.2byte	0x309
    1424:	0900                	.2byte	0x900
    1426:	0004                	.2byte	0x4
    1428:	0501                	.2byte	0x501
    142a:	7f030613          	addi	a2,t1,2032
    142e:	0409                	.2byte	0x409
    1430:	0100                	.2byte	0x100
    1432:	0f05                	.2byte	0xf05
    1434:	00090003          	lb	zero,0(s2)
    1438:	0100                	.2byte	0x100
    143a:	0505                	.2byte	0x505
    143c:	00090103          	lb	sp,0(s2)
    1440:	0100                	.2byte	0x100
    1442:	1305                	.2byte	0x1305
    1444:	00097f03          	.4byte	0x97f03
    1448:	0100                	.2byte	0x100
    144a:	0f05                	.2byte	0xf05
    144c:	00090003          	lb	zero,0(s2)
    1450:	0100                	.2byte	0x100
    1452:	0405                	.2byte	0x405
    1454:	00090203          	lb	tp,0(s2)
    1458:	0100                	.2byte	0x100
    145a:	1905                	.2byte	0x1905
    145c:	0306                	.2byte	0x306
    145e:	097f                	.2byte	0x97f
    1460:	0000                	.2byte	0x0
    1462:	0501                	.2byte	0x501
    1464:	0309                	.2byte	0x309
    1466:	0900                	.2byte	0x900
    1468:	0008                	.2byte	0x8
    146a:	0501                	.2byte	0x501
    146c:	0319                	.2byte	0x319
    146e:	0900                	.2byte	0x900
    1470:	0004                	.2byte	0x4
    1472:	0501                	.2byte	0x501
    1474:	0316                	.2byte	0x316
    1476:	0901                	.2byte	0x901
    1478:	0004                	.2byte	0x4
    147a:	0501                	.2byte	0x501
    147c:	7c030613          	addi	a2,t1,1984
    1480:	0409                	.2byte	0x409
    1482:	0100                	.2byte	0x100
    1484:	0e05                	.2byte	0xe05
    1486:	00090003          	lb	zero,0(s2)
    148a:	0100                	.2byte	0x100
    148c:	0f05                	.2byte	0xf05
    148e:	00090203          	lb	tp,0(s2)
    1492:	0100                	.2byte	0x100
    1494:	0505                	.2byte	0x505
    1496:	00090103          	lb	sp,0(s2)
    149a:	0100                	.2byte	0x100
    149c:	1305                	.2byte	0x1305
    149e:	00097f03          	.4byte	0x97f03
    14a2:	0100                	.2byte	0x100
    14a4:	0f05                	.2byte	0xf05
    14a6:	00090003          	lb	zero,0(s2)
    14aa:	0100                	.2byte	0x100
    14ac:	0505                	.2byte	0x505
    14ae:	00090103          	lb	sp,0(s2)
    14b2:	0100                	.2byte	0x100
    14b4:	1905                	.2byte	0x1905
    14b6:	0306                	.2byte	0x306
    14b8:	0900                	.2byte	0x900
    14ba:	0000                	.2byte	0x0
    14bc:	0501                	.2byte	0x501
    14be:	0309                	.2byte	0x309
    14c0:	0900                	.2byte	0x900
    14c2:	0028                	.2byte	0x28
    14c4:	0501                	.2byte	0x501
    14c6:	7f030613          	addi	a2,t1,2032
    14ca:	0409                	.2byte	0x409
    14cc:	0100                	.2byte	0x100
    14ce:	0f05                	.2byte	0xf05
    14d0:	00090003          	lb	zero,0(s2)
    14d4:	0100                	.2byte	0x100
    14d6:	0505                	.2byte	0x505
    14d8:	00090103          	lb	sp,0(s2)
    14dc:	0100                	.2byte	0x100
    14de:	1905                	.2byte	0x1905
    14e0:	0306                	.2byte	0x306
    14e2:	0900                	.2byte	0x900
    14e4:	0000                	.2byte	0x0
    14e6:	0501                	.2byte	0x501
    14e8:	0309                	.2byte	0x309
    14ea:	0900                	.2byte	0x900
    14ec:	0010                	.2byte	0x10
    14ee:	0501                	.2byte	0x501
    14f0:	7f030613          	addi	a2,t1,2032
    14f4:	0409                	.2byte	0x409
    14f6:	0100                	.2byte	0x100
    14f8:	0f05                	.2byte	0xf05
    14fa:	00090003          	lb	zero,0(s2)
    14fe:	0100                	.2byte	0x100
    1500:	0505                	.2byte	0x505
    1502:	00090103          	lb	sp,0(s2)
    1506:	0100                	.2byte	0x100
    1508:	1305                	.2byte	0x1305
    150a:	00097f03          	.4byte	0x97f03
    150e:	0100                	.2byte	0x100
    1510:	0f05                	.2byte	0xf05
    1512:	00090003          	lb	zero,0(s2)
    1516:	0100                	.2byte	0x100
    1518:	0405                	.2byte	0x405
    151a:	00090203          	lb	tp,0(s2)
    151e:	0100                	.2byte	0x100
    1520:	1905                	.2byte	0x1905
    1522:	0306                	.2byte	0x306
    1524:	097f                	.2byte	0x97f
    1526:	0000                	.2byte	0x0
    1528:	0501                	.2byte	0x501
    152a:	0309                	.2byte	0x309
    152c:	0900                	.2byte	0x900
    152e:	0008                	.2byte	0x8
    1530:	0501                	.2byte	0x501
    1532:	0316                	.2byte	0x316
    1534:	0901                	.2byte	0x901
    1536:	0004                	.2byte	0x4
    1538:	0501                	.2byte	0x501
    153a:	7c030613          	addi	a2,t1,1984
    153e:	0409                	.2byte	0x409
    1540:	0100                	.2byte	0x100
    1542:	0e05                	.2byte	0xe05
    1544:	00090003          	lb	zero,0(s2)
    1548:	0100                	.2byte	0x100
    154a:	0f05                	.2byte	0xf05
    154c:	00090203          	lb	tp,0(s2)
    1550:	0100                	.2byte	0x100
    1552:	0505                	.2byte	0x505
    1554:	00090103          	lb	sp,0(s2)
    1558:	0100                	.2byte	0x100
    155a:	1305                	.2byte	0x1305
    155c:	00097f03          	.4byte	0x97f03
    1560:	0100                	.2byte	0x100
    1562:	0f05                	.2byte	0xf05
    1564:	00090003          	lb	zero,0(s2)
    1568:	0100                	.2byte	0x100
    156a:	0505                	.2byte	0x505
    156c:	00090103          	lb	sp,0(s2)
    1570:	0100                	.2byte	0x100
    1572:	1905                	.2byte	0x1905
    1574:	0306                	.2byte	0x306
    1576:	0900                	.2byte	0x900
    1578:	0000                	.2byte	0x0
    157a:	0501                	.2byte	0x501
    157c:	0309                	.2byte	0x309
    157e:	0900                	.2byte	0x900
    1580:	0024                	.2byte	0x24
    1582:	0501                	.2byte	0x501
    1584:	7f030613          	addi	a2,t1,2032
    1588:	0409                	.2byte	0x409
    158a:	0100                	.2byte	0x100
    158c:	0f05                	.2byte	0xf05
    158e:	00090003          	lb	zero,0(s2)
    1592:	0100                	.2byte	0x100
    1594:	0505                	.2byte	0x505
    1596:	00090103          	lb	sp,0(s2)
    159a:	0100                	.2byte	0x100
    159c:	1905                	.2byte	0x1905
    159e:	0306                	.2byte	0x306
    15a0:	0900                	.2byte	0x900
    15a2:	0000                	.2byte	0x0
    15a4:	0501                	.2byte	0x501
    15a6:	0309                	.2byte	0x309
    15a8:	0900                	.2byte	0x900
    15aa:	0010                	.2byte	0x10
    15ac:	0501                	.2byte	0x501
    15ae:	7f030613          	addi	a2,t1,2032
    15b2:	0409                	.2byte	0x409
    15b4:	0100                	.2byte	0x100
    15b6:	0f05                	.2byte	0xf05
    15b8:	00090003          	lb	zero,0(s2)
    15bc:	0100                	.2byte	0x100
    15be:	0505                	.2byte	0x505
    15c0:	00090103          	lb	sp,0(s2)
    15c4:	0100                	.2byte	0x100
    15c6:	1305                	.2byte	0x1305
    15c8:	00097f03          	.4byte	0x97f03
    15cc:	0100                	.2byte	0x100
    15ce:	0f05                	.2byte	0xf05
    15d0:	00090003          	lb	zero,0(s2)
    15d4:	0100                	.2byte	0x100
    15d6:	0405                	.2byte	0x405
    15d8:	00090203          	lb	tp,0(s2)
    15dc:	0100                	.2byte	0x100
    15de:	1905                	.2byte	0x1905
    15e0:	0306                	.2byte	0x306
    15e2:	097f                	.2byte	0x97f
    15e4:	0000                	.2byte	0x0
    15e6:	0501                	.2byte	0x501
    15e8:	0309                	.2byte	0x309
    15ea:	0900                	.2byte	0x900
    15ec:	0008                	.2byte	0x8
    15ee:	0501                	.2byte	0x501
    15f0:	0316                	.2byte	0x316
    15f2:	0901                	.2byte	0x901
    15f4:	0004                	.2byte	0x4
    15f6:	0501                	.2byte	0x501
    15f8:	7c030613          	addi	a2,t1,1984
    15fc:	0409                	.2byte	0x409
    15fe:	0100                	.2byte	0x100
    1600:	0e05                	.2byte	0xe05
    1602:	00090003          	lb	zero,0(s2)
    1606:	0100                	.2byte	0x100
    1608:	0f05                	.2byte	0xf05
    160a:	00090203          	lb	tp,0(s2)
    160e:	0100                	.2byte	0x100
    1610:	0505                	.2byte	0x505
    1612:	00090103          	lb	sp,0(s2)
    1616:	0100                	.2byte	0x100
    1618:	1305                	.2byte	0x1305
    161a:	00097f03          	.4byte	0x97f03
    161e:	0100                	.2byte	0x100
    1620:	0f05                	.2byte	0xf05
    1622:	00090003          	lb	zero,0(s2)
    1626:	0100                	.2byte	0x100
    1628:	0505                	.2byte	0x505
    162a:	00090103          	lb	sp,0(s2)
    162e:	0100                	.2byte	0x100
    1630:	1905                	.2byte	0x1905
    1632:	0306                	.2byte	0x306
    1634:	0900                	.2byte	0x900
    1636:	0000                	.2byte	0x0
    1638:	0501                	.2byte	0x501
    163a:	0309                	.2byte	0x309
    163c:	0900                	.2byte	0x900
    163e:	0024                	.2byte	0x24
    1640:	0501                	.2byte	0x501
    1642:	7f030613          	addi	a2,t1,2032
    1646:	0409                	.2byte	0x409
    1648:	0100                	.2byte	0x100
    164a:	0f05                	.2byte	0xf05
    164c:	00090003          	lb	zero,0(s2)
    1650:	0100                	.2byte	0x100
    1652:	0505                	.2byte	0x505
    1654:	00090103          	lb	sp,0(s2)
    1658:	0100                	.2byte	0x100
    165a:	1905                	.2byte	0x1905
    165c:	0306                	.2byte	0x306
    165e:	0900                	.2byte	0x900
    1660:	0000                	.2byte	0x0
    1662:	0501                	.2byte	0x501
    1664:	0309                	.2byte	0x309
    1666:	0900                	.2byte	0x900
    1668:	0010                	.2byte	0x10
    166a:	0501                	.2byte	0x501
    166c:	7f030613          	addi	a2,t1,2032
    1670:	0409                	.2byte	0x409
    1672:	0100                	.2byte	0x100
    1674:	0f05                	.2byte	0xf05
    1676:	00090003          	lb	zero,0(s2)
    167a:	0100                	.2byte	0x100
    167c:	0505                	.2byte	0x505
    167e:	00090103          	lb	sp,0(s2)
    1682:	0100                	.2byte	0x100
    1684:	1305                	.2byte	0x1305
    1686:	00097f03          	.4byte	0x97f03
    168a:	0100                	.2byte	0x100
    168c:	0f05                	.2byte	0xf05
    168e:	00090003          	lb	zero,0(s2)
    1692:	0100                	.2byte	0x100
    1694:	0405                	.2byte	0x405
    1696:	00090203          	lb	tp,0(s2)
    169a:	0100                	.2byte	0x100
    169c:	1905                	.2byte	0x1905
    169e:	0306                	.2byte	0x306
    16a0:	097f                	.2byte	0x97f
    16a2:	0000                	.2byte	0x0
    16a4:	0501                	.2byte	0x501
    16a6:	0301                	.2byte	0x301
    16a8:	0905                	.2byte	0x905
    16aa:	0004                	.2byte	0x4
    16ac:	0501                	.2byte	0x501
    16ae:	0309                	.2byte	0x309
    16b0:	0008097b          	.4byte	0x8097b
    16b4:	0501                	.2byte	0x501
    16b6:	0316                	.2byte	0x316
    16b8:	0901                	.2byte	0x901
    16ba:	0004                	.2byte	0x4
    16bc:	0501                	.2byte	0x501
    16be:	7c030613          	addi	a2,t1,1984
    16c2:	0409                	.2byte	0x409
    16c4:	0100                	.2byte	0x100
    16c6:	0e05                	.2byte	0xe05
    16c8:	00090003          	lb	zero,0(s2)
    16cc:	0100                	.2byte	0x100
    16ce:	1205                	.2byte	0x1205
    16d0:	00097f03          	.4byte	0x97f03
    16d4:	0100                	.2byte	0x100
    16d6:	0d05                	.2byte	0xd05
    16d8:	00090003          	lb	zero,0(s2)
    16dc:	0100                	.2byte	0x100
    16de:	0205                	.2byte	0x205
    16e0:	00090803          	lb	a6,0(s2)
    16e4:	0100                	.2byte	0x100
    16e6:	0105                	.2byte	0x105
    16e8:	0306                	.2byte	0x306
    16ea:	0901                	.2byte	0x901
    16ec:	0000                	.2byte	0x0
    16ee:	0501                	.2byte	0x501
    16f0:	0503064b          	.4byte	0x503064b
    16f4:	3c09                	.2byte	0x3c09
    16f6:	0100                	.2byte	0x100
    16f8:	0205                	.2byte	0x205
    16fa:	00090103          	lb	sp,0(s2)
    16fe:	0100                	.2byte	0x100
    1700:	0605                	.2byte	0x605
    1702:	0306                	.2byte	0x306
    1704:	0900                	.2byte	0x900
    1706:	0000                	.2byte	0x0
    1708:	0501                	.2byte	0x501
    170a:	0602                	.2byte	0x602
    170c:	14090103          	lb	sp,320(s2)
    1710:	0100                	.2byte	0x100
    1712:	00090103          	lb	sp,0(s2)
    1716:	0100                	.2byte	0x100
    1718:	00090103          	lb	sp,0(s2)
    171c:	0100                	.2byte	0x100
    171e:	0f05                	.2byte	0xf05
    1720:	00090003          	lb	zero,0(s2)
    1724:	0100                	.2byte	0x100
    1726:	0305                	.2byte	0x305
    1728:	04090103          	lb	sp,64(s2)
    172c:	0100                	.2byte	0x100
    172e:	0805                	.2byte	0x805
    1730:	0306                	.2byte	0x306
    1732:	0900                	.2byte	0x900
    1734:	0000                	.2byte	0x0
    1736:	0501                	.2byte	0x501
    1738:	0305                	.2byte	0x305
    173a:	0900                	.2byte	0x900
    173c:	0008                	.2byte	0x8
    173e:	0501                	.2byte	0x501
    1740:	0314                	.2byte	0x314
    1742:	097f                	.2byte	0x97f
    1744:	0004                	.2byte	0x4
    1746:	0501                	.2byte	0x501
    1748:	0306                	.2byte	0x306
    174a:	097e                	.2byte	0x97e
    174c:	0004                	.2byte	0x4
    174e:	0501                	.2byte	0x501
    1750:	0614                	.2byte	0x614
    1752:	0c090203          	lb	tp,192(s2)
    1756:	0100                	.2byte	0x100
    1758:	0f05                	.2byte	0xf05
    175a:	00090003          	lb	zero,0(s2)
    175e:	0100                	.2byte	0x100
    1760:	0305                	.2byte	0x305
    1762:	04090103          	lb	sp,64(s2)
    1766:	0100                	.2byte	0x100
    1768:	0805                	.2byte	0x805
    176a:	0306                	.2byte	0x306
    176c:	0900                	.2byte	0x900
    176e:	0000                	.2byte	0x0
    1770:	0501                	.2byte	0x501
    1772:	0305                	.2byte	0x305
    1774:	0900                	.2byte	0x900
    1776:	000c                	.2byte	0xc
    1778:	0501                	.2byte	0x501
    177a:	0614                	.2byte	0x614
    177c:	04097f03          	.4byte	0x4097f03
    1780:	0100                	.2byte	0x100
    1782:	0f05                	.2byte	0xf05
    1784:	04090003          	lb	zero,64(s2)
    1788:	0100                	.2byte	0x100
    178a:	0305                	.2byte	0x305
    178c:	04090103          	lb	sp,64(s2)
    1790:	0100                	.2byte	0x100
    1792:	0805                	.2byte	0x805
    1794:	0306                	.2byte	0x306
    1796:	0900                	.2byte	0x900
    1798:	0000                	.2byte	0x0
    179a:	0501                	.2byte	0x501
    179c:	0305                	.2byte	0x305
    179e:	0900                	.2byte	0x900
    17a0:	000c                	.2byte	0xc
    17a2:	0501                	.2byte	0x501
    17a4:	0614                	.2byte	0x614
    17a6:	04097f03          	.4byte	0x4097f03
    17aa:	0100                	.2byte	0x100
    17ac:	0f05                	.2byte	0xf05
    17ae:	04090003          	lb	zero,64(s2)
    17b2:	0100                	.2byte	0x100
    17b4:	0305                	.2byte	0x305
    17b6:	04090103          	lb	sp,64(s2)
    17ba:	0100                	.2byte	0x100
    17bc:	0805                	.2byte	0x805
    17be:	0306                	.2byte	0x306
    17c0:	0900                	.2byte	0x900
    17c2:	0000                	.2byte	0x0
    17c4:	0501                	.2byte	0x501
    17c6:	0305                	.2byte	0x305
    17c8:	0900                	.2byte	0x900
    17ca:	000c                	.2byte	0xc
    17cc:	0501                	.2byte	0x501
    17ce:	0614                	.2byte	0x614
    17d0:	04097f03          	.4byte	0x4097f03
    17d4:	0100                	.2byte	0x100
    17d6:	0f05                	.2byte	0xf05
    17d8:	04090003          	lb	zero,64(s2)
    17dc:	0100                	.2byte	0x100
    17de:	0305                	.2byte	0x305
    17e0:	04090103          	lb	sp,64(s2)
    17e4:	0100                	.2byte	0x100
    17e6:	0805                	.2byte	0x805
    17e8:	0306                	.2byte	0x306
    17ea:	0900                	.2byte	0x900
    17ec:	0000                	.2byte	0x0
    17ee:	0501                	.2byte	0x501
    17f0:	0305                	.2byte	0x305
    17f2:	0900                	.2byte	0x900
    17f4:	000c                	.2byte	0xc
    17f6:	0501                	.2byte	0x501
    17f8:	0306                	.2byte	0x306
    17fa:	0901                	.2byte	0x901
    17fc:	0004                	.2byte	0x4
    17fe:	0501                	.2byte	0x501
    1800:	0309                	.2byte	0x309
    1802:	0901                	.2byte	0x901
    1804:	0004                	.2byte	0x4
    1806:	0501                	.2byte	0x501
    1808:	0604                	.2byte	0x604
    180a:	0c097f03          	.4byte	0xc097f03
    180e:	0100                	.2byte	0x100
    1810:	00090103          	lb	sp,0(s2)
    1814:	0100                	.2byte	0x100
    1816:	00090103          	lb	sp,0(s2)
    181a:	0100                	.2byte	0x100
    181c:	0a05                	.2byte	0xa05
    181e:	0306                	.2byte	0x306
    1820:	0900                	.2byte	0x900
    1822:	0000                	.2byte	0x0
    1824:	0501                	.2byte	0x501
    1826:	0604                	.2byte	0x604
    1828:	04090103          	lb	sp,64(s2)
    182c:	0100                	.2byte	0x100
    182e:	0a05                	.2byte	0xa05
    1830:	0306                	.2byte	0x306
    1832:	0900                	.2byte	0x900
    1834:	0000                	.2byte	0x0
    1836:	0501                	.2byte	0x501
    1838:	0614                	.2byte	0x614
    183a:	04097b03          	.4byte	0x4097b03
    183e:	0100                	.2byte	0x100
    1840:	0f05                	.2byte	0xf05
    1842:	04090003          	lb	zero,64(s2)
    1846:	0100                	.2byte	0x100
    1848:	0305                	.2byte	0x305
    184a:	04090103          	lb	sp,64(s2)
    184e:	0100                	.2byte	0x100
    1850:	0805                	.2byte	0x805
    1852:	0306                	.2byte	0x306
    1854:	0900                	.2byte	0x900
    1856:	0000                	.2byte	0x0
    1858:	0501                	.2byte	0x501
    185a:	0305                	.2byte	0x305
    185c:	0900                	.2byte	0x900
    185e:	000c                	.2byte	0xc
    1860:	0501                	.2byte	0x501
    1862:	0306                	.2byte	0x306
    1864:	0901                	.2byte	0x901
    1866:	0004                	.2byte	0x4
    1868:	0501                	.2byte	0x501
    186a:	0309                	.2byte	0x309
    186c:	0901                	.2byte	0x901
    186e:	0004                	.2byte	0x4
    1870:	0501                	.2byte	0x501
    1872:	0604                	.2byte	0x604
    1874:	0c097f03          	.4byte	0xc097f03
    1878:	0100                	.2byte	0x100
    187a:	00090103          	lb	sp,0(s2)
    187e:	0100                	.2byte	0x100
    1880:	00090103          	lb	sp,0(s2)
    1884:	0100                	.2byte	0x100
    1886:	0a05                	.2byte	0xa05
    1888:	0306                	.2byte	0x306
    188a:	0900                	.2byte	0x900
    188c:	0000                	.2byte	0x0
    188e:	0501                	.2byte	0x501
    1890:	0604                	.2byte	0x604
    1892:	04090103          	lb	sp,64(s2)
    1896:	0100                	.2byte	0x100
    1898:	0a05                	.2byte	0xa05
    189a:	0306                	.2byte	0x306
    189c:	0900                	.2byte	0x900
    189e:	0000                	.2byte	0x0
    18a0:	0501                	.2byte	0x501
    18a2:	0614                	.2byte	0x614
    18a4:	04097b03          	.4byte	0x4097b03
    18a8:	0100                	.2byte	0x100
    18aa:	0f05                	.2byte	0xf05
    18ac:	04090003          	lb	zero,64(s2)
    18b0:	0100                	.2byte	0x100
    18b2:	0305                	.2byte	0x305
    18b4:	04090103          	lb	sp,64(s2)
    18b8:	0100                	.2byte	0x100
    18ba:	0805                	.2byte	0x805
    18bc:	0306                	.2byte	0x306
    18be:	0900                	.2byte	0x900
    18c0:	0000                	.2byte	0x0
    18c2:	0501                	.2byte	0x501
    18c4:	0305                	.2byte	0x305
    18c6:	0900                	.2byte	0x900
    18c8:	000c                	.2byte	0xc
    18ca:	0501                	.2byte	0x501
    18cc:	0306                	.2byte	0x306
    18ce:	0901                	.2byte	0x901
    18d0:	0004                	.2byte	0x4
    18d2:	0501                	.2byte	0x501
    18d4:	0309                	.2byte	0x309
    18d6:	0901                	.2byte	0x901
    18d8:	0004                	.2byte	0x4
    18da:	0501                	.2byte	0x501
    18dc:	0604                	.2byte	0x604
    18de:	0c097f03          	.4byte	0xc097f03
    18e2:	0100                	.2byte	0x100
    18e4:	00090103          	lb	sp,0(s2)
    18e8:	0100                	.2byte	0x100
    18ea:	00090103          	lb	sp,0(s2)
    18ee:	0100                	.2byte	0x100
    18f0:	0a05                	.2byte	0xa05
    18f2:	0306                	.2byte	0x306
    18f4:	0900                	.2byte	0x900
    18f6:	0000                	.2byte	0x0
    18f8:	0501                	.2byte	0x501
    18fa:	0604                	.2byte	0x604
    18fc:	04090103          	lb	sp,64(s2)
    1900:	0100                	.2byte	0x100
    1902:	0a05                	.2byte	0xa05
    1904:	0306                	.2byte	0x306
    1906:	0900                	.2byte	0x900
    1908:	0000                	.2byte	0x0
    190a:	0501                	.2byte	0x501
    190c:	0614                	.2byte	0x614
    190e:	04097b03          	.4byte	0x4097b03
    1912:	0100                	.2byte	0x100
    1914:	0f05                	.2byte	0xf05
    1916:	04090003          	lb	zero,64(s2)
    191a:	0100                	.2byte	0x100
    191c:	0305                	.2byte	0x305
    191e:	04090103          	lb	sp,64(s2)
    1922:	0100                	.2byte	0x100
    1924:	0805                	.2byte	0x805
    1926:	0306                	.2byte	0x306
    1928:	0900                	.2byte	0x900
    192a:	0000                	.2byte	0x0
    192c:	0501                	.2byte	0x501
    192e:	0305                	.2byte	0x305
    1930:	0900                	.2byte	0x900
    1932:	000c                	.2byte	0xc
    1934:	0501                	.2byte	0x501
    1936:	0614                	.2byte	0x614
    1938:	04097f03          	.4byte	0x4097f03
    193c:	0100                	.2byte	0x100
    193e:	0f05                	.2byte	0xf05
    1940:	04090003          	lb	zero,64(s2)
    1944:	0100                	.2byte	0x100
    1946:	0305                	.2byte	0x305
    1948:	04090103          	lb	sp,64(s2)
    194c:	0100                	.2byte	0x100
    194e:	0805                	.2byte	0x805
    1950:	0306                	.2byte	0x306
    1952:	0900                	.2byte	0x900
    1954:	0000                	.2byte	0x0
    1956:	0501                	.2byte	0x501
    1958:	0305                	.2byte	0x305
    195a:	0900                	.2byte	0x900
    195c:	000c                	.2byte	0xc
    195e:	0501                	.2byte	0x501
    1960:	0614                	.2byte	0x614
    1962:	04097f03          	.4byte	0x4097f03
    1966:	0100                	.2byte	0x100
    1968:	0f05                	.2byte	0xf05
    196a:	04090003          	lb	zero,64(s2)
    196e:	0100                	.2byte	0x100
    1970:	0305                	.2byte	0x305
    1972:	04090103          	lb	sp,64(s2)
    1976:	0100                	.2byte	0x100
    1978:	0805                	.2byte	0x805
    197a:	0306                	.2byte	0x306
    197c:	0900                	.2byte	0x900
    197e:	0000                	.2byte	0x0
    1980:	0501                	.2byte	0x501
    1982:	0305                	.2byte	0x305
    1984:	0900                	.2byte	0x900
    1986:	000c                	.2byte	0xc
    1988:	0501                	.2byte	0x501
    198a:	09070307          	.4byte	0x9070307
    198e:	0004                	.2byte	0x4
    1990:	0501                	.2byte	0x501
    1992:	0312                	.2byte	0x312
    1994:	0900                	.2byte	0x900
    1996:	0008                	.2byte	0x8
    1998:	0501                	.2byte	0x501
    199a:	0602                	.2byte	0x602
    199c:	04090003          	lb	zero,64(s2)
    19a0:	0100                	.2byte	0x100
    19a2:	1005                	.2byte	0x1005
    19a4:	0306                	.2byte	0x306
    19a6:	0900                	.2byte	0x900
    19a8:	0000                	.2byte	0x0
    19aa:	0501                	.2byte	0x501
    19ac:	0304                	.2byte	0x304
    19ae:	0900                	.2byte	0x900
    19b0:	000c                	.2byte	0xc
    19b2:	0501                	.2byte	0x501
    19b4:	01030603          	lb	a2,16(t1)
    19b8:	0409                	.2byte	0x409
    19ba:	0100                	.2byte	0x100
    19bc:	00090103          	lb	sp,0(s2)
    19c0:	0100                	.2byte	0x100
    19c2:	0b05                	.2byte	0xb05
    19c4:	0306                	.2byte	0x306
    19c6:	0900                	.2byte	0x900
    19c8:	0000                	.2byte	0x0
    19ca:	0501                	.2byte	0x501
    19cc:	01030603          	lb	a2,16(t1)
    19d0:	0409                	.2byte	0x409
    19d2:	0100                	.2byte	0x100
    19d4:	0a05                	.2byte	0xa05
    19d6:	0306                	.2byte	0x306
    19d8:	0900                	.2byte	0x900
    19da:	0000                	.2byte	0x0
    19dc:	0501                	.2byte	0x501
    19de:	0602                	.2byte	0x602
    19e0:	08090203          	lb	tp,128(s2)
    19e4:	0100                	.2byte	0x100
    19e6:	0105                	.2byte	0x105
    19e8:	0306                	.2byte	0x306
    19ea:	0901                	.2byte	0x901
    19ec:	0000                	.2byte	0x0
    19ee:	0501                	.2byte	0x501
    19f0:	0306                	.2byte	0x306
    19f2:	0974                	.2byte	0x974
    19f4:	0004                	.2byte	0x4
    19f6:	0501                	.2byte	0x501
    19f8:	0309                	.2byte	0x309
    19fa:	0901                	.2byte	0x901
    19fc:	0004                	.2byte	0x4
    19fe:	0501                	.2byte	0x501
    1a00:	0604                	.2byte	0x604
    1a02:	0c097f03          	.4byte	0xc097f03
    1a06:	0100                	.2byte	0x100
    1a08:	00090103          	lb	sp,0(s2)
    1a0c:	0100                	.2byte	0x100
    1a0e:	00090103          	lb	sp,0(s2)
    1a12:	0100                	.2byte	0x100
    1a14:	0a05                	.2byte	0xa05
    1a16:	0306                	.2byte	0x306
    1a18:	0900                	.2byte	0x900
    1a1a:	0000                	.2byte	0x0
    1a1c:	0501                	.2byte	0x501
    1a1e:	0604                	.2byte	0x604
    1a20:	04090103          	lb	sp,64(s2)
    1a24:	0100                	.2byte	0x100
    1a26:	0a05                	.2byte	0xa05
    1a28:	0306                	.2byte	0x306
    1a2a:	0900                	.2byte	0x900
    1a2c:	0000                	.2byte	0x0
    1a2e:	0501                	.2byte	0x501
    1a30:	0306                	.2byte	0x306
    1a32:	097d                	.2byte	0x97d
    1a34:	0008                	.2byte	0x8
    1a36:	0501                	.2byte	0x501
    1a38:	0309                	.2byte	0x309
    1a3a:	0901                	.2byte	0x901
    1a3c:	0004                	.2byte	0x4
    1a3e:	0501                	.2byte	0x501
    1a40:	0604                	.2byte	0x604
    1a42:	0c097f03          	.4byte	0xc097f03
    1a46:	0100                	.2byte	0x100
    1a48:	00090103          	lb	sp,0(s2)
    1a4c:	0100                	.2byte	0x100
    1a4e:	00090103          	lb	sp,0(s2)
    1a52:	0100                	.2byte	0x100
    1a54:	0a05                	.2byte	0xa05
    1a56:	0306                	.2byte	0x306
    1a58:	0900                	.2byte	0x900
    1a5a:	0000                	.2byte	0x0
    1a5c:	0501                	.2byte	0x501
    1a5e:	0604                	.2byte	0x604
    1a60:	04090103          	lb	sp,64(s2)
    1a64:	0100                	.2byte	0x100
    1a66:	0a05                	.2byte	0xa05
    1a68:	0306                	.2byte	0x306
    1a6a:	0900                	.2byte	0x900
    1a6c:	0000                	.2byte	0x0
    1a6e:	0501                	.2byte	0x501
    1a70:	0306                	.2byte	0x306
    1a72:	097d                	.2byte	0x97d
    1a74:	0008                	.2byte	0x8
    1a76:	0501                	.2byte	0x501
    1a78:	0309                	.2byte	0x309
    1a7a:	0901                	.2byte	0x901
    1a7c:	0004                	.2byte	0x4
    1a7e:	0501                	.2byte	0x501
    1a80:	0604                	.2byte	0x604
    1a82:	0c097f03          	.4byte	0xc097f03
    1a86:	0100                	.2byte	0x100
    1a88:	00090103          	lb	sp,0(s2)
    1a8c:	0100                	.2byte	0x100
    1a8e:	00090103          	lb	sp,0(s2)
    1a92:	0100                	.2byte	0x100
    1a94:	0a05                	.2byte	0xa05
    1a96:	0306                	.2byte	0x306
    1a98:	0900                	.2byte	0x900
    1a9a:	0000                	.2byte	0x0
    1a9c:	0501                	.2byte	0x501
    1a9e:	0604                	.2byte	0x604
    1aa0:	04090103          	lb	sp,64(s2)
    1aa4:	0100                	.2byte	0x100
    1aa6:	0a05                	.2byte	0xa05
    1aa8:	0306                	.2byte	0x306
    1aaa:	0900                	.2byte	0x900
    1aac:	0000                	.2byte	0x0
    1aae:	0501                	.2byte	0x501
    1ab0:	0306                	.2byte	0x306
    1ab2:	097d                	.2byte	0x97d
    1ab4:	0008                	.2byte	0x8
    1ab6:	0501                	.2byte	0x501
    1ab8:	0309                	.2byte	0x309
    1aba:	0901                	.2byte	0x901
    1abc:	0004                	.2byte	0x4
    1abe:	0501                	.2byte	0x501
    1ac0:	0604                	.2byte	0x604
    1ac2:	0c097f03          	.4byte	0xc097f03
    1ac6:	0100                	.2byte	0x100
    1ac8:	00090103          	lb	sp,0(s2)
    1acc:	0100                	.2byte	0x100
    1ace:	00090103          	lb	sp,0(s2)
    1ad2:	0100                	.2byte	0x100
    1ad4:	0a05                	.2byte	0xa05
    1ad6:	0306                	.2byte	0x306
    1ad8:	0900                	.2byte	0x900
    1ada:	0000                	.2byte	0x0
    1adc:	0501                	.2byte	0x501
    1ade:	0604                	.2byte	0x604
    1ae0:	04090103          	lb	sp,64(s2)
    1ae4:	0100                	.2byte	0x100
    1ae6:	0a05                	.2byte	0xa05
    1ae8:	0306                	.2byte	0x306
    1aea:	0900                	.2byte	0x900
    1aec:	0000                	.2byte	0x0
    1aee:	0501                	.2byte	0x501
    1af0:	0306                	.2byte	0x306
    1af2:	097d                	.2byte	0x97d
    1af4:	0008                	.2byte	0x8
    1af6:	0501                	.2byte	0x501
    1af8:	0309                	.2byte	0x309
    1afa:	0901                	.2byte	0x901
    1afc:	0004                	.2byte	0x4
    1afe:	0501                	.2byte	0x501
    1b00:	0604                	.2byte	0x604
    1b02:	0c097f03          	.4byte	0xc097f03
    1b06:	0100                	.2byte	0x100
    1b08:	00090103          	lb	sp,0(s2)
    1b0c:	0100                	.2byte	0x100
    1b0e:	00090103          	lb	sp,0(s2)
    1b12:	0100                	.2byte	0x100
    1b14:	0a05                	.2byte	0xa05
    1b16:	0306                	.2byte	0x306
    1b18:	0900                	.2byte	0x900
    1b1a:	0000                	.2byte	0x0
    1b1c:	0501                	.2byte	0x501
    1b1e:	0604                	.2byte	0x604
    1b20:	04090103          	lb	sp,64(s2)
    1b24:	0100                	.2byte	0x100
    1b26:	0a05                	.2byte	0xa05
    1b28:	0306                	.2byte	0x306
    1b2a:	0900                	.2byte	0x900
    1b2c:	0000                	.2byte	0x0
    1b2e:	0501                	.2byte	0x501
    1b30:	0306                	.2byte	0x306
    1b32:	097d                	.2byte	0x97d
    1b34:	0008                	.2byte	0x8
    1b36:	0501                	.2byte	0x501
    1b38:	0309                	.2byte	0x309
    1b3a:	0901                	.2byte	0x901
    1b3c:	0004                	.2byte	0x4
    1b3e:	0501                	.2byte	0x501
    1b40:	0604                	.2byte	0x604
    1b42:	0c097f03          	.4byte	0xc097f03
    1b46:	0100                	.2byte	0x100
    1b48:	00090103          	lb	sp,0(s2)
    1b4c:	0100                	.2byte	0x100
    1b4e:	00090103          	lb	sp,0(s2)
    1b52:	0100                	.2byte	0x100
    1b54:	0a05                	.2byte	0xa05
    1b56:	0306                	.2byte	0x306
    1b58:	0900                	.2byte	0x900
    1b5a:	0000                	.2byte	0x0
    1b5c:	0501                	.2byte	0x501
    1b5e:	0604                	.2byte	0x604
    1b60:	04090103          	lb	sp,64(s2)
    1b64:	0100                	.2byte	0x100
    1b66:	0a05                	.2byte	0xa05
    1b68:	0306                	.2byte	0x306
    1b6a:	0900                	.2byte	0x900
    1b6c:	0000                	.2byte	0x0
    1b6e:	0501                	.2byte	0x501
    1b70:	0614                	.2byte	0x614
    1b72:	04097b03          	.4byte	0x4097b03
    1b76:	0100                	.2byte	0x100
    1b78:	0f05                	.2byte	0xf05
    1b7a:	00090003          	lb	zero,0(s2)
    1b7e:	0100                	.2byte	0x100
    1b80:	4805                	.2byte	0x4805
    1b82:	04090f03          	lb	t5,64(s2)
    1b86:	0100                	.2byte	0x100
    1b88:	0205                	.2byte	0x205
    1b8a:	00090103          	lb	sp,0(s2)
    1b8e:	0100                	.2byte	0x100
    1b90:	0405                	.2byte	0x405
    1b92:	0306                	.2byte	0x306
    1b94:	0900                	.2byte	0x900
    1b96:	0000                	.2byte	0x0
    1b98:	0501                	.2byte	0x501
    1b9a:	0348                	.2byte	0x348
    1b9c:	097f                	.2byte	0x97f
    1b9e:	0004                	.2byte	0x4
    1ba0:	0501                	.2byte	0x501
    1ba2:	0306                	.2byte	0x306
    1ba4:	096e                	.2byte	0x96e
    1ba6:	0028                	.2byte	0x28
    1ba8:	0501                	.2byte	0x501
    1baa:	14030603          	lb	a2,320(t1)
    1bae:	0409                	.2byte	0x409
    1bb0:	0100                	.2byte	0x100
    1bb2:	0205                	.2byte	0x205
    1bb4:	00096c03          	.4byte	0x96c03
    1bb8:	0100                	.2byte	0x100
    1bba:	0605                	.2byte	0x605
    1bbc:	0306                	.2byte	0x306
    1bbe:	0900                	.2byte	0x900
    1bc0:	0000                	.2byte	0x0
    1bc2:	0501                	.2byte	0x501
    1bc4:	0602                	.2byte	0x602
    1bc6:	04090103          	lb	sp,64(s2)
    1bca:	0100                	.2byte	0x100
    1bcc:	0605                	.2byte	0x605
    1bce:	0306                	.2byte	0x306
    1bd0:	0900                	.2byte	0x900
    1bd2:	0000                	.2byte	0x0
    1bd4:	0501                	.2byte	0x501
    1bd6:	0602                	.2byte	0x602
    1bd8:	04090103          	lb	sp,64(s2)
    1bdc:	0100                	.2byte	0x100
    1bde:	00090103          	lb	sp,0(s2)
    1be2:	0100                	.2byte	0x100
    1be4:	0f05                	.2byte	0xf05
    1be6:	00090003          	lb	zero,0(s2)
    1bea:	0100                	.2byte	0x100
    1bec:	0305                	.2byte	0x305
    1bee:	04090103          	lb	sp,64(s2)
    1bf2:	0100                	.2byte	0x100
    1bf4:	0805                	.2byte	0x805
    1bf6:	0306                	.2byte	0x306
    1bf8:	0900                	.2byte	0x900
    1bfa:	0000                	.2byte	0x0
    1bfc:	0501                	.2byte	0x501
    1bfe:	0305                	.2byte	0x305
    1c00:	0900                	.2byte	0x900
    1c02:	0008                	.2byte	0x8
    1c04:	0501                	.2byte	0x501
    1c06:	0306                	.2byte	0x306
    1c08:	0901                	.2byte	0x901
    1c0a:	0008                	.2byte	0x8
    1c0c:	0501                	.2byte	0x501
    1c0e:	0614                	.2byte	0x614
    1c10:	04097e03          	.4byte	0x4097e03
    1c14:	0100                	.2byte	0x100
    1c16:	0f05                	.2byte	0xf05
    1c18:	04090003          	lb	zero,64(s2)
    1c1c:	0100                	.2byte	0x100
    1c1e:	0305                	.2byte	0x305
    1c20:	04090103          	lb	sp,64(s2)
    1c24:	0100                	.2byte	0x100
    1c26:	0805                	.2byte	0x805
    1c28:	0306                	.2byte	0x306
    1c2a:	0900                	.2byte	0x900
    1c2c:	0000                	.2byte	0x0
    1c2e:	0501                	.2byte	0x501
    1c30:	0305                	.2byte	0x305
    1c32:	0900                	.2byte	0x900
    1c34:	000c                	.2byte	0xc
    1c36:	0501                	.2byte	0x501
    1c38:	0306                	.2byte	0x306
    1c3a:	0901                	.2byte	0x901
    1c3c:	0004                	.2byte	0x4
    1c3e:	0501                	.2byte	0x501
    1c40:	0309                	.2byte	0x309
    1c42:	0901                	.2byte	0x901
    1c44:	0004                	.2byte	0x4
    1c46:	0501                	.2byte	0x501
    1c48:	0604                	.2byte	0x604
    1c4a:	0c097f03          	.4byte	0xc097f03
    1c4e:	0100                	.2byte	0x100
    1c50:	00090103          	lb	sp,0(s2)
    1c54:	0100                	.2byte	0x100
    1c56:	00090103          	lb	sp,0(s2)
    1c5a:	0100                	.2byte	0x100
    1c5c:	0a05                	.2byte	0xa05
    1c5e:	0306                	.2byte	0x306
    1c60:	0900                	.2byte	0x900
    1c62:	0000                	.2byte	0x0
    1c64:	0501                	.2byte	0x501
    1c66:	0604                	.2byte	0x604
    1c68:	04090103          	lb	sp,64(s2)
    1c6c:	0100                	.2byte	0x100
    1c6e:	0a05                	.2byte	0xa05
    1c70:	0306                	.2byte	0x306
    1c72:	0900                	.2byte	0x900
    1c74:	0000                	.2byte	0x0
    1c76:	0501                	.2byte	0x501
    1c78:	0614                	.2byte	0x614
    1c7a:	04097b03          	.4byte	0x4097b03
    1c7e:	0100                	.2byte	0x100
    1c80:	0f05                	.2byte	0xf05
    1c82:	04090003          	lb	zero,64(s2)
    1c86:	0100                	.2byte	0x100
    1c88:	0305                	.2byte	0x305
    1c8a:	04090103          	lb	sp,64(s2)
    1c8e:	0100                	.2byte	0x100
    1c90:	0805                	.2byte	0x805
    1c92:	0306                	.2byte	0x306
    1c94:	0900                	.2byte	0x900
    1c96:	0000                	.2byte	0x0
    1c98:	0501                	.2byte	0x501
    1c9a:	0305                	.2byte	0x305
    1c9c:	0900                	.2byte	0x900
    1c9e:	000c                	.2byte	0xc
    1ca0:	0501                	.2byte	0x501
    1ca2:	0306                	.2byte	0x306
    1ca4:	0901                	.2byte	0x901
    1ca6:	0004                	.2byte	0x4
    1ca8:	0501                	.2byte	0x501
    1caa:	0309                	.2byte	0x309
    1cac:	0901                	.2byte	0x901
    1cae:	0004                	.2byte	0x4
    1cb0:	0501                	.2byte	0x501
    1cb2:	0604                	.2byte	0x604
    1cb4:	0c097f03          	.4byte	0xc097f03
    1cb8:	0100                	.2byte	0x100
    1cba:	00090103          	lb	sp,0(s2)
    1cbe:	0100                	.2byte	0x100
    1cc0:	00090103          	lb	sp,0(s2)
    1cc4:	0100                	.2byte	0x100
    1cc6:	0a05                	.2byte	0xa05
    1cc8:	0306                	.2byte	0x306
    1cca:	0900                	.2byte	0x900
    1ccc:	0000                	.2byte	0x0
    1cce:	0501                	.2byte	0x501
    1cd0:	0604                	.2byte	0x604
    1cd2:	04090103          	lb	sp,64(s2)
    1cd6:	0100                	.2byte	0x100
    1cd8:	0a05                	.2byte	0xa05
    1cda:	0306                	.2byte	0x306
    1cdc:	0900                	.2byte	0x900
    1cde:	0000                	.2byte	0x0
    1ce0:	0501                	.2byte	0x501
    1ce2:	0614                	.2byte	0x614
    1ce4:	04097b03          	.4byte	0x4097b03
    1ce8:	0100                	.2byte	0x100
    1cea:	0f05                	.2byte	0xf05
    1cec:	04090003          	lb	zero,64(s2)
    1cf0:	0100                	.2byte	0x100
    1cf2:	0305                	.2byte	0x305
    1cf4:	04090103          	lb	sp,64(s2)
    1cf8:	0100                	.2byte	0x100
    1cfa:	0805                	.2byte	0x805
    1cfc:	0306                	.2byte	0x306
    1cfe:	0900                	.2byte	0x900
    1d00:	0000                	.2byte	0x0
    1d02:	0501                	.2byte	0x501
    1d04:	0305                	.2byte	0x305
    1d06:	0900                	.2byte	0x900
    1d08:	000c                	.2byte	0xc
    1d0a:	0501                	.2byte	0x501
    1d0c:	0306                	.2byte	0x306
    1d0e:	0901                	.2byte	0x901
    1d10:	0004                	.2byte	0x4
    1d12:	0501                	.2byte	0x501
    1d14:	0309                	.2byte	0x309
    1d16:	0901                	.2byte	0x901
    1d18:	0004                	.2byte	0x4
    1d1a:	0501                	.2byte	0x501
    1d1c:	0604                	.2byte	0x604
    1d1e:	0c097f03          	.4byte	0xc097f03
    1d22:	0100                	.2byte	0x100
    1d24:	00090103          	lb	sp,0(s2)
    1d28:	0100                	.2byte	0x100
    1d2a:	00090103          	lb	sp,0(s2)
    1d2e:	0100                	.2byte	0x100
    1d30:	0a05                	.2byte	0xa05
    1d32:	0306                	.2byte	0x306
    1d34:	0900                	.2byte	0x900
    1d36:	0000                	.2byte	0x0
    1d38:	0501                	.2byte	0x501
    1d3a:	0604                	.2byte	0x604
    1d3c:	04090103          	lb	sp,64(s2)
    1d40:	0100                	.2byte	0x100
    1d42:	0a05                	.2byte	0xa05
    1d44:	0306                	.2byte	0x306
    1d46:	0900                	.2byte	0x900
    1d48:	0000                	.2byte	0x0
    1d4a:	0501                	.2byte	0x501
    1d4c:	0614                	.2byte	0x614
    1d4e:	04097b03          	.4byte	0x4097b03
    1d52:	0100                	.2byte	0x100
    1d54:	0f05                	.2byte	0xf05
    1d56:	04090003          	lb	zero,64(s2)
    1d5a:	0100                	.2byte	0x100
    1d5c:	0305                	.2byte	0x305
    1d5e:	04090103          	lb	sp,64(s2)
    1d62:	0100                	.2byte	0x100
    1d64:	0805                	.2byte	0x805
    1d66:	0306                	.2byte	0x306
    1d68:	0900                	.2byte	0x900
    1d6a:	0000                	.2byte	0x0
    1d6c:	0501                	.2byte	0x501
    1d6e:	0305                	.2byte	0x305
    1d70:	0900                	.2byte	0x900
    1d72:	000c                	.2byte	0xc
    1d74:	0501                	.2byte	0x501
    1d76:	0306                	.2byte	0x306
    1d78:	0901                	.2byte	0x901
    1d7a:	0004                	.2byte	0x4
    1d7c:	0501                	.2byte	0x501
    1d7e:	0309                	.2byte	0x309
    1d80:	0901                	.2byte	0x901
    1d82:	0004                	.2byte	0x4
    1d84:	0501                	.2byte	0x501
    1d86:	0604                	.2byte	0x604
    1d88:	0c097f03          	.4byte	0xc097f03
    1d8c:	0100                	.2byte	0x100
    1d8e:	00090103          	lb	sp,0(s2)
    1d92:	0100                	.2byte	0x100
    1d94:	00090103          	lb	sp,0(s2)
    1d98:	0100                	.2byte	0x100
    1d9a:	0a05                	.2byte	0xa05
    1d9c:	0306                	.2byte	0x306
    1d9e:	0900                	.2byte	0x900
    1da0:	0000                	.2byte	0x0
    1da2:	0501                	.2byte	0x501
    1da4:	0604                	.2byte	0x604
    1da6:	04090103          	lb	sp,64(s2)
    1daa:	0100                	.2byte	0x100
    1dac:	0a05                	.2byte	0xa05
    1dae:	0306                	.2byte	0x306
    1db0:	0900                	.2byte	0x900
    1db2:	0000                	.2byte	0x0
    1db4:	0501                	.2byte	0x501
    1db6:	0614                	.2byte	0x614
    1db8:	04097b03          	.4byte	0x4097b03
    1dbc:	0100                	.2byte	0x100
    1dbe:	0f05                	.2byte	0xf05
    1dc0:	04090003          	lb	zero,64(s2)
    1dc4:	0100                	.2byte	0x100
    1dc6:	0305                	.2byte	0x305
    1dc8:	04090103          	lb	sp,64(s2)
    1dcc:	0100                	.2byte	0x100
    1dce:	0805                	.2byte	0x805
    1dd0:	0306                	.2byte	0x306
    1dd2:	0900                	.2byte	0x900
    1dd4:	0000                	.2byte	0x0
    1dd6:	0501                	.2byte	0x501
    1dd8:	0305                	.2byte	0x305
    1dda:	0900                	.2byte	0x900
    1ddc:	000c                	.2byte	0xc
    1dde:	0501                	.2byte	0x501
    1de0:	0306                	.2byte	0x306
    1de2:	0901                	.2byte	0x901
    1de4:	0004                	.2byte	0x4
    1de6:	0501                	.2byte	0x501
    1de8:	0309                	.2byte	0x309
    1dea:	0901                	.2byte	0x901
    1dec:	0004                	.2byte	0x4
    1dee:	0501                	.2byte	0x501
    1df0:	0604                	.2byte	0x604
    1df2:	0c097f03          	.4byte	0xc097f03
    1df6:	0100                	.2byte	0x100
    1df8:	00090103          	lb	sp,0(s2)
    1dfc:	0100                	.2byte	0x100
    1dfe:	00090103          	lb	sp,0(s2)
    1e02:	0100                	.2byte	0x100
    1e04:	0a05                	.2byte	0xa05
    1e06:	0306                	.2byte	0x306
    1e08:	0900                	.2byte	0x900
    1e0a:	0000                	.2byte	0x0
    1e0c:	0501                	.2byte	0x501
    1e0e:	0604                	.2byte	0x604
    1e10:	04090103          	lb	sp,64(s2)
    1e14:	0100                	.2byte	0x100
    1e16:	0a05                	.2byte	0xa05
    1e18:	0306                	.2byte	0x306
    1e1a:	0900                	.2byte	0x900
    1e1c:	0000                	.2byte	0x0
    1e1e:	0501                	.2byte	0x501
    1e20:	0614                	.2byte	0x614
    1e22:	04097b03          	.4byte	0x4097b03
    1e26:	0100                	.2byte	0x100
    1e28:	0f05                	.2byte	0xf05
    1e2a:	04090003          	lb	zero,64(s2)
    1e2e:	0100                	.2byte	0x100
    1e30:	0305                	.2byte	0x305
    1e32:	04090103          	lb	sp,64(s2)
    1e36:	0100                	.2byte	0x100
    1e38:	0805                	.2byte	0x805
    1e3a:	0306                	.2byte	0x306
    1e3c:	0900                	.2byte	0x900
    1e3e:	0000                	.2byte	0x0
    1e40:	0501                	.2byte	0x501
    1e42:	0305                	.2byte	0x305
    1e44:	0900                	.2byte	0x900
    1e46:	000c                	.2byte	0xc
    1e48:	0501                	.2byte	0x501
    1e4a:	0306                	.2byte	0x306
    1e4c:	0901                	.2byte	0x901
    1e4e:	0004                	.2byte	0x4
    1e50:	0501                	.2byte	0x501
    1e52:	0309                	.2byte	0x309
    1e54:	0901                	.2byte	0x901
    1e56:	0004                	.2byte	0x4
    1e58:	0501                	.2byte	0x501
    1e5a:	0604                	.2byte	0x604
    1e5c:	0c097f03          	.4byte	0xc097f03
    1e60:	0100                	.2byte	0x100
    1e62:	00090103          	lb	sp,0(s2)
    1e66:	0100                	.2byte	0x100
    1e68:	00090103          	lb	sp,0(s2)
    1e6c:	0100                	.2byte	0x100
    1e6e:	0a05                	.2byte	0xa05
    1e70:	0306                	.2byte	0x306
    1e72:	0900                	.2byte	0x900
    1e74:	0000                	.2byte	0x0
    1e76:	0501                	.2byte	0x501
    1e78:	0604                	.2byte	0x604
    1e7a:	04090103          	lb	sp,64(s2)
    1e7e:	0100                	.2byte	0x100
    1e80:	0a05                	.2byte	0xa05
    1e82:	0306                	.2byte	0x306
    1e84:	0900                	.2byte	0x900
    1e86:	0000                	.2byte	0x0
    1e88:	0501                	.2byte	0x501
    1e8a:	0614                	.2byte	0x614
    1e8c:	04097b03          	.4byte	0x4097b03
    1e90:	0100                	.2byte	0x100
    1e92:	0f05                	.2byte	0xf05
    1e94:	04090003          	lb	zero,64(s2)
    1e98:	0100                	.2byte	0x100
    1e9a:	0305                	.2byte	0x305
    1e9c:	04090103          	lb	sp,64(s2)
    1ea0:	0100                	.2byte	0x100
    1ea2:	0805                	.2byte	0x805
    1ea4:	0306                	.2byte	0x306
    1ea6:	0900                	.2byte	0x900
    1ea8:	0000                	.2byte	0x0
    1eaa:	0501                	.2byte	0x501
    1eac:	0305                	.2byte	0x305
    1eae:	0900                	.2byte	0x900
    1eb0:	000c                	.2byte	0xc
    1eb2:	0501                	.2byte	0x501
    1eb4:	0306                	.2byte	0x306
    1eb6:	0901                	.2byte	0x901
    1eb8:	0004                	.2byte	0x4
    1eba:	0501                	.2byte	0x501
    1ebc:	0309                	.2byte	0x309
    1ebe:	0901                	.2byte	0x901
    1ec0:	0004                	.2byte	0x4
    1ec2:	0501                	.2byte	0x501
    1ec4:	0604                	.2byte	0x604
    1ec6:	0c097f03          	.4byte	0xc097f03
    1eca:	0100                	.2byte	0x100
    1ecc:	00090103          	lb	sp,0(s2)
    1ed0:	0100                	.2byte	0x100
    1ed2:	00090103          	lb	sp,0(s2)
    1ed6:	0100                	.2byte	0x100
    1ed8:	0a05                	.2byte	0xa05
    1eda:	0306                	.2byte	0x306
    1edc:	0900                	.2byte	0x900
    1ede:	0000                	.2byte	0x0
    1ee0:	0501                	.2byte	0x501
    1ee2:	0604                	.2byte	0x604
    1ee4:	04090103          	lb	sp,64(s2)
    1ee8:	0100                	.2byte	0x100
    1eea:	0a05                	.2byte	0xa05
    1eec:	0306                	.2byte	0x306
    1eee:	0900                	.2byte	0x900
    1ef0:	0000                	.2byte	0x0
    1ef2:	0501                	.2byte	0x501
    1ef4:	0614                	.2byte	0x614
    1ef6:	04097b03          	.4byte	0x4097b03
    1efa:	0100                	.2byte	0x100
    1efc:	0f05                	.2byte	0xf05
    1efe:	04090003          	lb	zero,64(s2)
    1f02:	0100                	.2byte	0x100
    1f04:	0305                	.2byte	0x305
    1f06:	04090103          	lb	sp,64(s2)
    1f0a:	0100                	.2byte	0x100
    1f0c:	0805                	.2byte	0x805
    1f0e:	0306                	.2byte	0x306
    1f10:	0900                	.2byte	0x900
    1f12:	0000                	.2byte	0x0
    1f14:	0501                	.2byte	0x501
    1f16:	0305                	.2byte	0x305
    1f18:	0900                	.2byte	0x900
    1f1a:	000c                	.2byte	0xc
    1f1c:	0501                	.2byte	0x501
    1f1e:	0306                	.2byte	0x306
    1f20:	0901                	.2byte	0x901
    1f22:	0004                	.2byte	0x4
    1f24:	0501                	.2byte	0x501
    1f26:	0309                	.2byte	0x309
    1f28:	0901                	.2byte	0x901
    1f2a:	0004                	.2byte	0x4
    1f2c:	0501                	.2byte	0x501
    1f2e:	0604                	.2byte	0x604
    1f30:	0c097f03          	.4byte	0xc097f03
    1f34:	0100                	.2byte	0x100
    1f36:	00090103          	lb	sp,0(s2)
    1f3a:	0100                	.2byte	0x100
    1f3c:	00090103          	lb	sp,0(s2)
    1f40:	0100                	.2byte	0x100
    1f42:	0a05                	.2byte	0xa05
    1f44:	0306                	.2byte	0x306
    1f46:	0900                	.2byte	0x900
    1f48:	0000                	.2byte	0x0
    1f4a:	0501                	.2byte	0x501
    1f4c:	0604                	.2byte	0x604
    1f4e:	04090103          	lb	sp,64(s2)
    1f52:	0100                	.2byte	0x100
    1f54:	0a05                	.2byte	0xa05
    1f56:	0306                	.2byte	0x306
    1f58:	0900                	.2byte	0x900
    1f5a:	0000                	.2byte	0x0
    1f5c:	0501                	.2byte	0x501
    1f5e:	0614                	.2byte	0x614
    1f60:	04097b03          	.4byte	0x4097b03
    1f64:	0100                	.2byte	0x100
    1f66:	0f05                	.2byte	0xf05
    1f68:	04090003          	lb	zero,64(s2)
    1f6c:	0100                	.2byte	0x100
    1f6e:	0305                	.2byte	0x305
    1f70:	04090103          	lb	sp,64(s2)
    1f74:	0100                	.2byte	0x100
    1f76:	0805                	.2byte	0x805
    1f78:	0306                	.2byte	0x306
    1f7a:	0900                	.2byte	0x900
    1f7c:	0000                	.2byte	0x0
    1f7e:	0501                	.2byte	0x501
    1f80:	0305                	.2byte	0x305
    1f82:	0900                	.2byte	0x900
    1f84:	000c                	.2byte	0xc
    1f86:	0501                	.2byte	0x501
    1f88:	0306                	.2byte	0x306
    1f8a:	0901                	.2byte	0x901
    1f8c:	0004                	.2byte	0x4
    1f8e:	0501                	.2byte	0x501
    1f90:	0309                	.2byte	0x309
    1f92:	0901                	.2byte	0x901
    1f94:	0004                	.2byte	0x4
    1f96:	0501                	.2byte	0x501
    1f98:	0604                	.2byte	0x604
    1f9a:	0c097f03          	.4byte	0xc097f03
    1f9e:	0100                	.2byte	0x100
    1fa0:	00090103          	lb	sp,0(s2)
    1fa4:	0100                	.2byte	0x100
    1fa6:	00090103          	lb	sp,0(s2)
    1faa:	0100                	.2byte	0x100
    1fac:	0a05                	.2byte	0xa05
    1fae:	0306                	.2byte	0x306
    1fb0:	0900                	.2byte	0x900
    1fb2:	0000                	.2byte	0x0
    1fb4:	0501                	.2byte	0x501
    1fb6:	0604                	.2byte	0x604
    1fb8:	04090103          	lb	sp,64(s2)
    1fbc:	0100                	.2byte	0x100
    1fbe:	0a05                	.2byte	0xa05
    1fc0:	0306                	.2byte	0x306
    1fc2:	0900                	.2byte	0x900
    1fc4:	0000                	.2byte	0x0
    1fc6:	0501                	.2byte	0x501
    1fc8:	0614                	.2byte	0x614
    1fca:	04097b03          	.4byte	0x4097b03
    1fce:	0100                	.2byte	0x100
    1fd0:	0f05                	.2byte	0xf05
    1fd2:	00090003          	lb	zero,0(s2)
    1fd6:	0100                	.2byte	0x100
    1fd8:	0705                	.2byte	0x705
    1fda:	0306                	.2byte	0x306
    1fdc:	0908                	.2byte	0x908
    1fde:	0000                	.2byte	0x0
    1fe0:	0501                	.2byte	0x501
    1fe2:	0312                	.2byte	0x312
    1fe4:	0900                	.2byte	0x900
    1fe6:	0004                	.2byte	0x4
    1fe8:	0501                	.2byte	0x501
    1fea:	0602                	.2byte	0x602
    1fec:	04090003          	lb	zero,64(s2)
    1ff0:	0100                	.2byte	0x100
    1ff2:	1005                	.2byte	0x1005
    1ff4:	0306                	.2byte	0x306
    1ff6:	0900                	.2byte	0x900
    1ff8:	0000                	.2byte	0x0
    1ffa:	0501                	.2byte	0x501
    1ffc:	0304                	.2byte	0x304
    1ffe:	0900                	.2byte	0x900
    2000:	000c                	.2byte	0xc
    2002:	0501                	.2byte	0x501
    2004:	01030603          	lb	a2,16(t1)
    2008:	0409                	.2byte	0x409
    200a:	0100                	.2byte	0x100
    200c:	00090103          	lb	sp,0(s2)
    2010:	0100                	.2byte	0x100
    2012:	0b05                	.2byte	0xb05
    2014:	0306                	.2byte	0x306
    2016:	0900                	.2byte	0x900
    2018:	0000                	.2byte	0x0
    201a:	0501                	.2byte	0x501
    201c:	01030603          	lb	a2,16(t1)
    2020:	0409                	.2byte	0x409
    2022:	0100                	.2byte	0x100
    2024:	0306                	.2byte	0x306
    2026:	00000907          	.4byte	0x907
    202a:	0501                	.2byte	0x501
    202c:	030a                	.2byte	0x30a
    202e:	0979                	.2byte	0x979
    2030:	0004                	.2byte	0x4
    2032:	0501                	.2byte	0x501
    2034:	0602                	.2byte	0x602
    2036:	04090203          	lb	tp,64(s2)
    203a:	0100                	.2byte	0x100
    203c:	0305                	.2byte	0x305
    203e:	00090503          	lb	a0,0(s2)
    2042:	0100                	.2byte	0x100
    2044:	04090103          	lb	sp,64(s2)
    2048:	0100                	.2byte	0x100
    204a:	0205                	.2byte	0x205
    204c:	04097d03          	.4byte	0x4097d03
    2050:	0100                	.2byte	0x100
    2052:	0405                	.2byte	0x405
    2054:	0306                	.2byte	0x306
    2056:	0900                	.2byte	0x900
    2058:	0000                	.2byte	0x0
    205a:	0501                	.2byte	0x501
    205c:	0301                	.2byte	0x301
    205e:	0905                	.2byte	0x905
    2060:	0004                	.2byte	0x4
    2062:	0501                	.2byte	0x501
    2064:	0602                	.2byte	0x602
    2066:	1c097803          	.4byte	0x1c097803
    206a:	0100                	.2byte	0x100
    206c:	0305                	.2byte	0x305
    206e:	00090503          	lb	a0,0(s2)
    2072:	0100                	.2byte	0x100
    2074:	08090103          	lb	sp,128(s2)
    2078:	0100                	.2byte	0x100
    207a:	0205                	.2byte	0x205
    207c:	04097d03          	.4byte	0x4097d03
    2080:	0100                	.2byte	0x100
    2082:	0405                	.2byte	0x405
    2084:	0306                	.2byte	0x306
    2086:	0900                	.2byte	0x900
    2088:	0000                	.2byte	0x0
    208a:	0501                	.2byte	0x501
    208c:	01030603          	lb	a2,16(t1)
    2090:	0409                	.2byte	0x409
    2092:	0100                	.2byte	0x100
    2094:	0205                	.2byte	0x205
    2096:	00096c03          	.4byte	0x96c03
    209a:	0100                	.2byte	0x100
    209c:	0605                	.2byte	0x605
    209e:	0306                	.2byte	0x306
    20a0:	0900                	.2byte	0x900
    20a2:	0000                	.2byte	0x0
    20a4:	0501                	.2byte	0x501
    20a6:	0602                	.2byte	0x602
    20a8:	04090103          	lb	sp,64(s2)
    20ac:	0100                	.2byte	0x100
    20ae:	0605                	.2byte	0x605
    20b0:	0306                	.2byte	0x306
    20b2:	0900                	.2byte	0x900
    20b4:	0000                	.2byte	0x0
    20b6:	0501                	.2byte	0x501
    20b8:	0602                	.2byte	0x602
    20ba:	04090103          	lb	sp,64(s2)
    20be:	0100                	.2byte	0x100
    20c0:	00090103          	lb	sp,0(s2)
    20c4:	0100                	.2byte	0x100
    20c6:	0f05                	.2byte	0xf05
    20c8:	00090003          	lb	zero,0(s2)
    20cc:	0100                	.2byte	0x100
    20ce:	3a05                	.2byte	0x3a05
    20d0:	10091703          	lh	a4,256(s2)
    20d4:	0100                	.2byte	0x100
    20d6:	0205                	.2byte	0x205
    20d8:	00090103          	lb	sp,0(s2)
    20dc:	0100                	.2byte	0x100
    20de:	00097803          	.4byte	0x97803
    20e2:	0100                	.2byte	0x100
    20e4:	0305                	.2byte	0x305
    20e6:	00090103          	lb	sp,0(s2)
    20ea:	0100                	.2byte	0x100
    20ec:	0205                	.2byte	0x205
    20ee:	00096c03          	.4byte	0x96c03
    20f2:	0100                	.2byte	0x100
    20f4:	3a05                	.2byte	0x3a05
    20f6:	0306                	.2byte	0x306
    20f8:	091a                	.2byte	0x91a
    20fa:	0000                	.2byte	0x0
    20fc:	0501                	.2byte	0x501
    20fe:	0306                	.2byte	0x306
    2100:	0966                	.2byte	0x966
    2102:	0008                	.2byte	0x8
    2104:	0501                	.2byte	0x501
    2106:	0602                	.2byte	0x602
    2108:	0c090103          	lb	sp,192(s2)
    210c:	0100                	.2byte	0x100
    210e:	00090103          	lb	sp,0(s2)
    2112:	0100                	.2byte	0x100
    2114:	00090103          	lb	sp,0(s2)
    2118:	0100                	.2byte	0x100
    211a:	0f05                	.2byte	0xf05
    211c:	00090003          	lb	zero,0(s2)
    2120:	0100                	.2byte	0x100
    2122:	3a05                	.2byte	0x3a05
    2124:	0306                	.2byte	0x306
    2126:	00000917          	auipc	s2,0x0
    212a:	0501                	.2byte	0x501
    212c:	0306                	.2byte	0x306
    212e:	0966                	.2byte	0x966
    2130:	0014                	.2byte	0x14
    2132:	0301                	.2byte	0x301
    2134:	0901                	.2byte	0x901
    2136:	0004                	.2byte	0x4
    2138:	0501                	.2byte	0x501
    213a:	0902030f          	.4byte	0x902030f
    213e:	0004                	.2byte	0x4
    2140:	0501                	.2byte	0x501
    2142:	0304                	.2byte	0x304
    2144:	0910                	.2byte	0x910
    2146:	0004                	.2byte	0x4
    2148:	0501                	.2byte	0x501
    214a:	71030603          	lb	a2,1808(t1)
    214e:	0409                	.2byte	0x409
    2150:	0100                	.2byte	0x100
    2152:	0805                	.2byte	0x805
    2154:	0306                	.2byte	0x306
    2156:	0900                	.2byte	0x900
    2158:	0000                	.2byte	0x0
    215a:	0501                	.2byte	0x501
    215c:	0305                	.2byte	0x305
    215e:	0900                	.2byte	0x900
    2160:	0008                	.2byte	0x8
    2162:	0501                	.2byte	0x501
    2164:	0614                	.2byte	0x614
    2166:	0c097f03          	.4byte	0xc097f03
    216a:	0100                	.2byte	0x100
    216c:	0f05                	.2byte	0xf05
    216e:	04090003          	lb	zero,64(s2) # 2166 <_fstack+0x1b66>
    2172:	0100                	.2byte	0x100
    2174:	0305                	.2byte	0x305
    2176:	04090103          	lb	sp,64(s2)
    217a:	0100                	.2byte	0x100
    217c:	0805                	.2byte	0x805
    217e:	0306                	.2byte	0x306
    2180:	0900                	.2byte	0x900
    2182:	0000                	.2byte	0x0
    2184:	0501                	.2byte	0x501
    2186:	0305                	.2byte	0x305
    2188:	0900                	.2byte	0x900
    218a:	000c                	.2byte	0xc
    218c:	0501                	.2byte	0x501
    218e:	0306                	.2byte	0x306
    2190:	0901                	.2byte	0x901
    2192:	0004                	.2byte	0x4
    2194:	0501                	.2byte	0x501
    2196:	0309                	.2byte	0x309
    2198:	0901                	.2byte	0x901
    219a:	0004                	.2byte	0x4
    219c:	0501                	.2byte	0x501
    219e:	0604                	.2byte	0x604
    21a0:	0c097f03          	.4byte	0xc097f03
    21a4:	0100                	.2byte	0x100
    21a6:	00090103          	lb	sp,0(s2)
    21aa:	0100                	.2byte	0x100
    21ac:	00090103          	lb	sp,0(s2)
    21b0:	0100                	.2byte	0x100
    21b2:	0a05                	.2byte	0xa05
    21b4:	0306                	.2byte	0x306
    21b6:	0900                	.2byte	0x900
    21b8:	0000                	.2byte	0x0
    21ba:	0501                	.2byte	0x501
    21bc:	0604                	.2byte	0x604
    21be:	04090103          	lb	sp,64(s2)
    21c2:	0100                	.2byte	0x100
    21c4:	0a05                	.2byte	0xa05
    21c6:	0306                	.2byte	0x306
    21c8:	0900                	.2byte	0x900
    21ca:	0000                	.2byte	0x0
    21cc:	0501                	.2byte	0x501
    21ce:	0614                	.2byte	0x614
    21d0:	04097b03          	.4byte	0x4097b03
    21d4:	0100                	.2byte	0x100
    21d6:	0f05                	.2byte	0xf05
    21d8:	04090003          	lb	zero,64(s2)
    21dc:	0100                	.2byte	0x100
    21de:	0305                	.2byte	0x305
    21e0:	04090103          	lb	sp,64(s2)
    21e4:	0100                	.2byte	0x100
    21e6:	0805                	.2byte	0x805
    21e8:	0306                	.2byte	0x306
    21ea:	0900                	.2byte	0x900
    21ec:	0000                	.2byte	0x0
    21ee:	0501                	.2byte	0x501
    21f0:	0305                	.2byte	0x305
    21f2:	0900                	.2byte	0x900
    21f4:	000c                	.2byte	0xc
    21f6:	0501                	.2byte	0x501
    21f8:	0306                	.2byte	0x306
    21fa:	0901                	.2byte	0x901
    21fc:	0004                	.2byte	0x4
    21fe:	0501                	.2byte	0x501
    2200:	0309                	.2byte	0x309
    2202:	0901                	.2byte	0x901
    2204:	0004                	.2byte	0x4
    2206:	0501                	.2byte	0x501
    2208:	0604                	.2byte	0x604
    220a:	0c097f03          	.4byte	0xc097f03
    220e:	0100                	.2byte	0x100
    2210:	00090103          	lb	sp,0(s2)
    2214:	0100                	.2byte	0x100
    2216:	00090103          	lb	sp,0(s2)
    221a:	0100                	.2byte	0x100
    221c:	0a05                	.2byte	0xa05
    221e:	0306                	.2byte	0x306
    2220:	0900                	.2byte	0x900
    2222:	0000                	.2byte	0x0
    2224:	0501                	.2byte	0x501
    2226:	0604                	.2byte	0x604
    2228:	04090103          	lb	sp,64(s2)
    222c:	0100                	.2byte	0x100
    222e:	0a05                	.2byte	0xa05
    2230:	0306                	.2byte	0x306
    2232:	0900                	.2byte	0x900
    2234:	0000                	.2byte	0x0
    2236:	0501                	.2byte	0x501
    2238:	0614                	.2byte	0x614
    223a:	04097b03          	.4byte	0x4097b03
    223e:	0100                	.2byte	0x100
    2240:	0f05                	.2byte	0xf05
    2242:	04090003          	lb	zero,64(s2)
    2246:	0100                	.2byte	0x100
    2248:	0305                	.2byte	0x305
    224a:	04090103          	lb	sp,64(s2)
    224e:	0100                	.2byte	0x100
    2250:	0805                	.2byte	0x805
    2252:	0306                	.2byte	0x306
    2254:	0900                	.2byte	0x900
    2256:	0000                	.2byte	0x0
    2258:	0501                	.2byte	0x501
    225a:	0305                	.2byte	0x305
    225c:	0900                	.2byte	0x900
    225e:	000c                	.2byte	0xc
    2260:	0501                	.2byte	0x501
    2262:	0306                	.2byte	0x306
    2264:	0901                	.2byte	0x901
    2266:	0004                	.2byte	0x4
    2268:	0501                	.2byte	0x501
    226a:	0309                	.2byte	0x309
    226c:	0901                	.2byte	0x901
    226e:	0004                	.2byte	0x4
    2270:	0501                	.2byte	0x501
    2272:	0604                	.2byte	0x604
    2274:	0c097f03          	.4byte	0xc097f03
    2278:	0100                	.2byte	0x100
    227a:	00090103          	lb	sp,0(s2)
    227e:	0100                	.2byte	0x100
    2280:	00090103          	lb	sp,0(s2)
    2284:	0100                	.2byte	0x100
    2286:	0a05                	.2byte	0xa05
    2288:	0306                	.2byte	0x306
    228a:	0900                	.2byte	0x900
    228c:	0000                	.2byte	0x0
    228e:	0501                	.2byte	0x501
    2290:	0604                	.2byte	0x604
    2292:	04090103          	lb	sp,64(s2)
    2296:	0100                	.2byte	0x100
    2298:	0a05                	.2byte	0xa05
    229a:	0306                	.2byte	0x306
    229c:	0900                	.2byte	0x900
    229e:	0000                	.2byte	0x0
    22a0:	0501                	.2byte	0x501
    22a2:	0614                	.2byte	0x614
    22a4:	04097b03          	.4byte	0x4097b03
    22a8:	0100                	.2byte	0x100
    22aa:	0f05                	.2byte	0xf05
    22ac:	04090003          	lb	zero,64(s2)
    22b0:	0100                	.2byte	0x100
    22b2:	0305                	.2byte	0x305
    22b4:	04090103          	lb	sp,64(s2)
    22b8:	0100                	.2byte	0x100
    22ba:	0805                	.2byte	0x805
    22bc:	0306                	.2byte	0x306
    22be:	0900                	.2byte	0x900
    22c0:	0000                	.2byte	0x0
    22c2:	0501                	.2byte	0x501
    22c4:	0305                	.2byte	0x305
    22c6:	0900                	.2byte	0x900
    22c8:	000c                	.2byte	0xc
    22ca:	0501                	.2byte	0x501
    22cc:	0306                	.2byte	0x306
    22ce:	0901                	.2byte	0x901
    22d0:	0004                	.2byte	0x4
    22d2:	0501                	.2byte	0x501
    22d4:	0309                	.2byte	0x309
    22d6:	0901                	.2byte	0x901
    22d8:	0004                	.2byte	0x4
    22da:	0501                	.2byte	0x501
    22dc:	0604                	.2byte	0x604
    22de:	0c097f03          	.4byte	0xc097f03
    22e2:	0100                	.2byte	0x100
    22e4:	00090103          	lb	sp,0(s2)
    22e8:	0100                	.2byte	0x100
    22ea:	00090103          	lb	sp,0(s2)
    22ee:	0100                	.2byte	0x100
    22f0:	0a05                	.2byte	0xa05
    22f2:	0306                	.2byte	0x306
    22f4:	0900                	.2byte	0x900
    22f6:	0000                	.2byte	0x0
    22f8:	0501                	.2byte	0x501
    22fa:	0604                	.2byte	0x604
    22fc:	04090103          	lb	sp,64(s2)
    2300:	0100                	.2byte	0x100
    2302:	0a05                	.2byte	0xa05
    2304:	0306                	.2byte	0x306
    2306:	0900                	.2byte	0x900
    2308:	0000                	.2byte	0x0
    230a:	0501                	.2byte	0x501
    230c:	0614                	.2byte	0x614
    230e:	04097b03          	.4byte	0x4097b03
    2312:	0100                	.2byte	0x100
    2314:	0f05                	.2byte	0xf05
    2316:	04090003          	lb	zero,64(s2)
    231a:	0100                	.2byte	0x100
    231c:	0305                	.2byte	0x305
    231e:	04090103          	lb	sp,64(s2)
    2322:	0100                	.2byte	0x100
    2324:	0805                	.2byte	0x805
    2326:	0306                	.2byte	0x306
    2328:	0900                	.2byte	0x900
    232a:	0000                	.2byte	0x0
    232c:	0501                	.2byte	0x501
    232e:	0305                	.2byte	0x305
    2330:	0900                	.2byte	0x900
    2332:	000c                	.2byte	0xc
    2334:	0501                	.2byte	0x501
    2336:	0306                	.2byte	0x306
    2338:	0901                	.2byte	0x901
    233a:	0004                	.2byte	0x4
    233c:	0501                	.2byte	0x501
    233e:	0309                	.2byte	0x309
    2340:	0901                	.2byte	0x901
    2342:	0004                	.2byte	0x4
    2344:	0501                	.2byte	0x501
    2346:	0604                	.2byte	0x604
    2348:	0c097f03          	.4byte	0xc097f03
    234c:	0100                	.2byte	0x100
    234e:	00090103          	lb	sp,0(s2)
    2352:	0100                	.2byte	0x100
    2354:	00090103          	lb	sp,0(s2)
    2358:	0100                	.2byte	0x100
    235a:	0a05                	.2byte	0xa05
    235c:	0306                	.2byte	0x306
    235e:	0900                	.2byte	0x900
    2360:	0000                	.2byte	0x0
    2362:	0501                	.2byte	0x501
    2364:	0604                	.2byte	0x604
    2366:	04090103          	lb	sp,64(s2)
    236a:	0100                	.2byte	0x100
    236c:	0a05                	.2byte	0xa05
    236e:	0306                	.2byte	0x306
    2370:	0900                	.2byte	0x900
    2372:	0000                	.2byte	0x0
    2374:	0501                	.2byte	0x501
    2376:	0614                	.2byte	0x614
    2378:	04097b03          	.4byte	0x4097b03
    237c:	0100                	.2byte	0x100
    237e:	0f05                	.2byte	0xf05
    2380:	04090003          	lb	zero,64(s2)
    2384:	0100                	.2byte	0x100
    2386:	0305                	.2byte	0x305
    2388:	04090103          	lb	sp,64(s2)
    238c:	0100                	.2byte	0x100
    238e:	0805                	.2byte	0x805
    2390:	0306                	.2byte	0x306
    2392:	0900                	.2byte	0x900
    2394:	0000                	.2byte	0x0
    2396:	0501                	.2byte	0x501
    2398:	0305                	.2byte	0x305
    239a:	0900                	.2byte	0x900
    239c:	000c                	.2byte	0xc
    239e:	0501                	.2byte	0x501
    23a0:	0306                	.2byte	0x306
    23a2:	0901                	.2byte	0x901
    23a4:	0004                	.2byte	0x4
    23a6:	0501                	.2byte	0x501
    23a8:	0309                	.2byte	0x309
    23aa:	0901                	.2byte	0x901
    23ac:	0004                	.2byte	0x4
    23ae:	0501                	.2byte	0x501
    23b0:	0604                	.2byte	0x604
    23b2:	0c097f03          	.4byte	0xc097f03
    23b6:	0100                	.2byte	0x100
    23b8:	00090103          	lb	sp,0(s2)
    23bc:	0100                	.2byte	0x100
    23be:	00090103          	lb	sp,0(s2)
    23c2:	0100                	.2byte	0x100
    23c4:	0a05                	.2byte	0xa05
    23c6:	0306                	.2byte	0x306
    23c8:	0900                	.2byte	0x900
    23ca:	0000                	.2byte	0x0
    23cc:	0501                	.2byte	0x501
    23ce:	0604                	.2byte	0x604
    23d0:	04090103          	lb	sp,64(s2)
    23d4:	0100                	.2byte	0x100
    23d6:	0a05                	.2byte	0xa05
    23d8:	0306                	.2byte	0x306
    23da:	0900                	.2byte	0x900
    23dc:	0000                	.2byte	0x0
    23de:	0501                	.2byte	0x501
    23e0:	0614                	.2byte	0x614
    23e2:	04097b03          	.4byte	0x4097b03
    23e6:	0100                	.2byte	0x100
    23e8:	0f05                	.2byte	0xf05
    23ea:	04090003          	lb	zero,64(s2)
    23ee:	0100                	.2byte	0x100
    23f0:	0305                	.2byte	0x305
    23f2:	04090103          	lb	sp,64(s2)
    23f6:	0100                	.2byte	0x100
    23f8:	0805                	.2byte	0x805
    23fa:	0306                	.2byte	0x306
    23fc:	0900                	.2byte	0x900
    23fe:	0000                	.2byte	0x0
    2400:	0501                	.2byte	0x501
    2402:	0305                	.2byte	0x305
    2404:	0900                	.2byte	0x900
    2406:	000c                	.2byte	0xc
    2408:	0501                	.2byte	0x501
    240a:	0306                	.2byte	0x306
    240c:	0901                	.2byte	0x901
    240e:	0004                	.2byte	0x4
    2410:	0501                	.2byte	0x501
    2412:	0309                	.2byte	0x309
    2414:	0901                	.2byte	0x901
    2416:	0004                	.2byte	0x4
    2418:	0501                	.2byte	0x501
    241a:	0604                	.2byte	0x604
    241c:	0c097f03          	.4byte	0xc097f03
    2420:	0100                	.2byte	0x100
    2422:	00090103          	lb	sp,0(s2)
    2426:	0100                	.2byte	0x100
    2428:	00090103          	lb	sp,0(s2)
    242c:	0100                	.2byte	0x100
    242e:	0a05                	.2byte	0xa05
    2430:	0306                	.2byte	0x306
    2432:	0900                	.2byte	0x900
    2434:	0000                	.2byte	0x0
    2436:	0501                	.2byte	0x501
    2438:	0604                	.2byte	0x604
    243a:	04090103          	lb	sp,64(s2)
    243e:	0100                	.2byte	0x100
    2440:	0a05                	.2byte	0xa05
    2442:	0306                	.2byte	0x306
    2444:	0900                	.2byte	0x900
    2446:	0000                	.2byte	0x0
    2448:	0501                	.2byte	0x501
    244a:	0614                	.2byte	0x614
    244c:	04097b03          	.4byte	0x4097b03
    2450:	0100                	.2byte	0x100
    2452:	0f05                	.2byte	0xf05
    2454:	00090003          	lb	zero,0(s2)
    2458:	0100                	.2byte	0x100
    245a:	0305                	.2byte	0x305
    245c:	04090103          	lb	sp,64(s2)
    2460:	0100                	.2byte	0x100
    2462:	0805                	.2byte	0x805
    2464:	0306                	.2byte	0x306
    2466:	0900                	.2byte	0x900
    2468:	0000                	.2byte	0x0
    246a:	0501                	.2byte	0x501
    246c:	0305                	.2byte	0x305
    246e:	0900                	.2byte	0x900
    2470:	0004                	.2byte	0x4
    2472:	0501                	.2byte	0x501
    2474:	0306                	.2byte	0x306
    2476:	0901                	.2byte	0x901
    2478:	0004                	.2byte	0x4
    247a:	0501                	.2byte	0x501
    247c:	0309                	.2byte	0x309
    247e:	0901                	.2byte	0x901
    2480:	0004                	.2byte	0x4
    2482:	0501                	.2byte	0x501
    2484:	0604                	.2byte	0x604
    2486:	0c097f03          	.4byte	0xc097f03
    248a:	0100                	.2byte	0x100
    248c:	00090103          	lb	sp,0(s2)
    2490:	0100                	.2byte	0x100
    2492:	00090103          	lb	sp,0(s2)
    2496:	0100                	.2byte	0x100
    2498:	0a05                	.2byte	0xa05
    249a:	0306                	.2byte	0x306
    249c:	0900                	.2byte	0x900
    249e:	0000                	.2byte	0x0
    24a0:	0501                	.2byte	0x501
    24a2:	0604                	.2byte	0x604
    24a4:	04090103          	lb	sp,64(s2)
    24a8:	0100                	.2byte	0x100
    24aa:	0a05                	.2byte	0xa05
    24ac:	0306                	.2byte	0x306
    24ae:	0900                	.2byte	0x900
    24b0:	0000                	.2byte	0x0
    24b2:	0501                	.2byte	0x501
    24b4:	0614                	.2byte	0x614
    24b6:	04097b03          	.4byte	0x4097b03
    24ba:	0100                	.2byte	0x100
    24bc:	0f05                	.2byte	0xf05
    24be:	00090003          	lb	zero,0(s2)
    24c2:	0100                	.2byte	0x100
    24c4:	1205                	.2byte	0x1205
    24c6:	0306                	.2byte	0x306
    24c8:	0908                	.2byte	0x908
    24ca:	0000                	.2byte	0x0
    24cc:	0501                	.2byte	0x501
    24ce:	0310                	.2byte	0x310
    24d0:	0900                	.2byte	0x900
    24d2:	0004                	.2byte	0x4
    24d4:	0501                	.2byte	0x501
    24d6:	09000307          	.4byte	0x9000307
    24da:	0008                	.2byte	0x8
    24dc:	0501                	.2byte	0x501
    24de:	0602                	.2byte	0x602
    24e0:	04090003          	lb	zero,64(s2)
    24e4:	0100                	.2byte	0x100
    24e6:	1005                	.2byte	0x1005
    24e8:	0306                	.2byte	0x306
    24ea:	0900                	.2byte	0x900
    24ec:	0000                	.2byte	0x0
    24ee:	0501                	.2byte	0x501
    24f0:	0304                	.2byte	0x304
    24f2:	0900                	.2byte	0x900
    24f4:	0004                	.2byte	0x4
    24f6:	0501                	.2byte	0x501
    24f8:	01030603          	lb	a2,16(t1)
    24fc:	0409                	.2byte	0x409
    24fe:	0100                	.2byte	0x100
    2500:	00090103          	lb	sp,0(s2)
    2504:	0100                	.2byte	0x100
    2506:	0b05                	.2byte	0xb05
    2508:	0306                	.2byte	0x306
    250a:	0900                	.2byte	0x900
    250c:	0000                	.2byte	0x0
    250e:	0501                	.2byte	0x501
    2510:	01030603          	lb	a2,16(t1)
    2514:	0409                	.2byte	0x409
    2516:	0100                	.2byte	0x100
    2518:	0306                	.2byte	0x306
    251a:	00000907          	.4byte	0x907
    251e:	0501                	.2byte	0x501
    2520:	030a                	.2byte	0x30a
    2522:	0979                	.2byte	0x979
    2524:	0004                	.2byte	0x4
    2526:	0501                	.2byte	0x501
    2528:	0602                	.2byte	0x602
    252a:	04090203          	lb	tp,64(s2)
    252e:	0100                	.2byte	0x100
    2530:	0305                	.2byte	0x305
    2532:	00090503          	lb	a0,0(s2)
    2536:	0100                	.2byte	0x100
    2538:	04090103          	lb	sp,64(s2)
    253c:	0100                	.2byte	0x100
    253e:	0205                	.2byte	0x205
    2540:	04097d03          	.4byte	0x4097d03
    2544:	0100                	.2byte	0x100
    2546:	0405                	.2byte	0x405
    2548:	0306                	.2byte	0x306
    254a:	0900                	.2byte	0x900
    254c:	0000                	.2byte	0x0
    254e:	0501                	.2byte	0x501
    2550:	01030603          	lb	a2,16(t1)
    2554:	0409                	.2byte	0x409
    2556:	0100                	.2byte	0x100
    2558:	0205                	.2byte	0x205
    255a:	00096c03          	.4byte	0x96c03
    255e:	0100                	.2byte	0x100
    2560:	0605                	.2byte	0x605
    2562:	0306                	.2byte	0x306
    2564:	0900                	.2byte	0x900
    2566:	0000                	.2byte	0x0
    2568:	0501                	.2byte	0x501
    256a:	0602                	.2byte	0x602
    256c:	04090103          	lb	sp,64(s2)
    2570:	0100                	.2byte	0x100
    2572:	0605                	.2byte	0x605
    2574:	0306                	.2byte	0x306
    2576:	0900                	.2byte	0x900
    2578:	0000                	.2byte	0x0
    257a:	0501                	.2byte	0x501
    257c:	0602                	.2byte	0x602
    257e:	04090103          	lb	sp,64(s2)
    2582:	0100                	.2byte	0x100
    2584:	00090103          	lb	sp,0(s2)
    2588:	0100                	.2byte	0x100
    258a:	0f05                	.2byte	0xf05
    258c:	00090003          	lb	zero,0(s2)
    2590:	0100                	.2byte	0x100
    2592:	0205                	.2byte	0x205
    2594:	04090d03          	lb	s10,64(s2)
    2598:	0100                	.2byte	0x100
    259a:	0305                	.2byte	0x305
    259c:	00090503          	lb	a0,0(s2)
    25a0:	0100                	.2byte	0x100
    25a2:	08090103          	lb	sp,128(s2)
    25a6:	0100                	.2byte	0x100
    25a8:	0205                	.2byte	0x205
    25aa:	04097d03          	.4byte	0x4097d03
    25ae:	0100                	.2byte	0x100
    25b0:	0405                	.2byte	0x405
    25b2:	0306                	.2byte	0x306
    25b4:	0900                	.2byte	0x900
    25b6:	0000                	.2byte	0x0
    25b8:	0501                	.2byte	0x501
    25ba:	0602                	.2byte	0x602
    25bc:	04090903          	lb	s2,64(s2)
    25c0:	0100                	.2byte	0x100
    25c2:	0105                	.2byte	0x105
    25c4:	0306                	.2byte	0x306
    25c6:	0901                	.2byte	0x901
    25c8:	0000                	.2byte	0x0
    25ca:	0501                	.2byte	0x501
    25cc:	063d                	.2byte	0x63d
    25ce:	24090303          	lb	t1,576(s2)
    25d2:	0100                	.2byte	0x100
    25d4:	0205                	.2byte	0x205
    25d6:	00090303          	lb	t1,0(s2)
    25da:	0100                	.2byte	0x100
    25dc:	2405                	.2byte	0x2405
    25de:	0306                	.2byte	0x306
    25e0:	0900                	.2byte	0x900
    25e2:	0000                	.2byte	0x0
    25e4:	0501                	.2byte	0x501
    25e6:	0602                	.2byte	0x602
    25e8:	08090103          	lb	sp,128(s2)
    25ec:	0100                	.2byte	0x100
    25ee:	2405                	.2byte	0x2405
    25f0:	0306                	.2byte	0x306
    25f2:	0900                	.2byte	0x900
    25f4:	0000                	.2byte	0x0
    25f6:	0501                	.2byte	0x501
    25f8:	0602                	.2byte	0x602
    25fa:	08090103          	lb	sp,128(s2)
    25fe:	0100                	.2byte	0x100
    2600:	2405                	.2byte	0x2405
    2602:	0306                	.2byte	0x306
    2604:	0900                	.2byte	0x900
    2606:	0000                	.2byte	0x0
    2608:	0501                	.2byte	0x501
    260a:	0602                	.2byte	0x602
    260c:	08090103          	lb	sp,128(s2)
    2610:	0100                	.2byte	0x100
    2612:	2405                	.2byte	0x2405
    2614:	0306                	.2byte	0x306
    2616:	0900                	.2byte	0x900
    2618:	0000                	.2byte	0x0
    261a:	0501                	.2byte	0x501
    261c:	0602                	.2byte	0x602
    261e:	08090103          	lb	sp,128(s2)
    2622:	0100                	.2byte	0x100
    2624:	2405                	.2byte	0x2405
    2626:	0306                	.2byte	0x306
    2628:	0900                	.2byte	0x900
    262a:	0000                	.2byte	0x0
    262c:	0501                	.2byte	0x501
    262e:	0602                	.2byte	0x602
    2630:	08090103          	lb	sp,128(s2)
    2634:	0100                	.2byte	0x100
    2636:	2405                	.2byte	0x2405
    2638:	0306                	.2byte	0x306
    263a:	0900                	.2byte	0x900
    263c:	0000                	.2byte	0x0
    263e:	0501                	.2byte	0x501
    2640:	0602                	.2byte	0x602
    2642:	08090103          	lb	sp,128(s2)
    2646:	0100                	.2byte	0x100
    2648:	2405                	.2byte	0x2405
    264a:	0306                	.2byte	0x306
    264c:	0900                	.2byte	0x900
    264e:	0000                	.2byte	0x0
    2650:	0501                	.2byte	0x501
    2652:	0602                	.2byte	0x602
    2654:	04090103          	lb	sp,64(s2)
    2658:	0100                	.2byte	0x100
    265a:	2405                	.2byte	0x2405
    265c:	0306                	.2byte	0x306
    265e:	0900                	.2byte	0x900
    2660:	0000                	.2byte	0x0
    2662:	0501                	.2byte	0x501
    2664:	0602                	.2byte	0x602
    2666:	04090103          	lb	sp,64(s2)
    266a:	0100                	.2byte	0x100
    266c:	2405                	.2byte	0x2405
    266e:	0306                	.2byte	0x306
    2670:	0900                	.2byte	0x900
    2672:	0000                	.2byte	0x0
    2674:	0501                	.2byte	0x501
    2676:	0602                	.2byte	0x602
    2678:	04090103          	lb	sp,64(s2)
    267c:	0100                	.2byte	0x100
    267e:	2305                	.2byte	0x2305
    2680:	0306                	.2byte	0x306
    2682:	0900                	.2byte	0x900
    2684:	0000                	.2byte	0x0
    2686:	0501                	.2byte	0x501
    2688:	0602                	.2byte	0x602
    268a:	04090103          	lb	sp,64(s2)
    268e:	0100                	.2byte	0x100
    2690:	2305                	.2byte	0x2305
    2692:	0306                	.2byte	0x306
    2694:	0900                	.2byte	0x900
    2696:	0000                	.2byte	0x0
    2698:	0501                	.2byte	0x501
    269a:	0602                	.2byte	0x602
    269c:	04090203          	lb	tp,64(s2)
    26a0:	0100                	.2byte	0x100
    26a2:	2405                	.2byte	0x2405
    26a4:	0306                	.2byte	0x306
    26a6:	0901                	.2byte	0x901
    26a8:	0000                	.2byte	0x0
    26aa:	0301                	.2byte	0x301
    26ac:	097f                	.2byte	0x97f
    26ae:	0004                	.2byte	0x4
    26b0:	0501                	.2byte	0x501
    26b2:	0602                	.2byte	0x602
    26b4:	08090103          	lb	sp,128(s2)
    26b8:	0100                	.2byte	0x100
    26ba:	2405                	.2byte	0x2405
    26bc:	0306                	.2byte	0x306
    26be:	0900                	.2byte	0x900
    26c0:	0000                	.2byte	0x0
    26c2:	0501                	.2byte	0x501
    26c4:	0602                	.2byte	0x602
    26c6:	08090103          	lb	sp,128(s2)
    26ca:	0100                	.2byte	0x100
    26cc:	2405                	.2byte	0x2405
    26ce:	0306                	.2byte	0x306
    26d0:	0900                	.2byte	0x900
    26d2:	0000                	.2byte	0x0
    26d4:	0501                	.2byte	0x501
    26d6:	0602                	.2byte	0x602
    26d8:	08090203          	lb	tp,128(s2)
    26dc:	0100                	.2byte	0x100
    26de:	2405                	.2byte	0x2405
    26e0:	0306                	.2byte	0x306
    26e2:	0900                	.2byte	0x900
    26e4:	0000                	.2byte	0x0
    26e6:	0501                	.2byte	0x501
    26e8:	0602                	.2byte	0x602
    26ea:	0c090103          	lb	sp,192(s2)
    26ee:	0100                	.2byte	0x100
    26f0:	2405                	.2byte	0x2405
    26f2:	0306                	.2byte	0x306
    26f4:	0900                	.2byte	0x900
    26f6:	0000                	.2byte	0x0
    26f8:	0501                	.2byte	0x501
    26fa:	0301                	.2byte	0x301
    26fc:	0901                	.2byte	0x901
    26fe:	0008                	.2byte	0x8
    2700:	0501                	.2byte	0x501
    2702:	0638                	.2byte	0x638
    2704:	04090203          	lb	tp,64(s2)
    2708:	0100                	.2byte	0x100
    270a:	0205                	.2byte	0x205
    270c:	00090103          	lb	sp,0(s2)
    2710:	0100                	.2byte	0x100
    2712:	00090103          	lb	sp,0(s2)
    2716:	0100                	.2byte	0x100
    2718:	00090103          	lb	sp,0(s2)
    271c:	0100                	.2byte	0x100
    271e:	00096903          	.4byte	0x96903
    2722:	0100                	.2byte	0x100
    2724:	2405                	.2byte	0x2405
    2726:	0306                	.2byte	0x306
    2728:	0900                	.2byte	0x900
    272a:	0000                	.2byte	0x0
    272c:	0501                	.2byte	0x501
    272e:	0602                	.2byte	0x602
    2730:	08090103          	lb	sp,128(s2)
    2734:	0100                	.2byte	0x100
    2736:	2405                	.2byte	0x2405
    2738:	0306                	.2byte	0x306
    273a:	0900                	.2byte	0x900
    273c:	0000                	.2byte	0x0
    273e:	0501                	.2byte	0x501
    2740:	0602                	.2byte	0x602
    2742:	08090103          	lb	sp,128(s2)
    2746:	0100                	.2byte	0x100
    2748:	2405                	.2byte	0x2405
    274a:	0306                	.2byte	0x306
    274c:	0900                	.2byte	0x900
    274e:	0000                	.2byte	0x0
    2750:	0501                	.2byte	0x501
    2752:	0602                	.2byte	0x602
    2754:	08090103          	lb	sp,128(s2)
    2758:	0100                	.2byte	0x100
    275a:	2405                	.2byte	0x2405
    275c:	0306                	.2byte	0x306
    275e:	0900                	.2byte	0x900
    2760:	0000                	.2byte	0x0
    2762:	0501                	.2byte	0x501
    2764:	0602                	.2byte	0x602
    2766:	08090103          	lb	sp,128(s2)
    276a:	0100                	.2byte	0x100
    276c:	2405                	.2byte	0x2405
    276e:	0306                	.2byte	0x306
    2770:	0900                	.2byte	0x900
    2772:	0000                	.2byte	0x0
    2774:	0501                	.2byte	0x501
    2776:	0602                	.2byte	0x602
    2778:	08090103          	lb	sp,128(s2)
    277c:	0100                	.2byte	0x100
    277e:	2405                	.2byte	0x2405
    2780:	0306                	.2byte	0x306
    2782:	0900                	.2byte	0x900
    2784:	0000                	.2byte	0x0
    2786:	0501                	.2byte	0x501
    2788:	0602                	.2byte	0x602
    278a:	08090103          	lb	sp,128(s2)
    278e:	0100                	.2byte	0x100
    2790:	2405                	.2byte	0x2405
    2792:	0306                	.2byte	0x306
    2794:	0900                	.2byte	0x900
    2796:	0000                	.2byte	0x0
    2798:	0501                	.2byte	0x501
    279a:	0602                	.2byte	0x602
    279c:	04090103          	lb	sp,64(s2)
    27a0:	0100                	.2byte	0x100
    27a2:	2405                	.2byte	0x2405
    27a4:	0306                	.2byte	0x306
    27a6:	0900                	.2byte	0x900
    27a8:	0000                	.2byte	0x0
    27aa:	0501                	.2byte	0x501
    27ac:	0602                	.2byte	0x602
    27ae:	04090103          	lb	sp,64(s2)
    27b2:	0100                	.2byte	0x100
    27b4:	2405                	.2byte	0x2405
    27b6:	0306                	.2byte	0x306
    27b8:	0900                	.2byte	0x900
    27ba:	0000                	.2byte	0x0
    27bc:	0501                	.2byte	0x501
    27be:	0602                	.2byte	0x602
    27c0:	04090103          	lb	sp,64(s2)
    27c4:	0100                	.2byte	0x100
    27c6:	2305                	.2byte	0x2305
    27c8:	0306                	.2byte	0x306
    27ca:	0900                	.2byte	0x900
    27cc:	0000                	.2byte	0x0
    27ce:	0501                	.2byte	0x501
    27d0:	0602                	.2byte	0x602
    27d2:	04090103          	lb	sp,64(s2)
    27d6:	0100                	.2byte	0x100
    27d8:	2305                	.2byte	0x2305
    27da:	0306                	.2byte	0x306
    27dc:	0900                	.2byte	0x900
    27de:	0000                	.2byte	0x0
    27e0:	0501                	.2byte	0x501
    27e2:	0602                	.2byte	0x602
    27e4:	04090203          	lb	tp,64(s2)
    27e8:	0100                	.2byte	0x100
    27ea:	2405                	.2byte	0x2405
    27ec:	0306                	.2byte	0x306
    27ee:	0901                	.2byte	0x901
    27f0:	0000                	.2byte	0x0
    27f2:	0301                	.2byte	0x301
    27f4:	097f                	.2byte	0x97f
    27f6:	0004                	.2byte	0x4
    27f8:	0501                	.2byte	0x501
    27fa:	0602                	.2byte	0x602
    27fc:	08090103          	lb	sp,128(s2)
    2800:	0100                	.2byte	0x100
    2802:	2405                	.2byte	0x2405
    2804:	0306                	.2byte	0x306
    2806:	0900                	.2byte	0x900
    2808:	0000                	.2byte	0x0
    280a:	0501                	.2byte	0x501
    280c:	0602                	.2byte	0x602
    280e:	08090103          	lb	sp,128(s2)
    2812:	0100                	.2byte	0x100
    2814:	2405                	.2byte	0x2405
    2816:	0306                	.2byte	0x306
    2818:	0900                	.2byte	0x900
    281a:	0000                	.2byte	0x0
    281c:	0501                	.2byte	0x501
    281e:	0602                	.2byte	0x602
    2820:	08090203          	lb	tp,128(s2)
    2824:	0100                	.2byte	0x100
    2826:	2405                	.2byte	0x2405
    2828:	0306                	.2byte	0x306
    282a:	0900                	.2byte	0x900
    282c:	0000                	.2byte	0x0
    282e:	0501                	.2byte	0x501
    2830:	0602                	.2byte	0x602
    2832:	0c090103          	lb	sp,192(s2)
    2836:	0100                	.2byte	0x100
    2838:	2405                	.2byte	0x2405
    283a:	0306                	.2byte	0x306
    283c:	0900                	.2byte	0x900
    283e:	0000                	.2byte	0x0
    2840:	0501                	.2byte	0x501
    2842:	0602                	.2byte	0x602
    2844:	08090b03          	lb	s6,128(s2)
    2848:	0100                	.2byte	0x100
    284a:	0705                	.2byte	0x705
    284c:	0306                	.2byte	0x306
    284e:	0900                	.2byte	0x900
    2850:	0000                	.2byte	0x0
    2852:	0501                	.2byte	0x501
    2854:	0602                	.2byte	0x602
    2856:	04090103          	lb	sp,64(s2)
    285a:	0100                	.2byte	0x100
    285c:	0805                	.2byte	0x805
    285e:	00090003          	lb	zero,0(s2)
    2862:	0100                	.2byte	0x100
    2864:	0306                	.2byte	0x306
    2866:	0901                	.2byte	0x901
    2868:	0008                	.2byte	0x8
    286a:	0501                	.2byte	0x501
    286c:	00030603          	lb	a2,0(t1)
    2870:	0409                	.2byte	0x409
    2872:	0100                	.2byte	0x100
    2874:	0805                	.2byte	0x805
    2876:	0306                	.2byte	0x306
    2878:	0900                	.2byte	0x900
    287a:	0000                	.2byte	0x0
    287c:	0601                	.2byte	0x601
    287e:	04097f03          	.4byte	0x4097f03
    2882:	0100                	.2byte	0x100
    2884:	0205                	.2byte	0x205
    2886:	08090403          	lb	s0,128(s2)
    288a:	0100                	.2byte	0x100
    288c:	2405                	.2byte	0x2405
    288e:	0306                	.2byte	0x306
    2890:	0900                	.2byte	0x900
    2892:	0000                	.2byte	0x0
    2894:	0501                	.2byte	0x501
    2896:	0301                	.2byte	0x301
    2898:	00080903          	lb	s2,0(a6)
    289c:	0501                	.2byte	0x501
    289e:	0324                	.2byte	0x324
    28a0:	097d                	.2byte	0x97d
    28a2:	0004                	.2byte	0x4
    28a4:	0501                	.2byte	0x501
    28a6:	0602                	.2byte	0x602
    28a8:	04090203          	lb	tp,64(s2)
    28ac:	0100                	.2byte	0x100
    28ae:	0105                	.2byte	0x105
    28b0:	0306                	.2byte	0x306
    28b2:	0901                	.2byte	0x901
    28b4:	0000                	.2byte	0x0
    28b6:	0901                	.2byte	0x901
    28b8:	0008                	.2byte	0x8
    28ba:	0100                	.2byte	0x100
    28bc:	8a01                	.2byte	0x8a01
    28be:	0008                	.2byte	0x8
    28c0:	0500                	.2byte	0x500
    28c2:	0400                	.2byte	0x400
    28c4:	4f00                	.2byte	0x4f00
    28c6:	0000                	.2byte	0x0
    28c8:	0100                	.2byte	0x100
    28ca:	0101                	.2byte	0x101
    28cc:	000d0efb          	.4byte	0xd0efb
    28d0:	0101                	.2byte	0x101
    28d2:	0101                	.2byte	0x101
    28d4:	0000                	.2byte	0x0
    28d6:	0100                	.2byte	0x100
    28d8:	0000                	.2byte	0x0
    28da:	0101                	.2byte	0x101
    28dc:	1f01                	.2byte	0x1f01
    28de:	0004                	.2byte	0x4
    28e0:	0000                	.2byte	0x0
    28e2:	3b00                	.2byte	0x3b00
    28e4:	0000                	.2byte	0x0
    28e6:	6a00                	.2byte	0x6a00
    28e8:	0000                	.2byte	0x0
    28ea:	7c00                	.2byte	0x7c00
    28ec:	0000                	.2byte	0x0
    28ee:	0200                	.2byte	0x200
    28f0:	1f01                	.2byte	0x1f01
    28f2:	0f02                	.2byte	0xf02
    28f4:	0000ee07          	.4byte	0xee07
    28f8:	0000                	.2byte	0x0
    28fa:	00f4                	.2byte	0xf4
    28fc:	0000                	.2byte	0x0
    28fe:	ee01                	.2byte	0xee01
    2900:	0000                	.2byte	0x0
    2902:	0000                	.2byte	0x0
    2904:	00b2                	.2byte	0xb2
    2906:	0000                	.2byte	0x0
    2908:	bc01                	.2byte	0xbc01
    290a:	0000                	.2byte	0x0
    290c:	0100                	.2byte	0x100
    290e:	00c2                	.2byte	0xc2
    2910:	0000                	.2byte	0x0
    2912:	cb02                	.2byte	0xcb02
    2914:	0000                	.2byte	0x0
    2916:	0300                	.2byte	0x300
    2918:	0105                	.2byte	0x105
    291a:	0500                	.2byte	0x500
    291c:	9402                	.2byte	0x9402
    291e:	0001                	.2byte	0x1
    2920:	0310                	.2byte	0x310
    2922:	0112                	.2byte	0x112
    2924:	0205                	.2byte	0x205
    2926:	00090103          	lb	sp,0(s2)
    292a:	0100                	.2byte	0x100
    292c:	0505                	.2byte	0x505
    292e:	0306                	.2byte	0x306
    2930:	0900                	.2byte	0x900
    2932:	0000                	.2byte	0x0
    2934:	0501                	.2byte	0x501
    2936:	000d                	.2byte	0xd
    2938:	0402                	.2byte	0x402
    293a:	0301                	.2byte	0x301
    293c:	0902                	.2byte	0x902
    293e:	0008                	.2byte	0x8
    2940:	0501                	.2byte	0x501
    2942:	003c                	.2byte	0x3c
    2944:	0402                	.2byte	0x402
    2946:	0301                	.2byte	0x301
    2948:	0900                	.2byte	0x900
    294a:	0004                	.2byte	0x4
    294c:	0001                	.2byte	0x1
    294e:	0402                	.2byte	0x402
    2950:	0601                	.2byte	0x601
    2952:	04090003          	lb	zero,64(s2)
    2956:	0100                	.2byte	0x100
    2958:	0d05                	.2byte	0xd05
    295a:	0200                	.2byte	0x200
    295c:	0104                	.2byte	0x104
    295e:	0306                	.2byte	0x306
    2960:	0900                	.2byte	0x900
    2962:	0000                	.2byte	0x0
    2964:	0501                	.2byte	0x501
    2966:	003c                	.2byte	0x3c
    2968:	0402                	.2byte	0x402
    296a:	0301                	.2byte	0x301
    296c:	0900                	.2byte	0x900
    296e:	0004                	.2byte	0x4
    2970:	0501                	.2byte	0x501
    2972:	0602                	.2byte	0x602
    2974:	04090103          	lb	sp,64(s2)
    2978:	0100                	.2byte	0x100
    297a:	3205                	.2byte	0x3205
    297c:	0306                	.2byte	0x306
    297e:	0900                	.2byte	0x900
    2980:	0000                	.2byte	0x0
    2982:	0501                	.2byte	0x501
    2984:	0301                	.2byte	0x301
    2986:	0901                	.2byte	0x901
    2988:	0004                	.2byte	0x4
    298a:	0501                	.2byte	0x501
    298c:	030d                	.2byte	0x30d
    298e:	097e                	.2byte	0x97e
    2990:	0004                	.2byte	0x4
    2992:	0501                	.2byte	0x501
    2994:	033c                	.2byte	0x33c
    2996:	0900                	.2byte	0x900
    2998:	0004                	.2byte	0x4
    299a:	0601                	.2byte	0x601
    299c:	04090003          	lb	zero,64(s2)
    29a0:	0100                	.2byte	0x100
    29a2:	0d05                	.2byte	0xd05
    29a4:	0306                	.2byte	0x306
    29a6:	0900                	.2byte	0x900
    29a8:	0000                	.2byte	0x0
    29aa:	0501                	.2byte	0x501
    29ac:	033c                	.2byte	0x33c
    29ae:	0900                	.2byte	0x900
    29b0:	0004                	.2byte	0x4
    29b2:	0501                	.2byte	0x501
    29b4:	0602                	.2byte	0x602
    29b6:	04090103          	lb	sp,64(s2)
    29ba:	0100                	.2byte	0x100
    29bc:	3205                	.2byte	0x3205
    29be:	0306                	.2byte	0x306
    29c0:	0900                	.2byte	0x900
    29c2:	0000                	.2byte	0x0
    29c4:	0501                	.2byte	0x501
    29c6:	0301                	.2byte	0x301
    29c8:	0901                	.2byte	0x901
    29ca:	0008                	.2byte	0x8
    29cc:	0601                	.2byte	0x601
    29ce:	04090303          	lb	t1,64(s2)
    29d2:	0100                	.2byte	0x100
    29d4:	0205                	.2byte	0x205
    29d6:	00090103          	lb	sp,0(s2)
    29da:	0100                	.2byte	0x100
    29dc:	0905                	.2byte	0x905
    29de:	00090003          	lb	zero,0(s2)
    29e2:	0100                	.2byte	0x100
    29e4:	0505                	.2byte	0x505
    29e6:	0306                	.2byte	0x306
    29e8:	0978                	.2byte	0x978
    29ea:	0008                	.2byte	0x8
    29ec:	0501                	.2byte	0x501
    29ee:	030d                	.2byte	0x30d
    29f0:	0902                	.2byte	0x902
    29f2:	0004                	.2byte	0x4
    29f4:	0501                	.2byte	0x501
    29f6:	033c                	.2byte	0x33c
    29f8:	0900                	.2byte	0x900
    29fa:	0004                	.2byte	0x4
    29fc:	0501                	.2byte	0x501
    29fe:	0332                	.2byte	0x332
    2a00:	0901                	.2byte	0x901
    2a02:	0004                	.2byte	0x4
    2a04:	0501                	.2byte	0x501
    2a06:	06030603          	lb	a2,96(t1)
    2a0a:	0409                	.2byte	0x409
    2a0c:	0100                	.2byte	0x100
    2a0e:	0e05                	.2byte	0xe05
    2a10:	0306                	.2byte	0x306
    2a12:	0900                	.2byte	0x900
    2a14:	0000                	.2byte	0x0
    2a16:	0501                	.2byte	0x501
    2a18:	0602                	.2byte	0x602
    2a1a:	04097703          	.4byte	0x4097703
    2a1e:	0100                	.2byte	0x100
    2a20:	0505                	.2byte	0x505
    2a22:	0306                	.2byte	0x306
    2a24:	0900                	.2byte	0x900
    2a26:	0000                	.2byte	0x0
    2a28:	0501                	.2byte	0x501
    2a2a:	063c                	.2byte	0x63c
    2a2c:	04090203          	lb	tp,64(s2)
    2a30:	0100                	.2byte	0x100
    2a32:	0d05                	.2byte	0xd05
    2a34:	0306                	.2byte	0x306
    2a36:	0900                	.2byte	0x900
    2a38:	0000                	.2byte	0x0
    2a3a:	0501                	.2byte	0x501
    2a3c:	033c                	.2byte	0x33c
    2a3e:	0900                	.2byte	0x900
    2a40:	0004                	.2byte	0x4
    2a42:	0501                	.2byte	0x501
    2a44:	0602                	.2byte	0x602
    2a46:	04090103          	lb	sp,64(s2)
    2a4a:	0100                	.2byte	0x100
    2a4c:	3205                	.2byte	0x3205
    2a4e:	0306                	.2byte	0x306
    2a50:	0900                	.2byte	0x900
    2a52:	0000                	.2byte	0x0
    2a54:	0501                	.2byte	0x501
    2a56:	0609                	.2byte	0x609
    2a58:	04090503          	lb	a0,64(s2)
    2a5c:	0100                	.2byte	0x100
    2a5e:	0105                	.2byte	0x105
    2a60:	0306                	.2byte	0x306
    2a62:	0902                	.2byte	0x902
    2a64:	0008                	.2byte	0x8
    2a66:	0501                	.2byte	0x501
    2a68:	063c                	.2byte	0x63c
    2a6a:	04097803          	.4byte	0x4097803
    2a6e:	0100                	.2byte	0x100
    2a70:	0d05                	.2byte	0xd05
    2a72:	0306                	.2byte	0x306
    2a74:	0900                	.2byte	0x900
    2a76:	0000                	.2byte	0x0
    2a78:	0501                	.2byte	0x501
    2a7a:	033c                	.2byte	0x33c
    2a7c:	0900                	.2byte	0x900
    2a7e:	0004                	.2byte	0x4
    2a80:	0501                	.2byte	0x501
    2a82:	0602                	.2byte	0x602
    2a84:	04090103          	lb	sp,64(s2)
    2a88:	0100                	.2byte	0x100
    2a8a:	3205                	.2byte	0x3205
    2a8c:	0306                	.2byte	0x306
    2a8e:	0900                	.2byte	0x900
    2a90:	0000                	.2byte	0x0
    2a92:	0501                	.2byte	0x501
    2a94:	0301                	.2byte	0x301
    2a96:	0901                	.2byte	0x901
    2a98:	0004                	.2byte	0x4
    2a9a:	0901                	.2byte	0x901
    2a9c:	0004                	.2byte	0x4
    2a9e:	0100                	.2byte	0x100
    2aa0:	0401                	.2byte	0x401
    2aa2:	0502                	.2byte	0x502
    2aa4:	0001                	.2byte	0x1
    2aa6:	0205                	.2byte	0x205
    2aa8:	0310                	.2byte	0x310
    2aaa:	1000                	.2byte	0x1000
    2aac:	05012e03          	lw	t3,80(sp) # 50502ba <_fstack+0x504fcba>
    2ab0:	0305                	.2byte	0x305
    2ab2:	0902                	.2byte	0x902
    2ab4:	0000                	.2byte	0x0
    2ab6:	0301                	.2byte	0x301
    2ab8:	091e                	.2byte	0x91e
    2aba:	0000                	.2byte	0x0
    2abc:	0501                	.2byte	0x501
    2abe:	0601                	.2byte	0x601
    2ac0:	00096003          	.4byte	0x96003
    2ac4:	0100                	.2byte	0x100
    2ac6:	2705                	.2byte	0x2705
    2ac8:	04092003          	lw	zero,64(s2)
    2acc:	0100                	.2byte	0x100
    2ace:	0105                	.2byte	0x105
    2ad0:	0c096003          	.4byte	0xc096003
    2ad4:	0100                	.2byte	0x100
    2ad6:	2705                	.2byte	0x2705
    2ad8:	08092003          	lw	zero,128(s2)
    2adc:	0100                	.2byte	0x100
    2ade:	0505                	.2byte	0x505
    2ae0:	0306                	.2byte	0x306
    2ae2:	0901                	.2byte	0x901
    2ae4:	0004                	.2byte	0x4
    2ae6:	0501                	.2byte	0x501
    2ae8:	00030627          	.4byte	0x30627
    2aec:	0009                	.2byte	0x9
    2aee:	0100                	.2byte	0x100
    2af0:	0505                	.2byte	0x505
    2af2:	0306                	.2byte	0x306
    2af4:	0901                	.2byte	0x901
    2af6:	0004                	.2byte	0x4
    2af8:	0501                	.2byte	0x501
    2afa:	00030627          	.4byte	0x30627
    2afe:	0009                	.2byte	0x9
    2b00:	0100                	.2byte	0x100
    2b02:	0505                	.2byte	0x505
    2b04:	0306                	.2byte	0x306
    2b06:	0901                	.2byte	0x901
    2b08:	0004                	.2byte	0x4
    2b0a:	0501                	.2byte	0x501
    2b0c:	00030627          	.4byte	0x30627
    2b10:	0009                	.2byte	0x9
    2b12:	0100                	.2byte	0x100
    2b14:	0505                	.2byte	0x505
    2b16:	0306                	.2byte	0x306
    2b18:	0901                	.2byte	0x901
    2b1a:	0004                	.2byte	0x4
    2b1c:	0501                	.2byte	0x501
    2b1e:	00030627          	.4byte	0x30627
    2b22:	0009                	.2byte	0x9
    2b24:	0100                	.2byte	0x100
    2b26:	0505                	.2byte	0x505
    2b28:	0306                	.2byte	0x306
    2b2a:	0901                	.2byte	0x901
    2b2c:	0004                	.2byte	0x4
    2b2e:	0501                	.2byte	0x501
    2b30:	00030627          	.4byte	0x30627
    2b34:	0009                	.2byte	0x9
    2b36:	0100                	.2byte	0x100
    2b38:	0505                	.2byte	0x505
    2b3a:	0306                	.2byte	0x306
    2b3c:	0901                	.2byte	0x901
    2b3e:	0004                	.2byte	0x4
    2b40:	0501                	.2byte	0x501
    2b42:	00030627          	.4byte	0x30627
    2b46:	0009                	.2byte	0x9
    2b48:	0100                	.2byte	0x100
    2b4a:	0505                	.2byte	0x505
    2b4c:	0306                	.2byte	0x306
    2b4e:	0901                	.2byte	0x901
    2b50:	0004                	.2byte	0x4
    2b52:	0501                	.2byte	0x501
    2b54:	00030627          	.4byte	0x30627
    2b58:	0009                	.2byte	0x9
    2b5a:	0100                	.2byte	0x100
    2b5c:	0505                	.2byte	0x505
    2b5e:	0306                	.2byte	0x306
    2b60:	0901                	.2byte	0x901
    2b62:	0004                	.2byte	0x4
    2b64:	0501                	.2byte	0x501
    2b66:	00030627          	.4byte	0x30627
    2b6a:	0009                	.2byte	0x9
    2b6c:	0100                	.2byte	0x100
    2b6e:	0505                	.2byte	0x505
    2b70:	0306                	.2byte	0x306
    2b72:	0901                	.2byte	0x901
    2b74:	0004                	.2byte	0x4
    2b76:	0501                	.2byte	0x501
    2b78:	00030627          	.4byte	0x30627
    2b7c:	0009                	.2byte	0x9
    2b7e:	0100                	.2byte	0x100
    2b80:	0505                	.2byte	0x505
    2b82:	0306                	.2byte	0x306
    2b84:	0901                	.2byte	0x901
    2b86:	0004                	.2byte	0x4
    2b88:	0501                	.2byte	0x501
    2b8a:	00030627          	.4byte	0x30627
    2b8e:	0009                	.2byte	0x9
    2b90:	0100                	.2byte	0x100
    2b92:	0505                	.2byte	0x505
    2b94:	0306                	.2byte	0x306
    2b96:	0901                	.2byte	0x901
    2b98:	0004                	.2byte	0x4
    2b9a:	0501                	.2byte	0x501
    2b9c:	00030627          	.4byte	0x30627
    2ba0:	0009                	.2byte	0x9
    2ba2:	0100                	.2byte	0x100
    2ba4:	0505                	.2byte	0x505
    2ba6:	0306                	.2byte	0x306
    2ba8:	0901                	.2byte	0x901
    2baa:	0004                	.2byte	0x4
    2bac:	0501                	.2byte	0x501
    2bae:	00030627          	.4byte	0x30627
    2bb2:	0009                	.2byte	0x9
    2bb4:	0100                	.2byte	0x100
    2bb6:	0505                	.2byte	0x505
    2bb8:	0306                	.2byte	0x306
    2bba:	0901                	.2byte	0x901
    2bbc:	0004                	.2byte	0x4
    2bbe:	0501                	.2byte	0x501
    2bc0:	00030627          	.4byte	0x30627
    2bc4:	0009                	.2byte	0x9
    2bc6:	0100                	.2byte	0x100
    2bc8:	0505                	.2byte	0x505
    2bca:	0306                	.2byte	0x306
    2bcc:	0901                	.2byte	0x901
    2bce:	0004                	.2byte	0x4
    2bd0:	0501                	.2byte	0x501
    2bd2:	00030627          	.4byte	0x30627
    2bd6:	0009                	.2byte	0x9
    2bd8:	0100                	.2byte	0x100
    2bda:	0505                	.2byte	0x505
    2bdc:	0306                	.2byte	0x306
    2bde:	0901                	.2byte	0x901
    2be0:	0004                	.2byte	0x4
    2be2:	0501                	.2byte	0x501
    2be4:	00030627          	.4byte	0x30627
    2be8:	0009                	.2byte	0x9
    2bea:	0100                	.2byte	0x100
    2bec:	0505                	.2byte	0x505
    2bee:	0306                	.2byte	0x306
    2bf0:	0902                	.2byte	0x902
    2bf2:	0004                	.2byte	0x4
    2bf4:	0501                	.2byte	0x501
    2bf6:	00030627          	.4byte	0x30627
    2bfa:	0009                	.2byte	0x9
    2bfc:	0100                	.2byte	0x100
    2bfe:	0505                	.2byte	0x505
    2c00:	0306                	.2byte	0x306
    2c02:	0901                	.2byte	0x901
    2c04:	0004                	.2byte	0x4
    2c06:	0501                	.2byte	0x501
    2c08:	00030627          	.4byte	0x30627
    2c0c:	0009                	.2byte	0x9
    2c0e:	0100                	.2byte	0x100
    2c10:	0505                	.2byte	0x505
    2c12:	0306                	.2byte	0x306
    2c14:	0901                	.2byte	0x901
    2c16:	0004                	.2byte	0x4
    2c18:	0501                	.2byte	0x501
    2c1a:	00030627          	.4byte	0x30627
    2c1e:	0009                	.2byte	0x9
    2c20:	0100                	.2byte	0x100
    2c22:	0505                	.2byte	0x505
    2c24:	0306                	.2byte	0x306
    2c26:	0901                	.2byte	0x901
    2c28:	0004                	.2byte	0x4
    2c2a:	0501                	.2byte	0x501
    2c2c:	00030627          	.4byte	0x30627
    2c30:	0009                	.2byte	0x9
    2c32:	0100                	.2byte	0x100
    2c34:	0505                	.2byte	0x505
    2c36:	0306                	.2byte	0x306
    2c38:	0901                	.2byte	0x901
    2c3a:	0004                	.2byte	0x4
    2c3c:	0501                	.2byte	0x501
    2c3e:	00030627          	.4byte	0x30627
    2c42:	0009                	.2byte	0x9
    2c44:	0100                	.2byte	0x100
    2c46:	0505                	.2byte	0x505
    2c48:	0306                	.2byte	0x306
    2c4a:	0901                	.2byte	0x901
    2c4c:	0004                	.2byte	0x4
    2c4e:	0501                	.2byte	0x501
    2c50:	00030627          	.4byte	0x30627
    2c54:	0009                	.2byte	0x9
    2c56:	0100                	.2byte	0x100
    2c58:	0505                	.2byte	0x505
    2c5a:	0306                	.2byte	0x306
    2c5c:	0901                	.2byte	0x901
    2c5e:	0004                	.2byte	0x4
    2c60:	0501                	.2byte	0x501
    2c62:	00030627          	.4byte	0x30627
    2c66:	0009                	.2byte	0x9
    2c68:	0100                	.2byte	0x100
    2c6a:	0505                	.2byte	0x505
    2c6c:	0306                	.2byte	0x306
    2c6e:	0901                	.2byte	0x901
    2c70:	0004                	.2byte	0x4
    2c72:	0501                	.2byte	0x501
    2c74:	00030627          	.4byte	0x30627
    2c78:	0009                	.2byte	0x9
    2c7a:	0100                	.2byte	0x100
    2c7c:	0505                	.2byte	0x505
    2c7e:	0306                	.2byte	0x306
    2c80:	0901                	.2byte	0x901
    2c82:	0004                	.2byte	0x4
    2c84:	0501                	.2byte	0x501
    2c86:	00030627          	.4byte	0x30627
    2c8a:	0009                	.2byte	0x9
    2c8c:	0100                	.2byte	0x100
    2c8e:	0505                	.2byte	0x505
    2c90:	0306                	.2byte	0x306
    2c92:	0901                	.2byte	0x901
    2c94:	0004                	.2byte	0x4
    2c96:	0501                	.2byte	0x501
    2c98:	00030627          	.4byte	0x30627
    2c9c:	0009                	.2byte	0x9
    2c9e:	0100                	.2byte	0x100
    2ca0:	0505                	.2byte	0x505
    2ca2:	0306                	.2byte	0x306
    2ca4:	0901                	.2byte	0x901
    2ca6:	0004                	.2byte	0x4
    2ca8:	0501                	.2byte	0x501
    2caa:	00030627          	.4byte	0x30627
    2cae:	0009                	.2byte	0x9
    2cb0:	0100                	.2byte	0x100
    2cb2:	0505                	.2byte	0x505
    2cb4:	0306                	.2byte	0x306
    2cb6:	0901                	.2byte	0x901
    2cb8:	0004                	.2byte	0x4
    2cba:	0501                	.2byte	0x501
    2cbc:	00030627          	.4byte	0x30627
    2cc0:	0009                	.2byte	0x9
    2cc2:	0100                	.2byte	0x100
    2cc4:	0505                	.2byte	0x505
    2cc6:	0306                	.2byte	0x306
    2cc8:	0901                	.2byte	0x901
    2cca:	0004                	.2byte	0x4
    2ccc:	0501                	.2byte	0x501
    2cce:	00030627          	.4byte	0x30627
    2cd2:	0009                	.2byte	0x9
    2cd4:	0100                	.2byte	0x100
    2cd6:	0505                	.2byte	0x505
    2cd8:	0306                	.2byte	0x306
    2cda:	0901                	.2byte	0x901
    2cdc:	0004                	.2byte	0x4
    2cde:	0501                	.2byte	0x501
    2ce0:	00030627          	.4byte	0x30627
    2ce4:	0009                	.2byte	0x9
    2ce6:	0100                	.2byte	0x100
    2ce8:	0505                	.2byte	0x505
    2cea:	0306                	.2byte	0x306
    2cec:	0902                	.2byte	0x902
    2cee:	0004                	.2byte	0x4
    2cf0:	0501                	.2byte	0x501
    2cf2:	00030627          	.4byte	0x30627
    2cf6:	0009                	.2byte	0x9
    2cf8:	0100                	.2byte	0x100
    2cfa:	04090103          	lb	sp,64(s2)
    2cfe:	0100                	.2byte	0x100
    2d00:	04097f03          	.4byte	0x4097f03
    2d04:	0100                	.2byte	0x100
    2d06:	0505                	.2byte	0x505
    2d08:	0306                	.2byte	0x306
    2d0a:	0901                	.2byte	0x901
    2d0c:	0004                	.2byte	0x4
    2d0e:	0501                	.2byte	0x501
    2d10:	00030627          	.4byte	0x30627
    2d14:	0009                	.2byte	0x9
    2d16:	0100                	.2byte	0x100
    2d18:	0205                	.2byte	0x205
    2d1a:	0306                	.2byte	0x306
    2d1c:	0904                	.2byte	0x904
    2d1e:	0004                	.2byte	0x4
    2d20:	0501                	.2byte	0x501
    2d22:	0624                	.2byte	0x624
    2d24:	00090003          	lb	zero,0(s2)
    2d28:	0100                	.2byte	0x100
    2d2a:	0205                	.2byte	0x205
    2d2c:	0306                	.2byte	0x306
    2d2e:	0901                	.2byte	0x901
    2d30:	0008                	.2byte	0x8
    2d32:	0501                	.2byte	0x501
    2d34:	060a                	.2byte	0x60a
    2d36:	00090003          	lb	zero,0(s2)
    2d3a:	0100                	.2byte	0x100
    2d3c:	2b05                	.2byte	0x2b05
    2d3e:	0200                	.2byte	0x200
    2d40:	0104                	.2byte	0x104
    2d42:	0306                	.2byte	0x306
    2d44:	0900                	.2byte	0x900
    2d46:	0004                	.2byte	0x4
    2d48:	0501                	.2byte	0x501
    2d4a:	000a                	.2byte	0xa
    2d4c:	0402                	.2byte	0x402
    2d4e:	0601                	.2byte	0x601
    2d50:	00090003          	lb	zero,0(s2)
    2d54:	0100                	.2byte	0x100
    2d56:	2b05                	.2byte	0x2b05
    2d58:	0200                	.2byte	0x200
    2d5a:	0104                	.2byte	0x104
    2d5c:	04090003          	lb	zero,64(s2)
    2d60:	0100                	.2byte	0x100
    2d62:	0205                	.2byte	0x205
    2d64:	0306                	.2byte	0x306
    2d66:	0904                	.2byte	0x904
    2d68:	0004                	.2byte	0x4
    2d6a:	0501                	.2byte	0x501
    2d6c:	0672                	.2byte	0x672
    2d6e:	00090003          	lb	zero,0(s2)
    2d72:	0100                	.2byte	0x100
    2d74:	3905                	.2byte	0x3905
    2d76:	08090003          	lb	zero,128(s2)
    2d7a:	0100                	.2byte	0x100
    2d7c:	0205                	.2byte	0x205
    2d7e:	0306                	.2byte	0x306
    2d80:	0901                	.2byte	0x901
    2d82:	0004                	.2byte	0x4
    2d84:	0501                	.2byte	0x501
    2d86:	0670                	.2byte	0x670
    2d88:	00090003          	lb	zero,0(s2)
    2d8c:	0100                	.2byte	0x100
    2d8e:	3805                	.2byte	0x3805
    2d90:	08090003          	lb	zero,128(s2)
    2d94:	0100                	.2byte	0x100
    2d96:	0205                	.2byte	0x205
    2d98:	0306                	.2byte	0x306
    2d9a:	0901                	.2byte	0x901
    2d9c:	0004                	.2byte	0x4
    2d9e:	0501                	.2byte	0x501
    2da0:	0670                	.2byte	0x670
    2da2:	00090003          	lb	zero,0(s2)
    2da6:	0100                	.2byte	0x100
    2da8:	3805                	.2byte	0x3805
    2daa:	04090003          	lb	zero,64(s2)
    2dae:	0100                	.2byte	0x100
    2db0:	0205                	.2byte	0x205
    2db2:	0306                	.2byte	0x306
    2db4:	0901                	.2byte	0x901
    2db6:	0004                	.2byte	0x4
    2db8:	0501                	.2byte	0x501
    2dba:	0664                	.2byte	0x664
    2dbc:	00090003          	lb	zero,0(s2)
    2dc0:	0100                	.2byte	0x100
    2dc2:	3205                	.2byte	0x3205
    2dc4:	04090003          	lb	zero,64(s2)
    2dc8:	0100                	.2byte	0x100
    2dca:	0205                	.2byte	0x205
    2dcc:	0306                	.2byte	0x306
    2dce:	00040903          	lb	s2,0(s0)
    2dd2:	0501                	.2byte	0x501
    2dd4:	0624                	.2byte	0x624
    2dd6:	00090003          	lb	zero,0(s2)
    2dda:	0100                	.2byte	0x100
    2ddc:	0205                	.2byte	0x205
    2dde:	0306                	.2byte	0x306
    2de0:	00080903          	lb	s2,0(a6)
    2de4:	0501                	.2byte	0x501
    2de6:	0638                	.2byte	0x638
    2de8:	00090003          	lb	zero,0(s2)
    2dec:	0100                	.2byte	0x100
    2dee:	0205                	.2byte	0x205
    2df0:	0306                	.2byte	0x306
    2df2:	00040903          	lb	s2,0(s0)
    2df6:	0501                	.2byte	0x501
    2df8:	0670                	.2byte	0x670
    2dfa:	00090003          	lb	zero,0(s2)
    2dfe:	0100                	.2byte	0x100
    2e00:	3805                	.2byte	0x3805
    2e02:	04090003          	lb	zero,64(s2)
    2e06:	0100                	.2byte	0x100
    2e08:	0205                	.2byte	0x205
    2e0a:	0306                	.2byte	0x306
    2e0c:	091a                	.2byte	0x91a
    2e0e:	0004                	.2byte	0x4
    2e10:	0401                	.2byte	0x401
    2e12:	7ef90303          	lb	t1,2031(s2)
    2e16:	0009                	.2byte	0x9
    2e18:	0100                	.2byte	0x100
    2e1a:	00090103          	lb	sp,0(s2)
    2e1e:	0100                	.2byte	0x100
    2e20:	04090103          	lb	sp,64(s2)
    2e24:	0100                	.2byte	0x100
    2e26:	0204                	.2byte	0x204
    2e28:	09018603          	lb	a2,144(gp)
    2e2c:	0000                	.2byte	0x0
    2e2e:	0301                	.2byte	0x301
    2e30:	0901                	.2byte	0x901
    2e32:	0000                	.2byte	0x0
    2e34:	0401                	.2byte	0x401
    2e36:	7efe0303          	lb	t1,2031(t3)
    2e3a:	0009                	.2byte	0x9
    2e3c:	0100                	.2byte	0x100
    2e3e:	0204                	.2byte	0x204
    2e40:	09018403          	lb	s0,144(gp)
    2e44:	0008                	.2byte	0x8
    2e46:	0401                	.2byte	0x401
    2e48:	0304                	.2byte	0x304
    2e4a:	00090583          	lb	a1,0(s2)
    2e4e:	0100                	.2byte	0x100
    2e50:	0504                	.2byte	0x504
    2e52:	0979fc03          	.4byte	0x979fc03
    2e56:	0000                	.2byte	0x0
    2e58:	0501                	.2byte	0x501
    2e5a:	0620                	.2byte	0x620
    2e5c:	00090003          	lb	zero,0(s2)
    2e60:	0100                	.2byte	0x100
    2e62:	0204                	.2byte	0x204
    2e64:	0205                	.2byte	0x205
    2e66:	0306                	.2byte	0x306
    2e68:	0185                	.2byte	0x185
    2e6a:	0809                	.2byte	0x809
    2e6c:	0100                	.2byte	0x100
    2e6e:	0e05                	.2byte	0xe05
    2e70:	0306                	.2byte	0x306
    2e72:	0900                	.2byte	0x900
    2e74:	0000                	.2byte	0x0
    2e76:	0501                	.2byte	0x501
    2e78:	0602                	.2byte	0x602
    2e7a:	08090103          	lb	sp,128(s2)
    2e7e:	0100                	.2byte	0x100
    2e80:	0705                	.2byte	0x705
    2e82:	00090003          	lb	zero,0(s2)
    2e86:	0100                	.2byte	0x100
    2e88:	1405                	.2byte	0x1405
    2e8a:	00090003          	lb	zero,0(s2)
    2e8e:	0100                	.2byte	0x100
    2e90:	2505                	.2byte	0x2505
    2e92:	0306                	.2byte	0x306
    2e94:	0901                	.2byte	0x901
    2e96:	0004                	.2byte	0x4
    2e98:	0501                	.2byte	0x501
    2e9a:	04020003          	lb	zero,64(tp) # 40 <__DYNAMIC+0x40>
    2e9e:	00030603          	lb	a2,0(t1)
    2ea2:	0409                	.2byte	0x409
    2ea4:	0100                	.2byte	0x100
    2ea6:	3305                	.2byte	0x3305
    2ea8:	0200                	.2byte	0x200
    2eaa:	0304                	.2byte	0x304
    2eac:	0306                	.2byte	0x306
    2eae:	0900                	.2byte	0x900
    2eb0:	0000                	.2byte	0x0
    2eb2:	0501                	.2byte	0x501
    2eb4:	0014                	.2byte	0x14
    2eb6:	0402                	.2byte	0x402
    2eb8:	097f0303          	lb	t1,151(t5)
    2ebc:	0004                	.2byte	0x4
    2ebe:	0501                	.2byte	0x501
    2ec0:	04020033          	.4byte	0x4020033
    2ec4:	09010303          	lb	t1,144(sp)
    2ec8:	0004                	.2byte	0x4
    2eca:	0501                	.2byte	0x501
    2ecc:	0025                	.2byte	0x25
    2ece:	0402                	.2byte	0x402
    2ed0:	09000303          	lb	t1,144(zero) # 90 <__DYNAMIC+0x90>
    2ed4:	0004                	.2byte	0x4
    2ed6:	0501                	.2byte	0x501
    2ed8:	0402001b          	.4byte	0x402001b
    2edc:	7f030603          	lb	a2,2032(t1)
    2ee0:	0409                	.2byte	0x409
    2ee2:	0100                	.2byte	0x100
    2ee4:	1405                	.2byte	0x1405
    2ee6:	0200                	.2byte	0x200
    2ee8:	0304                	.2byte	0x304
    2eea:	00090003          	lb	zero,0(s2)
    2eee:	0100                	.2byte	0x100
    2ef0:	0205                	.2byte	0x205
    2ef2:	04090303          	lb	t1,64(s2)
    2ef6:	0100                	.2byte	0x100
    2ef8:	2405                	.2byte	0x2405
    2efa:	0306                	.2byte	0x306
    2efc:	0900                	.2byte	0x900
    2efe:	0000                	.2byte	0x0
    2f00:	0501                	.2byte	0x501
    2f02:	0602                	.2byte	0x602
    2f04:	08090203          	lb	tp,128(s2)
    2f08:	0100                	.2byte	0x100
    2f0a:	0e05                	.2byte	0xe05
    2f0c:	0306                	.2byte	0x306
    2f0e:	0900                	.2byte	0x900
    2f10:	0000                	.2byte	0x0
    2f12:	0501                	.2byte	0x501
    2f14:	0602                	.2byte	0x602
    2f16:	08090103          	lb	sp,128(s2)
    2f1a:	0100                	.2byte	0x100
    2f1c:	2c05                	.2byte	0x2c05
    2f1e:	0306                	.2byte	0x306
    2f20:	0900                	.2byte	0x900
    2f22:	0000                	.2byte	0x0
    2f24:	0501                	.2byte	0x501
    2f26:	0330                	.2byte	0x330
    2f28:	0901                	.2byte	0x901
    2f2a:	0004                	.2byte	0x4
    2f2c:	0301                	.2byte	0x301
    2f2e:	0901                	.2byte	0x901
    2f30:	0004                	.2byte	0x4
    2f32:	0301                	.2byte	0x301
    2f34:	0901                	.2byte	0x901
    2f36:	0004                	.2byte	0x4
    2f38:	0501                	.2byte	0x501
    2f3a:	032c                	.2byte	0x32c
    2f3c:	097d                	.2byte	0x97d
    2f3e:	0004                	.2byte	0x4
    2f40:	0501                	.2byte	0x501
    2f42:	0324                	.2byte	0x324
    2f44:	0900                	.2byte	0x900
    2f46:	0004                	.2byte	0x4
    2f48:	0501                	.2byte	0x501
    2f4a:	0602                	.2byte	0x602
    2f4c:	04090103          	lb	sp,64(s2)
    2f50:	0100                	.2byte	0x100
    2f52:	3005                	.2byte	0x3005
    2f54:	0306                	.2byte	0x306
    2f56:	0900                	.2byte	0x900
    2f58:	0000                	.2byte	0x0
    2f5a:	0301                	.2byte	0x301
    2f5c:	00040903          	lb	s2,0(s0)
    2f60:	0301                	.2byte	0x301
    2f62:	097e                	.2byte	0x97e
    2f64:	0004                	.2byte	0x4
    2f66:	0501                	.2byte	0x501
    2f68:	0324                	.2byte	0x324
    2f6a:	097f                	.2byte	0x97f
    2f6c:	0004                	.2byte	0x4
    2f6e:	0501                	.2byte	0x501
    2f70:	0602                	.2byte	0x602
    2f72:	04090103          	lb	sp,64(s2)
    2f76:	0100                	.2byte	0x100
    2f78:	3005                	.2byte	0x3005
    2f7a:	0306                	.2byte	0x306
    2f7c:	00000903          	lb	s2,0(zero) # 0 <__DYNAMIC>
    2f80:	0301                	.2byte	0x301
    2f82:	097e                	.2byte	0x97e
    2f84:	0004                	.2byte	0x4
    2f86:	0501                	.2byte	0x501
    2f88:	0324                	.2byte	0x324
    2f8a:	097f                	.2byte	0x97f
    2f8c:	0004                	.2byte	0x4
    2f8e:	0501                	.2byte	0x501
    2f90:	0602                	.2byte	0x602
    2f92:	04090103          	lb	sp,64(s2)
    2f96:	0100                	.2byte	0x100
    2f98:	3005                	.2byte	0x3005
    2f9a:	0306                	.2byte	0x306
    2f9c:	00000903          	lb	s2,0(zero) # 0 <__DYNAMIC>
    2fa0:	0301                	.2byte	0x301
    2fa2:	097e                	.2byte	0x97e
    2fa4:	0004                	.2byte	0x4
    2fa6:	0501                	.2byte	0x501
    2fa8:	0324                	.2byte	0x324
    2faa:	097f                	.2byte	0x97f
    2fac:	0004                	.2byte	0x4
    2fae:	0501                	.2byte	0x501
    2fb0:	0602                	.2byte	0x602
    2fb2:	04090103          	lb	sp,64(s2)
    2fb6:	0100                	.2byte	0x100
    2fb8:	3005                	.2byte	0x3005
    2fba:	0306                	.2byte	0x306
    2fbc:	00000903          	lb	s2,0(zero) # 0 <__DYNAMIC>
    2fc0:	0301                	.2byte	0x301
    2fc2:	097e                	.2byte	0x97e
    2fc4:	0004                	.2byte	0x4
    2fc6:	0501                	.2byte	0x501
    2fc8:	0324                	.2byte	0x324
    2fca:	097f                	.2byte	0x97f
    2fcc:	0004                	.2byte	0x4
    2fce:	0501                	.2byte	0x501
    2fd0:	0602                	.2byte	0x602
    2fd2:	04090103          	lb	sp,64(s2)
    2fd6:	0100                	.2byte	0x100
    2fd8:	3005                	.2byte	0x3005
    2fda:	0306                	.2byte	0x306
    2fdc:	00000903          	lb	s2,0(zero) # 0 <__DYNAMIC>
    2fe0:	0301                	.2byte	0x301
    2fe2:	097e                	.2byte	0x97e
    2fe4:	0004                	.2byte	0x4
    2fe6:	0501                	.2byte	0x501
    2fe8:	0324                	.2byte	0x324
    2fea:	097f                	.2byte	0x97f
    2fec:	0004                	.2byte	0x4
    2fee:	0501                	.2byte	0x501
    2ff0:	0602                	.2byte	0x602
    2ff2:	04090103          	lb	sp,64(s2)
    2ff6:	0100                	.2byte	0x100
    2ff8:	3005                	.2byte	0x3005
    2ffa:	0306                	.2byte	0x306
    2ffc:	00000903          	lb	s2,0(zero) # 0 <__DYNAMIC>
    3000:	0301                	.2byte	0x301
    3002:	097e                	.2byte	0x97e
    3004:	0004                	.2byte	0x4
    3006:	0501                	.2byte	0x501
    3008:	0324                	.2byte	0x324
    300a:	097f                	.2byte	0x97f
    300c:	0004                	.2byte	0x4
    300e:	0501                	.2byte	0x501
    3010:	0602                	.2byte	0x602
    3012:	04090103          	lb	sp,64(s2)
    3016:	0100                	.2byte	0x100
    3018:	2405                	.2byte	0x2405
    301a:	0306                	.2byte	0x306
    301c:	0900                	.2byte	0x900
    301e:	0000                	.2byte	0x0
    3020:	0501                	.2byte	0x501
    3022:	0602                	.2byte	0x602
    3024:	04090103          	lb	sp,64(s2)
    3028:	0100                	.2byte	0x100
    302a:	3005                	.2byte	0x3005
    302c:	0306                	.2byte	0x306
    302e:	0900                	.2byte	0x900
    3030:	0000                	.2byte	0x0
    3032:	0501                	.2byte	0x501
    3034:	0324                	.2byte	0x324
    3036:	0900                	.2byte	0x900
    3038:	0004                	.2byte	0x4
    303a:	0501                	.2byte	0x501
    303c:	0602                	.2byte	0x602
    303e:	04090103          	lb	sp,64(s2)
    3042:	0100                	.2byte	0x100
    3044:	3005                	.2byte	0x3005
    3046:	0306                	.2byte	0x306
    3048:	0900                	.2byte	0x900
    304a:	0000                	.2byte	0x0
    304c:	0501                	.2byte	0x501
    304e:	0324                	.2byte	0x324
    3050:	0900                	.2byte	0x900
    3052:	0004                	.2byte	0x4
    3054:	0501                	.2byte	0x501
    3056:	0602                	.2byte	0x602
    3058:	04090103          	lb	sp,64(s2)
    305c:	0100                	.2byte	0x100
    305e:	2405                	.2byte	0x2405
    3060:	0306                	.2byte	0x306
    3062:	0900                	.2byte	0x900
    3064:	0000                	.2byte	0x0
    3066:	0501                	.2byte	0x501
    3068:	0602                	.2byte	0x602
    306a:	08090303          	lb	t1,128(s2)
    306e:	0100                	.2byte	0x100
    3070:	0e05                	.2byte	0xe05
    3072:	0306                	.2byte	0x306
    3074:	0900                	.2byte	0x900
    3076:	0000                	.2byte	0x0
    3078:	0501                	.2byte	0x501
    307a:	0602                	.2byte	0x602
    307c:	08090103          	lb	sp,128(s2)
    3080:	0100                	.2byte	0x100
    3082:	2c05                	.2byte	0x2c05
    3084:	0306                	.2byte	0x306
    3086:	0900                	.2byte	0x900
    3088:	0000                	.2byte	0x0
    308a:	0501                	.2byte	0x501
    308c:	0330                	.2byte	0x330
    308e:	0901                	.2byte	0x901
    3090:	0004                	.2byte	0x4
    3092:	0301                	.2byte	0x301
    3094:	0901                	.2byte	0x901
    3096:	0004                	.2byte	0x4
    3098:	0301                	.2byte	0x301
    309a:	0901                	.2byte	0x901
    309c:	0004                	.2byte	0x4
    309e:	0501                	.2byte	0x501
    30a0:	032c                	.2byte	0x32c
    30a2:	097d                	.2byte	0x97d
    30a4:	0004                	.2byte	0x4
    30a6:	0501                	.2byte	0x501
    30a8:	0324                	.2byte	0x324
    30aa:	0900                	.2byte	0x900
    30ac:	0004                	.2byte	0x4
    30ae:	0501                	.2byte	0x501
    30b0:	0602                	.2byte	0x602
    30b2:	04090103          	lb	sp,64(s2)
    30b6:	0100                	.2byte	0x100
    30b8:	3005                	.2byte	0x3005
    30ba:	0306                	.2byte	0x306
    30bc:	0900                	.2byte	0x900
    30be:	0000                	.2byte	0x0
    30c0:	0301                	.2byte	0x301
    30c2:	00040903          	lb	s2,0(s0)
    30c6:	0301                	.2byte	0x301
    30c8:	097e                	.2byte	0x97e
    30ca:	0004                	.2byte	0x4
    30cc:	0501                	.2byte	0x501
    30ce:	0324                	.2byte	0x324
    30d0:	097f                	.2byte	0x97f
    30d2:	0004                	.2byte	0x4
    30d4:	0501                	.2byte	0x501
    30d6:	0602                	.2byte	0x602
    30d8:	04090103          	lb	sp,64(s2)
    30dc:	0100                	.2byte	0x100
    30de:	2405                	.2byte	0x2405
    30e0:	0306                	.2byte	0x306
    30e2:	0900                	.2byte	0x900
    30e4:	0000                	.2byte	0x0
    30e6:	0501                	.2byte	0x501
    30e8:	0602                	.2byte	0x602
    30ea:	04090103          	lb	sp,64(s2)
    30ee:	0100                	.2byte	0x100
    30f0:	3005                	.2byte	0x3005
    30f2:	0306                	.2byte	0x306
    30f4:	0900                	.2byte	0x900
    30f6:	0000                	.2byte	0x0
    30f8:	0501                	.2byte	0x501
    30fa:	0324                	.2byte	0x324
    30fc:	0900                	.2byte	0x900
    30fe:	0004                	.2byte	0x4
    3100:	0501                	.2byte	0x501
    3102:	0602                	.2byte	0x602
    3104:	04090103          	lb	sp,64(s2)
    3108:	0100                	.2byte	0x100
    310a:	3005                	.2byte	0x3005
    310c:	0306                	.2byte	0x306
    310e:	0900                	.2byte	0x900
    3110:	0000                	.2byte	0x0
    3112:	0501                	.2byte	0x501
    3114:	0324                	.2byte	0x324
    3116:	0900                	.2byte	0x900
    3118:	0004                	.2byte	0x4
    311a:	0501                	.2byte	0x501
    311c:	0602                	.2byte	0x602
    311e:	04090103          	lb	sp,64(s2)
    3122:	0100                	.2byte	0x100
    3124:	2405                	.2byte	0x2405
    3126:	0306                	.2byte	0x306
    3128:	0900                	.2byte	0x900
    312a:	0000                	.2byte	0x0
    312c:	0501                	.2byte	0x501
    312e:	0301                	.2byte	0x301
    3130:	0902                	.2byte	0x902
    3132:	0004                	.2byte	0x4
    3134:	0501                	.2byte	0x501
    3136:	0324                	.2byte	0x324
    3138:	097e                	.2byte	0x97e
    313a:	0004                	.2byte	0x4
    313c:	0501                	.2byte	0x501
    313e:	0301                	.2byte	0x301
    3140:	0902                	.2byte	0x902
    3142:	0004                	.2byte	0x4
    3144:	0901                	.2byte	0x901
    3146:	000c                	.2byte	0xc
    3148:	0100                	.2byte	0x100
    314a:	7601                	.2byte	0x7601
    314c:	0000                	.2byte	0x0
    314e:	0500                	.2byte	0x500
    3150:	0400                	.2byte	0x400
    3152:	2e00                	.2byte	0x2e00
    3154:	0000                	.2byte	0x0
    3156:	0100                	.2byte	0x100
    3158:	0101                	.2byte	0x101
    315a:	000d0efb          	.4byte	0xd0efb
    315e:	0101                	.2byte	0x101
    3160:	0101                	.2byte	0x101
    3162:	0000                	.2byte	0x0
    3164:	0100                	.2byte	0x100
    3166:	0000                	.2byte	0x0
    3168:	0101                	.2byte	0x101
    316a:	1f01                	.2byte	0x1f01
    316c:	fb02                	.2byte	0xfb02
    316e:	0000                	.2byte	0x0
    3170:	4e00                	.2byte	0x4e00
    3172:	0001                	.2byte	0x1
    3174:	0200                	.2byte	0x200
    3176:	1f01                	.2byte	0x1f01
    3178:	0f02                	.2byte	0xf02
    317a:	8602                	.2byte	0x8602
    317c:	0001                	.2byte	0x1
    317e:	0100                	.2byte	0x100
    3180:	0186                	.2byte	0x186
    3182:	0000                	.2byte	0x0
    3184:	0001                	.2byte	0x1
    3186:	0205                	.2byte	0x205
    3188:	0000                	.2byte	0x0
    318a:	3800                	.2byte	0x3800
    318c:	03012403          	lw	s0,48(sp)
    3190:	0901                	.2byte	0x901
    3192:	0004                	.2byte	0x4
    3194:	0301                	.2byte	0x301
    3196:	0902                	.2byte	0x902
    3198:	0004                	.2byte	0x4
    319a:	0301                	.2byte	0x301
    319c:	0901                	.2byte	0x901
    319e:	0004                	.2byte	0x4
    31a0:	0301                	.2byte	0x301
    31a2:	0901                	.2byte	0x901
    31a4:	0004                	.2byte	0x4
    31a6:	0301                	.2byte	0x301
    31a8:	0902                	.2byte	0x902
    31aa:	0004                	.2byte	0x4
    31ac:	0301                	.2byte	0x301
    31ae:	0901                	.2byte	0x901
    31b0:	0004                	.2byte	0x4
    31b2:	0301                	.2byte	0x301
    31b4:	0901                	.2byte	0x901
    31b6:	0004                	.2byte	0x4
    31b8:	0301                	.2byte	0x301
    31ba:	0901                	.2byte	0x901
    31bc:	0004                	.2byte	0x4
    31be:	0901                	.2byte	0x901
    31c0:	0004                	.2byte	0x4
    31c2:	0100                	.2byte	0x100
    31c4:	01              	Address 0x00000000000031c4 is out of bounds.


Disassembly of section .debug_line_str:

00000000 <.debug_line_str>:
   0:	6d6f682f          	.4byte	0x6d6f682f
   4:	2f65                	.2byte	0x2f65
   6:	6275                	.2byte	0x6275
   8:	6e75                	.2byte	0x6e75
   a:	7574                	.2byte	0x7574
   c:	6e69662f          	.4byte	0x6e69662f
  10:	6c61                	.2byte	0x6c61
  12:	705f 6f72 656a      	.byte	0x5f, 0x70, 0x72, 0x6f, 0x6a, 0x65
  18:	6c2f7463          	bgeu	t5,sp,6e0 <_fstack+0xe0>
  1c:	6261                	.2byte	0x6261
  1e:	772d                	.2byte	0x772d
  20:	6f6c                	.2byte	0x6f6c
  22:	61625f73          	csrrwi	t5,0x616,4
  26:	696c6573          	csrrsi	a0,0x696,24
  2a:	656e                	.2byte	0x656e
  2c:	7365742f          	.4byte	0x7365742f
  30:	6274                	.2byte	0x6274
  32:	6e65                	.2byte	0x6e65
  34:	742f6863          	bltu	t5,sp,784 <_fstack+0x184>
  38:	2e00706f          	j	7318 <_fstack+0x6d18>
  3c:	2f2e                	.2byte	0x2f2e
  3e:	2e2e                	.2byte	0x2e2e
  40:	7269662f          	.4byte	0x7269662f
  44:	776d                	.2byte	0x776d
  46:	7261                	.2byte	0x7261
  48:	0065                	.2byte	0x65
  4a:	30747263          	bgeu	s0,t2,34e <__DYNAMIC+0x34e>
  4e:	765f 7865 532e      	.byte	0x5f, 0x76, 0x65, 0x78, 0x2e, 0x53
  54:	2e00                	.2byte	0x2e00
  56:	2f2e                	.2byte	0x2f2e
  58:	2e2e                	.2byte	0x2e2e
  5a:	7269662f          	.4byte	0x7269662f
  5e:	776d                	.2byte	0x776d
  60:	7261                	.2byte	0x7261
  62:	2f65                	.2byte	0x2f65
  64:	7369                	.2byte	0x7369
  66:	2e72                	.2byte	0x2e72
  68:	2e2e0063          	beq	t3,sp,348 <__DYNAMIC+0x348>
  6c:	2f2e2e2f          	.4byte	0x2f2e2e2f
  70:	6966                	.2byte	0x6966
  72:	6d72                	.2byte	0x6d72
  74:	65726177          	.4byte	0x65726177
  78:	0077682f          	.4byte	0x77682f
  7c:	74706f2f          	.4byte	0x74706f2f
  80:	7369722f          	.4byte	0x7369722f
  84:	6c2f7663          	bgeu	t5,sp,750 <_fstack+0x150>
  88:	6269                	.2byte	0x6269
  8a:	6363672f          	.4byte	0x6363672f
  8e:	7369722f          	.4byte	0x7369722f
  92:	32337663          	bgeu	t1,gp,3be <__DYNAMIC+0x3be>
  96:	752d                	.2byte	0x752d
  98:	6b6e                	.2byte	0x6b6e
  9a:	6f6e                	.2byte	0x6f6e
  9c:	652d6e77          	.4byte	0x652d6e77
  a0:	666c                	.2byte	0x666c
  a2:	2e32312f          	.4byte	0x2e32312f
  a6:	2e31                	.2byte	0x2e31
  a8:	2f30                	.2byte	0x2f30
  aa:	6e69                	.2byte	0x6e69
  ac:	64756c63          	bltu	a0,t2,704 <_fstack+0x104>
  b0:	0065                	.2byte	0x65
  b2:	7269                	.2byte	0x7269
  b4:	5f71                	.2byte	0x5f71
  b6:	6576                	.2byte	0x6576
  b8:	2e78                	.2byte	0x2e78
  ba:	0068                	.2byte	0x68
  bc:	2e727363          	bgeu	tp,t2,3a2 <__DYNAMIC+0x3a2>
  c0:	0068                	.2byte	0x68
  c2:	6d6d6f63          	bltu	s10,s6,7a0 <_fstack+0x1a0>
  c6:	682e6e6f          	jal	t3,e6748 <_fstack+0xe6148>
  ca:	7300                	.2byte	0x7300
  cc:	6474                	.2byte	0x6474
  ce:	6e69                	.2byte	0x6e69
  d0:	2d74                	.2byte	0x2d74
  d2:	2e636367          	.4byte	0x2e636367
  d6:	0068                	.2byte	0x68
  d8:	7566                	.2byte	0x7566
  da:	636e                	.2byte	0x636e
  dc:	6974                	.2byte	0x6974
  de:	632e6e6f          	jal	t3,e6710 <_fstack+0xe6110>
  e2:	6600                	.2byte	0x6600
  e4:	6e75                	.2byte	0x6e75
  e6:	6f697463          	bgeu	s2,s6,7ce <_fstack+0x1ce>
  ea:	2e6e                	.2byte	0x2e6e
  ec:	0068                	.2byte	0x68
  ee:	6f74                	.2byte	0x6f74
  f0:	2e70                	.2byte	0x2e70
  f2:	74730063          	beq	t1,t2,832 <_fstack+0x232>
  f6:	6275                	.2byte	0x6275
  f8:	632e                	.2byte	0x632e
  fa:	2f00                	.2byte	0x2f00
  fc:	6d74                	.2byte	0x6d74
  fe:	2f70                	.2byte	0x2f70
 100:	7672                	.2byte	0x7672
 102:	675f 6363 722f      	.byte	0x5f, 0x67, 0x63, 0x63, 0x2f, 0x72
 108:	7369                	.2byte	0x7369
 10a:	672d7663          	bgeu	s10,s2,776 <_fstack+0x176>
 10e:	756e                	.2byte	0x756e
 110:	742d                	.2byte	0x742d
 112:	636c6f6f          	jal	t5,c6748 <_fstack+0xc6148>
 116:	6168                	.2byte	0x6168
 118:	6e69                	.2byte	0x6e69
 11a:	6975622f          	.4byte	0x6975622f
 11e:	646c                	.2byte	0x646c
 120:	672d                	.2byte	0x672d
 122:	6e2d6363          	bltu	s10,sp,808 <_fstack+0x208>
 126:	7765                	.2byte	0x7765
 128:	696c                	.2byte	0x696c
 12a:	2d62                	.2byte	0x2d62
 12c:	67617473          	csrrci	s0,0x676,2
 130:	3265                	.2byte	0x3265
 132:	7369722f          	.4byte	0x7369722f
 136:	32337663          	bgeu	t1,gp,462 <__DYNAMIC+0x462>
 13a:	752d                	.2byte	0x752d
 13c:	6b6e                	.2byte	0x6b6e
 13e:	6f6e                	.2byte	0x6f6e
 140:	652d6e77          	.4byte	0x652d6e77
 144:	666c                	.2byte	0x666c
 146:	62696c2f          	.4byte	0x62696c2f
 14a:	00636367          	.4byte	0x636367
 14e:	706d742f          	.4byte	0x706d742f
 152:	5f76722f          	.4byte	0x5f76722f
 156:	2f636367          	.4byte	0x2f636367
 15a:	6972                	.2byte	0x6972
 15c:	2d766373          	csrrsi	t1,0x2d7,12
 160:	2d756e67          	.4byte	0x2d756e67
 164:	6f74                	.2byte	0x6f74
 166:	68636c6f          	jal	s8,367ec <_fstack+0x361ec>
 16a:	6961                	.2byte	0x6961
 16c:	2f6e                	.2byte	0x2f6e
 16e:	2f636367          	.4byte	0x2f636367
 172:	696c                	.2byte	0x696c
 174:	6762                	.2byte	0x6762
 176:	632f6363          	bltu	t5,s2,79c <_fstack+0x19c>
 17a:	69666e6f          	jal	t3,66810 <_fstack+0x66210>
 17e:	69722f67          	.4byte	0x69722f67
 182:	00766373          	csrrsi	t1,0x7,12
 186:	756d                	.2byte	0x756d
 188:	646c                	.2byte	0x646c
 18a:	3369                	.2byte	0x3369
 18c:	532e                	.2byte	0x532e
	...

Disassembly of section .debug_info:

00000000 <.debug_info>:
   0:	0021                	.2byte	0x21
   2:	0000                	.2byte	0x0
   4:	0005                	.2byte	0x5
   6:	0401                	.2byte	0x401
   8:	0000                	.2byte	0x0
   a:	0000                	.2byte	0x0
   c:	0001                	.2byte	0x1
   e:	0000                	.2byte	0x0
  10:	0000                	.2byte	0x0
  12:	0000                	.2byte	0x0
  14:	e410                	.2byte	0xe410
  16:	0002                	.2byte	0x2
  18:	0000                	.2byte	0x0
  1a:	1a00                	.2byte	0x1a00
  1c:	0000                	.2byte	0x0
  1e:	5500                	.2byte	0x5500
  20:	0000                	.2byte	0x0
  22:	0100                	.2byte	0x100
  24:	c880                	.2byte	0xc880
  26:	0001                	.2byte	0x1
  28:	0500                	.2byte	0x500
  2a:	0100                	.2byte	0x100
  2c:	1404                	.2byte	0x1404
  2e:	0000                	.2byte	0x0
  30:	0a00                	.2byte	0xa00
  32:	00d8                	.2byte	0xd8
  34:	0000                	.2byte	0x0
  36:	551d                	.2byte	0x551d
  38:	0000                	.2byte	0x0
  3a:	0000                	.2byte	0x0
  3c:	0000                	.2byte	0x0
  3e:	5800                	.2byte	0x5800
  40:	0001                	.2byte	0x1
  42:	3c10                	.2byte	0x3c10
  44:	0000                	.2byte	0x0
  46:	0a00                	.2byte	0xa00
  48:	0002                	.2byte	0x2
  4a:	0100                	.2byte	0x100
  4c:	0601                	.2byte	0x601
  4e:	00ad                	.2byte	0xad
  50:	0000                	.2byte	0x0
  52:	0201                	.2byte	0x201
  54:	5d05                	.2byte	0x5d05
  56:	0001                	.2byte	0x1
  58:	0100                	.2byte	0x100
  5a:	0504                	.2byte	0x504
  5c:	0000014f          	.4byte	0x14f
  60:	0801                	.2byte	0x801
  62:	4a05                	.2byte	0x4a05
  64:	0001                	.2byte	0x1
  66:	0100                	.2byte	0x100
  68:	0801                	.2byte	0x801
  6a:	000000ab          	.4byte	0xab
  6e:	0201                	.2byte	0x201
  70:	0000b907          	.4byte	0xb907
  74:	0b00                	.2byte	0xb00
  76:	00000167          	jalr	sp,zero # 0 <__DYNAMIC>
  7a:	3405                	.2byte	0x3405
  7c:	00005c1b          	.4byte	0x5c1b
  80:	0100                	.2byte	0x100
  82:	0704                	.2byte	0x704
  84:	0138                	.2byte	0x138
  86:	0000                	.2byte	0x0
  88:	0801                	.2byte	0x801
  8a:	00013307          	.4byte	0x13307
  8e:	0c00                	.2byte	0xc00
  90:	0504                	.2byte	0x504
  92:	6e69                	.2byte	0x6e69
  94:	0074                	.2byte	0x74
  96:	0401                	.2byte	0x401
  98:	00013d07          	.4byte	0x13d07
  9c:	0d00                	.2byte	0xd00
  9e:	000000a3          	sb	zero,1(zero) # 1 <__DYNAMIC+0x1>
  a2:	1401                	.2byte	0x1401
  a4:	500a                	.2byte	0x500a
  a6:	0000                	.2byte	0x0
  a8:	0500                	.2byte	0x500
  aa:	0011a803          	lw	a6,1(gp)
  ae:	0338                	.2byte	0x338
  b0:	007d                	.2byte	0x7d
  b2:	0000                	.2byte	0x0
  b4:	6a0d                	.2byte	0x6a0d
  b6:	0000                	.2byte	0x0
  b8:	9a00                	.2byte	0x9a00
  ba:	0000                	.2byte	0x0
  bc:	0400                	.2byte	0x400
  be:	0300                	.2byte	0x300
  c0:	0099                	.2byte	0x99
  c2:	0000                	.2byte	0x0
  c4:	6a0a                	.2byte	0x6a0a
  c6:	0000                	.2byte	0x0
  c8:	aa00                	.2byte	0xaa00
  ca:	0000                	.2byte	0x0
  cc:	0400                	.2byte	0x400
  ce:	0e00                	.2byte	0xe00
  d0:	7369                	.2byte	0x7369
  d2:	0072                	.2byte	0x72
  d4:	1701                	.2byte	0x1701
  d6:	5806                	.2byte	0x5806
  d8:	0001                	.2byte	0x1
  da:	3c10                	.2byte	0x3c10
  dc:	0000                	.2byte	0x0
  de:	0100                	.2byte	0x100
  e0:	659c                	.2byte	0x659c
  e2:	0001                	.2byte	0x1
  e4:	0f00                	.2byte	0xf00
  e6:	0158                	.2byte	0x158
  e8:	0000                	.2byte	0x0
  ea:	2001                	.2byte	0x2001
  ec:	500e                	.2byte	0x500e
  ee:	0000                	.2byte	0x0
  f0:	0c00                	.2byte	0xc00
  f2:	0000                	.2byte	0x0
  f4:	1000                	.2byte	0x1000
  f6:	7562                	.2byte	0x7562
  f8:	0066                	.2byte	0x66
  fa:	2101                	.2byte	0x2101
  fc:	6a09                	.2byte	0x6a09
  fe:	0000                	.2byte	0x0
 100:	2800                	.2byte	0x2800
 102:	0000                	.2byte	0x0
 104:	0500                	.2byte	0x500
 106:	0165                	.2byte	0x165
 108:	0000                	.2byte	0x0
 10a:	0158                	.2byte	0x158
 10c:	1000                	.2byte	0x1000
 10e:	0004                	.2byte	0x4
 110:	0000                	.2byte	0x0
 112:	f815                	.2byte	0xf815
 114:	0000                	.2byte	0x0
 116:	0600                	.2byte	0x600
 118:	00000173          	.4byte	0x173
 11c:	0500                	.2byte	0x500
 11e:	017e                	.2byte	0x17e
 120:	0000                	.2byte	0x0
 122:	015c                	.2byte	0x15c
 124:	1000                	.2byte	0x1000
 126:	0004                	.2byte	0x4
 128:	0000                	.2byte	0x0
 12a:	1025                	.2byte	0x1025
 12c:	0001                	.2byte	0x1
 12e:	0600                	.2byte	0x600
 130:	018c                	.2byte	0x18c
 132:	0000                	.2byte	0x0
 134:	1100                	.2byte	0x1100
 136:	00000197          	auipc	gp,0x0
 13a:	0170                	.2byte	0x170
 13c:	1000                	.2byte	0x1000
 13e:	000c                	.2byte	0xc
 140:	0000                	.2byte	0x0
 142:	2401                	.2byte	0x2401
 144:	5209                	.2byte	0x5209
 146:	0001                	.2byte	0x1
 148:	0200                	.2byte	0x200
 14a:	01a5                	.2byte	0x1a5
 14c:	0000                	.2byte	0x0
 14e:	0034                	.2byte	0x34
 150:	0000                	.2byte	0x0
 152:	b112                	.2byte	0xb112
 154:	0001                	.2byte	0x1
 156:	7000                	.2byte	0x7000
 158:	0001                	.2byte	0x1
 15a:	0c10                	.2byte	0xc10
 15c:	0000                	.2byte	0x0
 15e:	0300                	.2byte	0x300
 160:	0202030b          	.4byte	0x202030b
 164:	01c2                	.2byte	0x1c2
 166:	0000                	.2byte	0x0
 168:	0041                	.2byte	0x41
 16a:	0000                	.2byte	0x0
 16c:	ba02                	.2byte	0xba02
 16e:	0001                	.2byte	0x1
 170:	3400                	.2byte	0x3400
 172:	0000                	.2byte	0x0
 174:	0000                	.2byte	0x0
 176:	1300                	.2byte	0x1300
 178:	0188                	.2byte	0x188
 17a:	1000                	.2byte	0x1000
 17c:	009a                	.2byte	0x9a
 17e:	0000                	.2byte	0x0
 180:	9414                	.2byte	0x9414
 182:	0001                	.2byte	0x1
 184:	8a10                	.2byte	0x8a10
 186:	0000                	.2byte	0x0
 188:	0000                	.2byte	0x0
 18a:	00017007          	.4byte	0x17007
 18e:	2200                	.2byte	0x2200
 190:	0071                	.2byte	0x71
 192:	0000                	.2byte	0x0
 194:	017e                	.2byte	0x17e
 196:	0000                	.2byte	0x0
 198:	7408                	.2byte	0x7408
 19a:	0001                	.2byte	0x1
 19c:	2400                	.2byte	0x2400
 19e:	0071                	.2byte	0x71
 1a0:	0000                	.2byte	0x0
 1a2:	0700                	.2byte	0x700
 1a4:	00cc                	.2byte	0xcc
 1a6:	0000                	.2byte	0x0
 1a8:	7116                	.2byte	0x7116
 1aa:	0000                	.2byte	0x0
 1ac:	9700                	.2byte	0x9700
 1ae:	0001                	.2byte	0x1
 1b0:	0800                	.2byte	0x800
 1b2:	000000d3          	.4byte	0xd3
 1b6:	7118                	.2byte	0x7118
 1b8:	0000                	.2byte	0x0
 1ba:	0000                	.2byte	0x0
 1bc:	6115                	.2byte	0x6115
 1be:	0000                	.2byte	0x0
 1c0:	0300                	.2byte	0x300
 1c2:	030a                	.2byte	0x30a
 1c4:	0314                	.2byte	0x314
 1c6:	01b1                	.2byte	0x1b1
 1c8:	0000                	.2byte	0x0
 1ca:	7616                	.2byte	0x7616
 1cc:	0300                	.2byte	0x300
 1ce:	030a                	.2byte	0x30a
 1d0:	5039                	.2byte	0x5039
 1d2:	0000                	.2byte	0x0
 1d4:	0000                	.2byte	0x0
 1d6:	00008817          	auipc	a6,0x8
 1da:	0400                	.2byte	0x400
 1dc:	1420                	.2byte	0x1420
 1de:	00760903          	lb	s2,7(a2)
 1e2:	00005c33          	srl	s8,zero,zero
 1e6:	0900                	.2byte	0x900
 1e8:	0061                	.2byte	0x61
 1ea:	5c44                	.2byte	0x5c44
 1ec:	0000                	.2byte	0x0
 1ee:	0000                	.2byte	0x0
 1f0:	6e00                	.2byte	0x6e00
 1f2:	05000007          	.4byte	0x5000007
 1f6:	0100                	.2byte	0x100
 1f8:	8404                	.2byte	0x8404
 1fa:	0001                	.2byte	0x1
 1fc:	1b00                	.2byte	0x1b00
 1fe:	00d8                	.2byte	0xd8
 200:	0000                	.2byte	0x0
 202:	d81d                	.2byte	0xd81d
 204:	0000                	.2byte	0x0
 206:	0000                	.2byte	0x0
 208:	0000                	.2byte	0x0
 20a:	2500                	.2byte	0x2500
 20c:	0001                	.2byte	0x1
 20e:	0000                	.2byte	0x0
 210:	0000                	.2byte	0x0
 212:	2b00                	.2byte	0x2b00
 214:	04000003          	lb	zero,64(zero) # 40 <__DYNAMIC+0x40>
 218:	0601                	.2byte	0x601
 21a:	00ad                	.2byte	0xad
 21c:	0000                	.2byte	0x0
 21e:	0204                	.2byte	0x204
 220:	5d05                	.2byte	0x5d05
 222:	0001                	.2byte	0x1
 224:	0400                	.2byte	0x400
 226:	0504                	.2byte	0x504
 228:	0000014f          	.4byte	0x14f
 22c:	0804                	.2byte	0x804
 22e:	4a05                	.2byte	0x4a05
 230:	0001                	.2byte	0x1
 232:	0400                	.2byte	0x400
 234:	0801                	.2byte	0x801
 236:	000000ab          	.4byte	0xab
 23a:	0204                	.2byte	0x204
 23c:	0000b907          	.4byte	0xb907
 240:	1c00                	.2byte	0x1c00
 242:	00000167          	jalr	sp,zero # 0 <__DYNAMIC>
 246:	5c1b3403          	.4byte	0x5c1b3403
 24a:	0000                	.2byte	0x0
 24c:	0400                	.2byte	0x400
 24e:	0704                	.2byte	0x704
 250:	0138                	.2byte	0x138
 252:	0000                	.2byte	0x0
 254:	0804                	.2byte	0x804
 256:	00013307          	.4byte	0x13307
 25a:	1d00                	.2byte	0x1d00
 25c:	0504                	.2byte	0x504
 25e:	6e69                	.2byte	0x6e69
 260:	0074                	.2byte	0x74
 262:	0404                	.2byte	0x404
 264:	00013d07          	.4byte	0x13d07
 268:	0b00                	.2byte	0xb00
 26a:	006a                	.2byte	0x6a
 26c:	0000                	.2byte	0x0
 26e:	0088                	.2byte	0x88
 270:	0000                	.2byte	0x0
 272:	710c                	.2byte	0x710c
 274:	0000                	.2byte	0x0
 276:	0f00                	.2byte	0xf00
 278:	0700                	.2byte	0x700
 27a:	0041                	.2byte	0x41
 27c:	00007807          	.4byte	0x7807
 280:	0500                	.2byte	0x500
 282:	00104003          	lbu	zero,1(zero) # 1 <__DYNAMIC+0x1>
 286:	0738                	.2byte	0x738
 288:	0042                	.2byte	0x42
 28a:	780d                	.2byte	0x780d
 28c:	0000                	.2byte	0x0
 28e:	0500                	.2byte	0x500
 290:	00100003          	lb	zero,1(zero) # 1 <__DYNAMIC+0x1>
 294:	0f38                	.2byte	0xf38
 296:	01b8                	.2byte	0x1b8
 298:	0000                	.2byte	0x0
 29a:	00007813          	andi	a6,zero,0
 29e:	0500                	.2byte	0x500
 2a0:	0011b003          	.4byte	0x11b003
 2a4:	0b38                	.2byte	0xb38
 2a6:	006a                	.2byte	0x6a
 2a8:	0000                	.2byte	0x0
 2aa:	00c4                	.2byte	0xc4
 2ac:	0000                	.2byte	0x0
 2ae:	710c                	.2byte	0x710c
 2b0:	0000                	.2byte	0x0
 2b2:	0900                	.2byte	0x900
 2b4:	0700                	.2byte	0x700
 2b6:	5351                	.2byte	0x5351
 2b8:	1600                	.2byte	0x1600
 2ba:	00b4                	.2byte	0xb4
 2bc:	0000                	.2byte	0x0
 2be:	0305                	.2byte	0x305
 2c0:	1080                	.2byte	0x1080
 2c2:	3800                	.2byte	0x3800
 2c4:	00006a0b          	.4byte	0x6a0b
 2c8:	e300                	.2byte	0xe300
 2ca:	0000                	.2byte	0x0
 2cc:	0c00                	.2byte	0xc00
 2ce:	0071                	.2byte	0x71
 2d0:	0000                	.2byte	0x0
 2d2:	6107003f 1a00736e 	.8byte	0x1a00736e6107003f
 2da:	000000d3          	.4byte	0xd3
 2de:	0305                	.2byte	0x305
 2e0:	11f0                	.2byte	0x11f0
 2e2:	3800                	.2byte	0x3800
 2e4:	0001bf0f          	.4byte	0x1bf0f
 2e8:	1b00                	.2byte	0x1b00
 2ea:	000000d3          	.4byte	0xd3
 2ee:	0305                	.2byte	0x305
 2f0:	10a8                	.2byte	0x10a8
 2f2:	3800                	.2byte	0x3800
 2f4:	661e                	.2byte	0x661e
 2f6:	7269                	.2byte	0x7269
 2f8:	0100                	.2byte	0x100
 2fa:	3386                	.2byte	0x3386
 2fc:	0146                	.2byte	0x146
 2fe:	0000                	.2byte	0x0
 300:	0ddc                	.2byte	0xddc
 302:	3800                	.2byte	0x3800
 304:	00a8                	.2byte	0xa8
 306:	0000                	.2byte	0x0
 308:	9c01                	.2byte	0x9c01
 30a:	0146                	.2byte	0x146
 30c:	0000                	.2byte	0x0
 30e:	7305                	.2byte	0x7305
 310:	8700                	.2byte	0x8700
 312:	6a06                	.2byte	0x6a06
 314:	0000                	.2byte	0x0
 316:	5e00                	.2byte	0x5e00
 318:	0000                	.2byte	0x0
 31a:	1f00                	.2byte	0x1f00
 31c:	0069                	.2byte	0x69
 31e:	8801                	.2byte	0x8801
 320:	6a06                	.2byte	0x6a06
 322:	0000                	.2byte	0x0
 324:	0000                	.2byte	0x0
 326:	4b20                	.2byte	0x4b20
 328:	0001                	.2byte	0x1
 32a:	dc00                	.2byte	0xdc00
 32c:	000d                	.2byte	0xd
 32e:	7438                	.2byte	0x7438
 330:	0000                	.2byte	0x0
 332:	0100                	.2byte	0x100
 334:	0289                	.2byte	0x289
 336:	1000                	.2byte	0x1000
 338:	006a                	.2byte	0x6a
 33a:	0000                	.2byte	0x0
 33c:	7c21                	.2byte	0x7c21
 33e:	0001                	.2byte	0x1
 340:	0100                	.2byte	0x100
 342:	0801336f          	jal	t1,133c2 <_fstack+0x12dc2>
 346:	0000018b          	.4byte	0x18b
 34a:	3369                	.2byte	0x3369
 34c:	0146                	.2byte	0x146
 34e:	0000                	.2byte	0x0
 350:	0b34                	.2byte	0xb34
 352:	3800                	.2byte	0x3800
 354:	0230                	.2byte	0x230
 356:	0000                	.2byte	0x0
 358:	9c01                	.2byte	0x9c01
 35a:	0218                	.2byte	0x218
 35c:	0000                	.2byte	0x0
 35e:	1809                	.2byte	0x1809
 360:	0002                	.2byte	0x2
 362:	3400                	.2byte	0x3400
 364:	a438000b          	.4byte	0xa438000b
 368:	0000                	.2byte	0x0
 36a:	6a00                	.2byte	0x6a00
 36c:	0302                	.2byte	0x302
 36e:	022e                	.2byte	0x22e
 370:	0000                	.2byte	0x0
 372:	0075                	.2byte	0x75
 374:	0000                	.2byte	0x0
 376:	00022303          	lw	t1,0(tp) # 0 <__DYNAMIC>
 37a:	8200                	.2byte	0x8200
 37c:	0000                	.2byte	0x0
 37e:	1100                	.2byte	0x1100
 380:	0238                	.2byte	0x238
 382:	0000                	.2byte	0x0
 384:	00c0                	.2byte	0xc0
 386:	0000                	.2byte	0x0
 388:	3902                	.2byte	0x3902
 38a:	0002                	.2byte	0x2
 38c:	8f00                	.2byte	0x8f00
 38e:	0000                	.2byte	0x0
 390:	2200                	.2byte	0x2200
 392:	0268                	.2byte	0x268
 394:	0000                	.2byte	0x0
 396:	0b34                	.2byte	0xb34
 398:	3800                	.2byte	0x3800
 39a:	00ee                	.2byte	0xee
 39c:	0000                	.2byte	0x0
 39e:	6301                	.2byte	0x6301
 3a0:	0001f10b          	.4byte	0x1f10b
 3a4:	0300                	.2byte	0x300
 3a6:	0284                	.2byte	0x284
 3a8:	0000                	.2byte	0x0
 3aa:	00a8                	.2byte	0xa8
 3ac:	0000                	.2byte	0x0
 3ae:	00027903          	.4byte	0x27903
 3b2:	c100                	.2byte	0xc100
 3b4:	0000                	.2byte	0x0
 3b6:	1200                	.2byte	0x1200
 3b8:	00ee                	.2byte	0xee
 3ba:	0000                	.2byte	0x0
 3bc:	8e02                	.2byte	0x8e02
 3be:	0002                	.2byte	0x2
 3c0:	d900                	.2byte	0xd900
 3c2:	0000                	.2byte	0x0
 3c4:	0200                	.2byte	0x200
 3c6:	0298                	.2byte	0x298
 3c8:	0000                	.2byte	0x0
 3ca:	00f0                	.2byte	0xf0
 3cc:	0000                	.2byte	0x0
 3ce:	a102                	.2byte	0xa102
 3d0:	0002                	.2byte	0x2
 3d2:	3c00                	.2byte	0x3c00
 3d4:	0002                	.2byte	0x2
 3d6:	0200                	.2byte	0x200
 3d8:	02aa                	.2byte	0x2aa
 3da:	0000                	.2byte	0x0
 3dc:	0329                	.2byte	0x329
 3de:	0000                	.2byte	0x0
 3e0:	0000                	.2byte	0x0
 3e2:	000d1c13          	slli	s8,s10,0x0
 3e6:	1838                	.2byte	0x1838
 3e8:	0002                	.2byte	0x2
 3ea:	0500                	.2byte	0x500
 3ec:	0002                	.2byte	0x2
 3ee:	0a00                	.2byte	0xa00
 3f0:	5b01                	.2byte	0x5b01
 3f2:	7902                	.2byte	0x7902
 3f4:	0000                	.2byte	0x0
 3f6:	3814                	.2byte	0x3814
 3f8:	000d                	.2byte	0xd
 3fa:	1838                	.2byte	0x1838
 3fc:	0002                	.2byte	0x2
 3fe:	0a00                	.2byte	0xa00
 400:	5b01                	.2byte	0x5b01
 402:	7902                	.2byte	0x7902
 404:	0000                	.2byte	0x0
 406:	0000                	.2byte	0x0
 408:	1500                	.2byte	0x1500
 40a:	018c                	.2byte	0x18c
 40c:	0000                	.2byte	0x0
 40e:	3361                	.2byte	0x3361
 410:	0268                	.2byte	0x268
 412:	0000                	.2byte	0x0
 414:	6c06                	.2byte	0x6c06
 416:	6100776f          	jal	a4,7a26 <_fstack+0x7426>
 41a:	6a3c                	.2byte	0x6a3c
 41c:	0000                	.2byte	0x0
 41e:	0600                	.2byte	0x600
 420:	6968                	.2byte	0x6968
 422:	6100                	.2byte	0x6100
 424:	6a45                	.2byte	0x6a45
 426:	0000                	.2byte	0x0
 428:	2300                	.2byte	0x2300
 42a:	700d                	.2byte	0x700d
 42c:	6300                	.2byte	0x6300
 42e:	00006a07          	.4byte	0x6a07
 432:	1300                	.2byte	0x1300
 434:	0ae8                	.2byte	0xae8
 436:	3800                	.2byte	0x3800
 438:	0218                	.2byte	0x218
 43a:	0000                	.2byte	0x0
 43c:	0256                	.2byte	0x256
 43e:	0000                	.2byte	0x0
 440:	010a                	.2byte	0x10a
 442:	0078025b          	.4byte	0x78025b
 446:	1400                	.2byte	0x1400
 448:	0b14                	.2byte	0xb14
 44a:	3800                	.2byte	0x3800
 44c:	0218                	.2byte	0x218
 44e:	0000                	.2byte	0x0
 450:	010a                	.2byte	0x10a
 452:	0078025b          	.4byte	0x78025b
 456:	0000                	.2byte	0x0
 458:	2400                	.2byte	0x2400
 45a:	0196                	.2byte	0x196
 45c:	0000                	.2byte	0x0
 45e:	4e01                	.2byte	0x4e01
 460:	6a32                	.2byte	0x6a32
 462:	0000                	.2byte	0x0
 464:	0100                	.2byte	0x100
 466:	02b5                	.2byte	0x2b5
 468:	0000                	.2byte	0x0
 46a:	6c06                	.2byte	0x6c06
 46c:	4e00776f          	jal	a4,794c <_fstack+0x734c>
 470:	6a40                	.2byte	0x6a40
 472:	0000                	.2byte	0x0
 474:	0600                	.2byte	0x600
 476:	6968                	.2byte	0x6968
 478:	4e00                	.2byte	0x4e00
 47a:	6a48                	.2byte	0x6a48
 47c:	0000                	.2byte	0x0
 47e:	1600                	.2byte	0x1600
 480:	000001eb          	.4byte	0x1eb
 484:	00006a4f          	.4byte	0x6a4f
 488:	0d00                	.2byte	0xd00
 48a:	0069                	.2byte	0x69
 48c:	0650                	.2byte	0x650
 48e:	006a                	.2byte	0x6a
 490:	0000                	.2byte	0x0
 492:	6a0d                	.2byte	0x6a0d
 494:	5000                	.2byte	0x5000
 496:	6a10                	.2byte	0x6a10
 498:	0000                	.2byte	0x0
 49a:	1600                	.2byte	0x1600
 49c:	0191                	.2byte	0x191
 49e:	0000                	.2byte	0x0
 4a0:	6a51                	.2byte	0x6a51
 4a2:	0000                	.2byte	0x0
 4a4:	0000                	.2byte	0x0
 4a6:	8408                	.2byte	0x8408
 4a8:	0001                	.2byte	0x1
 4aa:	3a00                	.2byte	0x3a00
 4ac:	00014633          	xor	a2,sp,zero
 4b0:	2400                	.2byte	0x2400
 4b2:	0000                	.2byte	0x0
 4b4:	7838                	.2byte	0x7838
 4b6:	0006                	.2byte	0x6
 4b8:	0100                	.2byte	0x100
 4ba:	459c                	.2byte	0x459c
 4bc:	0005                	.2byte	0x5
 4be:	0500                	.2byte	0x500
 4c0:	0069                	.2byte	0x69
 4c2:	063c                	.2byte	0x63c
 4c4:	006a                	.2byte	0x6a
 4c6:	0000                	.2byte	0x0
 4c8:	03d5                	.2byte	0x3d5
 4ca:	0000                	.2byte	0x0
 4cc:	6a05                	.2byte	0x6a05
 4ce:	3d00                	.2byte	0x3d00
 4d0:	6a06                	.2byte	0x6a06
 4d2:	0000                	.2byte	0x0
 4d4:	1200                	.2byte	0x1200
 4d6:	0004                	.2byte	0x4
 4d8:	0500                	.2byte	0x500
 4da:	063e006b          	.4byte	0x63e006b
 4de:	006a                	.2byte	0x6a
 4e0:	0000                	.2byte	0x0
 4e2:	000004bb          	.4byte	0x4bb
 4e6:	7305                	.2byte	0x7305
 4e8:	6d75                	.2byte	0x6d75
 4ea:	3f00                	.2byte	0x3f00
 4ec:	6a06                	.2byte	0x6a06
 4ee:	0000                	.2byte	0x0
 4f0:	9c00                	.2byte	0x9c00
 4f2:	0006                	.2byte	0x6
 4f4:	0100                	.2byte	0x100
 4f6:	0084                	.2byte	0x84
 4f8:	3800                	.2byte	0x3800
 4fa:	0768                	.2byte	0x768
 4fc:	0000                	.2byte	0x0
 4fe:	9c01                	.2byte	0x9c01
 500:	0000                	.2byte	0x0
 502:	6838                	.2byte	0x6838
 504:	01000007          	.4byte	0x1000007
 508:	00b8                	.2byte	0xb8
 50a:	3800                	.2byte	0x3800
 50c:	0768                	.2byte	0x768
 50e:	0000                	.2byte	0x0
 510:	cc01                	.2byte	0xcc01
 512:	0000                	.2byte	0x0
 514:	6838                	.2byte	0x6838
 516:	01000007          	.4byte	0x1000007
 51a:	00f0                	.2byte	0xf0
 51c:	3800                	.2byte	0x3800
 51e:	0768                	.2byte	0x768
 520:	0000                	.2byte	0x0
 522:	1001                	.2byte	0x1001
 524:	0001                	.2byte	0x1
 526:	6838                	.2byte	0x6838
 528:	01000007          	.4byte	0x1000007
 52c:	0130                	.2byte	0x130
 52e:	3800                	.2byte	0x3800
 530:	0768                	.2byte	0x768
 532:	0000                	.2byte	0x0
 534:	4c01                	.2byte	0x4c01
 536:	0001                	.2byte	0x1
 538:	6838                	.2byte	0x6838
 53a:	01000007          	.4byte	0x1000007
 53e:	016c                	.2byte	0x16c
 540:	3800                	.2byte	0x3800
 542:	0768                	.2byte	0x768
 544:	0000                	.2byte	0x0
 546:	8401                	.2byte	0x8401
 548:	0001                	.2byte	0x1
 54a:	6838                	.2byte	0x6838
 54c:	01000007          	.4byte	0x1000007
 550:	01a4                	.2byte	0x1a4
 552:	3800                	.2byte	0x3800
 554:	0768                	.2byte	0x768
 556:	0000                	.2byte	0x0
 558:	c001                	.2byte	0xc001
 55a:	0001                	.2byte	0x1
 55c:	6838                	.2byte	0x6838
 55e:	01000007          	.4byte	0x1000007
 562:	01d8                	.2byte	0x1d8
 564:	3800                	.2byte	0x3800
 566:	0768                	.2byte	0x768
 568:	0000                	.2byte	0x0
 56a:	f401                	.2byte	0xf401
 56c:	0001                	.2byte	0x1
 56e:	6838                	.2byte	0x6838
 570:	01000007          	.4byte	0x1000007
 574:	0208                	.2byte	0x208
 576:	3800                	.2byte	0x3800
 578:	0768                	.2byte	0x768
 57a:	0000                	.2byte	0x0
 57c:	1c01                	.2byte	0x1c01
 57e:	0002                	.2byte	0x2
 580:	6838                	.2byte	0x6838
 582:	01000007          	.4byte	0x1000007
 586:	0234                	.2byte	0x234
 588:	3800                	.2byte	0x3800
 58a:	0768                	.2byte	0x768
 58c:	0000                	.2byte	0x0
 58e:	4801                	.2byte	0x4801
 590:	0002                	.2byte	0x2
 592:	6838                	.2byte	0x6838
 594:	01000007          	.4byte	0x1000007
 598:	0260                	.2byte	0x260
 59a:	3800                	.2byte	0x3800
 59c:	0768                	.2byte	0x768
 59e:	0000                	.2byte	0x0
 5a0:	7c01                	.2byte	0x7c01
 5a2:	0002                	.2byte	0x2
 5a4:	6838                	.2byte	0x6838
 5a6:	01000007          	.4byte	0x1000007
 5aa:	0294                	.2byte	0x294
 5ac:	3800                	.2byte	0x3800
 5ae:	0768                	.2byte	0x768
 5b0:	0000                	.2byte	0x0
 5b2:	a801                	.2byte	0xa801
 5b4:	0002                	.2byte	0x2
 5b6:	6838                	.2byte	0x6838
 5b8:	01000007          	.4byte	0x1000007
 5bc:	02c4                	.2byte	0x2c4
 5be:	3800                	.2byte	0x3800
 5c0:	0768                	.2byte	0x768
 5c2:	0000                	.2byte	0x0
 5c4:	e001                	.2byte	0xe001
 5c6:	0002                	.2byte	0x2
 5c8:	6838                	.2byte	0x6838
 5ca:	01000007          	.4byte	0x1000007
 5ce:	02f8                	.2byte	0x2f8
 5d0:	3800                	.2byte	0x3800
 5d2:	0768                	.2byte	0x768
 5d4:	0000                	.2byte	0x0
 5d6:	0c01                	.2byte	0xc01
 5d8:	68380003          	lb	zero,1667(a6) # 8859 <_fstack+0x8259>
 5dc:	01000007          	.4byte	0x1000007
 5e0:	0328                	.2byte	0x328
 5e2:	3800                	.2byte	0x3800
 5e4:	0768                	.2byte	0x768
 5e6:	0000                	.2byte	0x0
 5e8:	4401                	.2byte	0x4401
 5ea:	68380003          	lb	zero,1667(a6)
 5ee:	01000007          	.4byte	0x1000007
 5f2:	035c                	.2byte	0x35c
 5f4:	3800                	.2byte	0x3800
 5f6:	0768                	.2byte	0x768
 5f8:	0000                	.2byte	0x0
 5fa:	7001                	.2byte	0x7001
 5fc:	68380003          	lb	zero,1667(a6)
 600:	01000007          	.4byte	0x1000007
 604:	0384                	.2byte	0x384
 606:	3800                	.2byte	0x3800
 608:	0768                	.2byte	0x768
 60a:	0000                	.2byte	0x0
 60c:	9801                	.2byte	0x9801
 60e:	68380003          	lb	zero,1667(a6)
 612:	01000007          	.4byte	0x1000007
 616:	03b0                	.2byte	0x3b0
 618:	3800                	.2byte	0x3800
 61a:	0768                	.2byte	0x768
 61c:	0000                	.2byte	0x0
 61e:	c401                	.2byte	0xc401
 620:	68380003          	lb	zero,1667(a6)
 624:	01000007          	.4byte	0x1000007
 628:	03dc                	.2byte	0x3dc
 62a:	3800                	.2byte	0x3800
 62c:	0768                	.2byte	0x768
 62e:	0000                	.2byte	0x0
 630:	f801                	.2byte	0xf801
 632:	68380003          	lb	zero,1667(a6)
 636:	01000007          	.4byte	0x1000007
 63a:	0410                	.2byte	0x410
 63c:	3800                	.2byte	0x3800
 63e:	0768                	.2byte	0x768
 640:	0000                	.2byte	0x0
 642:	2401                	.2byte	0x2401
 644:	0004                	.2byte	0x4
 646:	6838                	.2byte	0x6838
 648:	01000007          	.4byte	0x1000007
 64c:	0440                	.2byte	0x440
 64e:	3800                	.2byte	0x3800
 650:	0768                	.2byte	0x768
 652:	0000                	.2byte	0x0
 654:	5c01                	.2byte	0x5c01
 656:	0004                	.2byte	0x4
 658:	6838                	.2byte	0x6838
 65a:	01000007          	.4byte	0x1000007
 65e:	0474                	.2byte	0x474
 660:	3800                	.2byte	0x3800
 662:	0768                	.2byte	0x768
 664:	0000                	.2byte	0x0
 666:	8801                	.2byte	0x8801
 668:	0004                	.2byte	0x4
 66a:	6838                	.2byte	0x6838
 66c:	01000007          	.4byte	0x1000007
 670:	04a4                	.2byte	0x4a4
 672:	3800                	.2byte	0x3800
 674:	0768                	.2byte	0x768
 676:	0000                	.2byte	0x0
 678:	c001                	.2byte	0xc001
 67a:	0004                	.2byte	0x4
 67c:	6838                	.2byte	0x6838
 67e:	01000007          	.4byte	0x1000007
 682:	04d8                	.2byte	0x4d8
 684:	3800                	.2byte	0x3800
 686:	0768                	.2byte	0x768
 688:	0000                	.2byte	0x0
 68a:	ec01                	.2byte	0xec01
 68c:	0004                	.2byte	0x4
 68e:	6838                	.2byte	0x6838
 690:	01000007          	.4byte	0x1000007
 694:	0500                	.2byte	0x500
 696:	3800                	.2byte	0x3800
 698:	0768                	.2byte	0x768
 69a:	0000                	.2byte	0x0
 69c:	1401                	.2byte	0x1401
 69e:	0005                	.2byte	0x5
 6a0:	6838                	.2byte	0x6838
 6a2:	01000007          	.4byte	0x1000007
 6a6:	052c                	.2byte	0x52c
 6a8:	3800                	.2byte	0x3800
 6aa:	0768                	.2byte	0x768
 6ac:	0000                	.2byte	0x0
 6ae:	4001                	.2byte	0x4001
 6b0:	0005                	.2byte	0x5
 6b2:	6838                	.2byte	0x6838
 6b4:	01000007          	.4byte	0x1000007
 6b8:	0554                	.2byte	0x554
 6ba:	3800                	.2byte	0x3800
 6bc:	0768                	.2byte	0x768
 6be:	0000                	.2byte	0x0
 6c0:	6801                	.2byte	0x6801
 6c2:	0005                	.2byte	0x5
 6c4:	6838                	.2byte	0x6838
 6c6:	01000007          	.4byte	0x1000007
 6ca:	057c                	.2byte	0x57c
 6cc:	3800                	.2byte	0x3800
 6ce:	0768                	.2byte	0x768
 6d0:	0000                	.2byte	0x0
 6d2:	9001                	.2byte	0x9001
 6d4:	0005                	.2byte	0x5
 6d6:	6838                	.2byte	0x6838
 6d8:	01000007          	.4byte	0x1000007
 6dc:	05a4                	.2byte	0x5a4
 6de:	3800                	.2byte	0x3800
 6e0:	0768                	.2byte	0x768
 6e2:	0000                	.2byte	0x0
 6e4:	b801                	.2byte	0xb801
 6e6:	0005                	.2byte	0x5
 6e8:	6838                	.2byte	0x6838
 6ea:	01000007          	.4byte	0x1000007
 6ee:	05cc                	.2byte	0x5cc
 6f0:	3800                	.2byte	0x3800
 6f2:	0768                	.2byte	0x768
 6f4:	0000                	.2byte	0x0
 6f6:	dc01                	.2byte	0xdc01
 6f8:	0005                	.2byte	0x5
 6fa:	6838                	.2byte	0x6838
 6fc:	01000007          	.4byte	0x1000007
 700:	05f0                	.2byte	0x5f0
 702:	3800                	.2byte	0x3800
 704:	0768                	.2byte	0x768
 706:	0000                	.2byte	0x0
 708:	0401                	.2byte	0x401
 70a:	0006                	.2byte	0x6
 70c:	6838                	.2byte	0x6838
 70e:	01000007          	.4byte	0x1000007
 712:	0618                	.2byte	0x618
 714:	3800                	.2byte	0x3800
 716:	0768                	.2byte	0x768
 718:	0000                	.2byte	0x0
 71a:	2801                	.2byte	0x2801
 71c:	0006                	.2byte	0x6
 71e:	6838                	.2byte	0x6838
 720:	01000007          	.4byte	0x1000007
 724:	063c                	.2byte	0x63c
 726:	3800                	.2byte	0x3800
 728:	0768                	.2byte	0x768
 72a:	0000                	.2byte	0x0
 72c:	5001                	.2byte	0x5001
 72e:	0006                	.2byte	0x6
 730:	6838                	.2byte	0x6838
 732:	00000007          	.4byte	0x7
 736:	9908                	.2byte	0x9908
 738:	0000                	.2byte	0x0
 73a:	2c00                	.2byte	0x2c00
 73c:	00006a2f          	.4byte	0x6a2f
 740:	e800                	.2byte	0xe800
 742:	0002                	.2byte	0x2
 744:	2810                	.2byte	0x2810
 746:	0000                	.2byte	0x0
 748:	0100                	.2byte	0x100
 74a:	839c                	.2byte	0x839c
 74c:	0005                	.2byte	0x5
 74e:	1700                	.2byte	0x1700
 750:	756e                	.2byte	0x756e
 752:	006d                	.2byte	0x6d
 754:	092e                	.2byte	0x92e
 756:	006a                	.2byte	0x6a
 758:	0000                	.2byte	0x0
 75a:	5a01                	.2byte	0x5a01
 75c:	0418                	.2byte	0x418
 75e:	04100003          	lb	zero,65(zero) # 41 <__DYNAMIC+0x41>
 762:	0000                	.2byte	0x0
 764:	0500                	.2byte	0x500
 766:	0069                	.2byte	0x69
 768:	1130                	.2byte	0x1130
 76a:	006a                	.2byte	0x6a
 76c:	0000                	.2byte	0x0
 76e:	0a16                	.2byte	0xa16
 770:	0000                	.2byte	0x0
 772:	0000                	.2byte	0x0
 774:	a908                	.2byte	0xa908
 776:	0001                	.2byte	0x1
 778:	1f00                	.2byte	0x1f00
 77a:	c130                	.2byte	0xc130
 77c:	0005                	.2byte	0x5
 77e:	b800                	.2byte	0xb800
 780:	0002                	.2byte	0x2
 782:	3010                	.2byte	0x3010
 784:	0000                	.2byte	0x0
 786:	0100                	.2byte	0x100
 788:	c19c                	.2byte	0xc19c
 78a:	0005                	.2byte	0x5
 78c:	1700                	.2byte	0x1700
 78e:	756e                	.2byte	0x756e
 790:	006d                	.2byte	0x6d
 792:	0721                	.2byte	0x721
 794:	05c1                	.2byte	0x5c1
 796:	0000                	.2byte	0x0
 798:	5a01                	.2byte	0x5a01
 79a:	d818                	.2byte	0xd818
 79c:	0002                	.2byte	0x2
 79e:	0410                	.2byte	0x410
 7a0:	0000                	.2byte	0x0
 7a2:	0500                	.2byte	0x500
 7a4:	0069                	.2byte	0x69
 7a6:	006a1123          	sh	t1,2(s4)
 7aa:	0000                	.2byte	0x0
 7ac:	00000a2f          	.4byte	0xa2f
 7b0:	0000                	.2byte	0x0
 7b2:	0104                	.2byte	0x104
 7b4:	b408                	.2byte	0xb408
 7b6:	0000                	.2byte	0x0
 7b8:	2500                	.2byte	0x2500
 7ba:	05c1                	.2byte	0x5c1
 7bc:	0000                	.2byte	0x0
 7be:	d919                	.2byte	0xd919
 7c0:	0001                	.2byte	0x1
 7c2:	1800                	.2byte	0x1800
 7c4:	026c                	.2byte	0x26c
 7c6:	1000                	.2byte	0x1000
 7c8:	004c                	.2byte	0x4c
 7ca:	0000                	.2byte	0x0
 7cc:	9c01                	.2byte	0x9c01
 7ce:	061e                	.2byte	0x61e
 7d0:	0000                	.2byte	0x0
 7d2:	7326                	.2byte	0x7326
 7d4:	0100                	.2byte	0x100
 7d6:	4e18                	.2byte	0x4e18
 7d8:	061e                	.2byte	0x61e
 7da:	0000                	.2byte	0x0
 7dc:	0a48                	.2byte	0xa48
 7de:	0000                	.2byte	0x0
 7e0:	2309                	.2byte	0x2309
 7e2:	0006                	.2byte	0x6
 7e4:	7400                	.2byte	0x7400
 7e6:	0002                	.2byte	0x2
 7e8:	2b10                	.2byte	0x2b10
 7ea:	0000                	.2byte	0x0
 7ec:	1b00                	.2byte	0x1b00
 7ee:	0309                	.2byte	0x309
 7f0:	062e                	.2byte	0x62e
 7f2:	0000                	.2byte	0x0
 7f4:	0a5f 0000 2309      	.byte	0x5f, 0x0a, 0x00, 0x00, 0x09, 0x23
 7fa:	0006                	.2byte	0x6
 7fc:	7800                	.2byte	0x7800
 7fe:	0002                	.2byte	0x2
 800:	4710                	.2byte	0x4710
 802:	0000                	.2byte	0x0
 804:	1100                	.2byte	0x1100
 806:	062e1a03          	lh	s4,98(t3)
 80a:	0000                	.2byte	0x0
 80c:	0000                	.2byte	0x0
 80e:	1000                	.2byte	0x1000
 810:	05c8                	.2byte	0x5c8
 812:	0000                	.2byte	0x0
 814:	c915                	.2byte	0xc915
 816:	0001                	.2byte	0x1
 818:	0e00                	.2byte	0xe00
 81a:	3830                	.2byte	0x3830
 81c:	0006                	.2byte	0x6
 81e:	0600                	.2byte	0x600
 820:	450e0063          	beq	t3,a6,c60 <_fstack+0x660>
 824:	05c1                	.2byte	0x5c1
 826:	0000                	.2byte	0x0
 828:	1900                	.2byte	0x1900
 82a:	007d                	.2byte	0x7d
 82c:	0000                	.2byte	0x0
 82e:	1808                	.2byte	0x1808
 830:	0002                	.2byte	0x2
 832:	1810                	.2byte	0x1810
 834:	0000                	.2byte	0x0
 836:	0100                	.2byte	0x100
 838:	599c                	.2byte	0x599c
 83a:	0006                	.2byte	0x6
 83c:	2700                	.2byte	0x2700
 83e:	006e                	.2byte	0x6e
 840:	0801                	.2byte	0x801
 842:	00006a3f 005a0100 	.8byte	0x5a010000006a3f
 84a:	230e                	.2byte	0x230e
 84c:	0006                	.2byte	0x6
 84e:	3000                	.2byte	0x3000
 850:	0002                	.2byte	0x2
 852:	3c10                	.2byte	0x3c10
 854:	0000                	.2byte	0x0
 856:	0100                	.2byte	0x100
 858:	8a9c                	.2byte	0x8a9c
 85a:	0006                	.2byte	0x6
 85c:	2800                	.2byte	0x2800
 85e:	062e                	.2byte	0x62e
 860:	0000                	.2byte	0x0
 862:	5a01                	.2byte	0x5a01
 864:	2329                	.2byte	0x2329
 866:	0006                	.2byte	0x6
 868:	5000                	.2byte	0x5000
 86a:	0002                	.2byte	0x2
 86c:	1c10                	.2byte	0x1c10
 86e:	0000                	.2byte	0x0
 870:	0100                	.2byte	0x100
 872:	0311                	.2byte	0x311
 874:	2e1a                	.2byte	0x2e1a
 876:	0006                	.2byte	0x6
 878:	0000                	.2byte	0x0
 87a:	0e00                	.2byte	0xe00
 87c:	0268                	.2byte	0x268
 87e:	0000                	.2byte	0x0
 880:	069c                	.2byte	0x69c
 882:	3800                	.2byte	0x3800
 884:	0224                	.2byte	0x224
 886:	0000                	.2byte	0x0
 888:	9c01                	.2byte	0x9c01
 88a:	06d4                	.2byte	0x6d4
 88c:	0000                	.2byte	0x0
 88e:	00027903          	.4byte	0x27903
 892:	7600                	.2byte	0x7600
 894:	000a                	.2byte	0xa
 896:	0300                	.2byte	0x300
 898:	0284                	.2byte	0x284
 89a:	0000                	.2byte	0x0
 89c:	0ab6                	.2byte	0xab6
 89e:	0000                	.2byte	0x0
 8a0:	8e02                	.2byte	0x8e02
 8a2:	0002                	.2byte	0x2
 8a4:	e900                	.2byte	0xe900
 8a6:	000a                	.2byte	0xa
 8a8:	0200                	.2byte	0x200
 8aa:	0298                	.2byte	0x298
 8ac:	0000                	.2byte	0x0
 8ae:	0b00                	.2byte	0xb00
 8b0:	0000                	.2byte	0x0
 8b2:	a102                	.2byte	0xa102
 8b4:	0002                	.2byte	0x2
 8b6:	7100                	.2byte	0x7100
 8b8:	000c                	.2byte	0xc
 8ba:	0200                	.2byte	0x200
 8bc:	02aa                	.2byte	0x2aa
 8be:	0000                	.2byte	0x0
 8c0:	0db9                	.2byte	0xdb9
 8c2:	0000                	.2byte	0x0
 8c4:	0e00                	.2byte	0xe00
 8c6:	0218                	.2byte	0x218
 8c8:	0000                	.2byte	0x0
 8ca:	08c0                	.2byte	0x8c0
 8cc:	3800                	.2byte	0x3800
 8ce:	0274                	.2byte	0x274
 8d0:	0000                	.2byte	0x0
 8d2:	9c01                	.2byte	0x9c01
 8d4:	0759                	.2byte	0x759
 8d6:	0000                	.2byte	0x0
 8d8:	00022303          	lw	t1,0(tp) # 0 <__DYNAMIC>
 8dc:	7900                	.2byte	0x7900
 8de:	000e                	.2byte	0xe
 8e0:	0300                	.2byte	0x300
 8e2:	022e                	.2byte	0x22e
 8e4:	0000                	.2byte	0x0
 8e6:	0e9e                	.2byte	0xe9e
 8e8:	0000                	.2byte	0x0
 8ea:	3811                	.2byte	0x3811
 8ec:	0002                	.2byte	0x2
 8ee:	5a00                	.2byte	0x5a00
 8f0:	0000                	.2byte	0x0
 8f2:	0200                	.2byte	0x200
 8f4:	0239                	.2byte	0x239
 8f6:	0000                	.2byte	0x0
 8f8:	0ed9                	.2byte	0xed9
 8fa:	0000                	.2byte	0x0
 8fc:	6809                	.2byte	0x6809
 8fe:	0002                	.2byte	0x2
 900:	ec00                	.2byte	0xec00
 902:	0008                	.2byte	0x8
 904:	7638                	.2byte	0x7638
 906:	0000                	.2byte	0x0
 908:	6300                	.2byte	0x6300
 90a:	0284030b          	.4byte	0x284030b
 90e:	0000                	.2byte	0x0
 910:	0f0e                	.2byte	0xf0e
 912:	0000                	.2byte	0x0
 914:	00027903          	.4byte	0x27903
 918:	2500                	.2byte	0x2500
 91a:	1200000f          	.4byte	0x1200000f
 91e:	0076                	.2byte	0x76
 920:	0000                	.2byte	0x0
 922:	8e02                	.2byte	0x8e02
 924:	0002                	.2byte	0x2
 926:	3c00                	.2byte	0x3c00
 928:	0200000f          	fence	r,unknown
 92c:	0298                	.2byte	0x298
 92e:	0000                	.2byte	0x0
 930:	00000f53          	.4byte	0xf53
 934:	a102                	.2byte	0xa102
 936:	0002                	.2byte	0x2
 938:	b700                	.2byte	0xb700
 93a:	0010                	.2byte	0x10
 93c:	0200                	.2byte	0x200
 93e:	02aa                	.2byte	0x2aa
 940:	0000                	.2byte	0x0
 942:	11a6                	.2byte	0x11a6
 944:	0000                	.2byte	0x0
 946:	0000                	.2byte	0x0
 948:	0000                	.2byte	0x0
 94a:	4b2a                	.2byte	0x4b2a
 94c:	0001                	.2byte	0x1
 94e:	6400                	.2byte	0x6400
 950:	000d                	.2byte	0xd
 952:	7838                	.2byte	0x7838
 954:	0000                	.2byte	0x0
 956:	0100                	.2byte	0x100
 958:	2b9c                	.2byte	0x2b9c
 95a:	01a0                	.2byte	0x1a0
 95c:	0000                	.2byte	0x0
 95e:	01a0                	.2byte	0x1a0
 960:	0000                	.2byte	0x0
 962:	c300                	.2byte	0xc300
 964:	0002                	.2byte	0x2
 966:	0500                	.2byte	0x500
 968:	0100                	.2byte	0x100
 96a:	ff04                	.2byte	0xff04
 96c:	0d000003          	lb	zero,208(zero) # d0 <__DYNAMIC+0xd0>
 970:	00d8                	.2byte	0xd8
 972:	0000                	.2byte	0x0
 974:	ee1d                	.2byte	0xee1d
 976:	0000                	.2byte	0x0
 978:	0000                	.2byte	0x0
 97a:	0000                	.2byte	0x0
 97c:	c400                	.2byte	0xc400
 97e:	0001                	.2byte	0x1
 980:	0000                	.2byte	0x0
 982:	0000                	.2byte	0x0
 984:	bd00                	.2byte	0xbd00
 986:	0028                	.2byte	0x28
 988:	0100                	.2byte	0x100
 98a:	0601                	.2byte	0x601
 98c:	00ad                	.2byte	0xad
 98e:	0000                	.2byte	0x0
 990:	0201                	.2byte	0x201
 992:	5d05                	.2byte	0x5d05
 994:	0001                	.2byte	0x1
 996:	0100                	.2byte	0x100
 998:	0504                	.2byte	0x504
 99a:	0000014f          	.4byte	0x14f
 99e:	0801                	.2byte	0x801
 9a0:	4a05                	.2byte	0x4a05
 9a2:	0001                	.2byte	0x1
 9a4:	0100                	.2byte	0x100
 9a6:	0801                	.2byte	0x801
 9a8:	000000ab          	.4byte	0xab
 9ac:	0201                	.2byte	0x201
 9ae:	0000b907          	.4byte	0xb907
 9b2:	0e00                	.2byte	0xe00
 9b4:	00000167          	jalr	sp,zero # 0 <__DYNAMIC>
 9b8:	3406                	.2byte	0x3406
 9ba:	00005c1b          	.4byte	0x5c1b
 9be:	0100                	.2byte	0x100
 9c0:	0704                	.2byte	0x704
 9c2:	0138                	.2byte	0x138
 9c4:	0000                	.2byte	0x0
 9c6:	0801                	.2byte	0x801
 9c8:	00013307          	.4byte	0x13307
 9cc:	0f00                	.2byte	0xf00
 9ce:	0504                	.2byte	0x504
 9d0:	6e69                	.2byte	0x6e69
 9d2:	0074                	.2byte	0x74
 9d4:	0401                	.2byte	0x401
 9d6:	00013d07          	.4byte	0x13d07
 9da:	0800                	.2byte	0x800
 9dc:	0184                	.2byte	0x184
 9de:	0000                	.2byte	0x0
 9e0:	881a                	.2byte	0x881a
 9e2:	0000                	.2byte	0x0
 9e4:	8800                	.2byte	0x8800
 9e6:	0000                	.2byte	0x0
 9e8:	0300                	.2byte	0x300
 9ea:	0900                	.2byte	0x900
 9ec:	006a                	.2byte	0x6a
 9ee:	0000                	.2byte	0x0
 9f0:	8b08                	.2byte	0x8b08
 9f2:	0001                	.2byte	0x1
 9f4:	2100                	.2byte	0x2100
 9f6:	0088                	.2byte	0x88
 9f8:	0000                	.2byte	0x0
 9fa:	009d                	.2byte	0x9d
 9fc:	0000                	.2byte	0x0
 9fe:	66100003          	lb	zero,1633(zero) # 661 <_fstack+0x61>
 a02:	7269                	.2byte	0x7269
 a04:	0200                	.2byte	0x200
 a06:	0d22                	.2byte	0xd22
 a08:	0088                	.2byte	0x88
 a0a:	0000                	.2byte	0x0
 a0c:	000000af          	.4byte	0xaf
 a10:	08110003          	lb	zero,129(sp)
 a14:	0002                	.2byte	0x2
 a16:	0200                	.2byte	0x200
 a18:	062e                	.2byte	0x62e
 a1a:	0310                	.2byte	0x310
 a1c:	1000                	.2byte	0x1000
 a1e:	0214                	.2byte	0x214
 a20:	0000                	.2byte	0x0
 a22:	9c01                	.2byte	0x9c01
 a24:	000001af          	.4byte	0x1af
 a28:	d304                	.2byte	0xd304
 a2a:	0000                	.2byte	0x0
 a2c:	3100                	.2byte	0x3100
 a2e:	6a09                	.2byte	0x6a09
 a30:	0000                	.2byte	0x0
 a32:	7200                	.2byte	0x7200
 a34:	0012                	.2byte	0x12
 a36:	0400                	.2byte	0x400
 a38:	000001fb          	.4byte	0x1fb
 a3c:	008807a7          	.4byte	0x8807a7
 a40:	0000                	.2byte	0x0
 a42:	128d                	.2byte	0x128d
 a44:	0000                	.2byte	0x0
 a46:	f604                	.2byte	0xf604
 a48:	0001                	.2byte	0x1
 a4a:	ad00                	.2byte	0xad00
 a4c:	00008807          	.4byte	0x8807
 a50:	a700                	.2byte	0xa700
 a52:	0012                	.2byte	0x12
 a54:	1200                	.2byte	0x1200
 a56:	01f1                	.2byte	0x1f1
 a58:	0000                	.2byte	0x0
 a5a:	bb02                	.2byte	0xbb02
 a5c:	00008807          	.4byte	0x8807
 a60:	0100                	.2byte	0x100
 a62:	135a                	.2byte	0x135a
 a64:	041c                	.2byte	0x41c
 a66:	1000                	.2byte	0x1000
 a68:	001c                	.2byte	0x1c
 a6a:	0000                	.2byte	0x0
 a6c:	011c                	.2byte	0x11c
 a6e:	0000                	.2byte	0x0
 a70:	6914                	.2byte	0x6914
 a72:	0200                	.2byte	0x200
 a74:	0ba8                	.2byte	0xba8
 a76:	006a                	.2byte	0x6a
 a78:	0000                	.2byte	0x0
 a7a:	000012b3          	sll	t0,zero,zero
 a7e:	0500                	.2byte	0x500
 a80:	000001c7          	.4byte	0x1c7
 a84:	0400                	.2byte	0x400
 a86:	1000                	.2byte	0x1000
 a88:	0004                	.2byte	0x4
 a8a:	0000                	.2byte	0x0
 a8c:	099f 0135 0000      	.byte	0x9f, 0x09, 0x35, 0x01, 0x00, 0x00
 a92:	d815                	.2byte	0xd815
 a94:	0001                	.2byte	0x1
 a96:	0000                	.2byte	0x0
 a98:	af05                	.2byte	0xaf05
 a9a:	0001                	.2byte	0x1
 a9c:	0400                	.2byte	0x400
 a9e:	0004                	.2byte	0x4
 aa0:	0810                	.2byte	0x810
 aa2:	0000                	.2byte	0x0
 aa4:	a100                	.2byte	0xa100
 aa6:	5202                	.2byte	0x5202
 aa8:	0001                	.2byte	0x1
 aaa:	0200                	.2byte	0x200
 aac:	01ba                	.2byte	0x1ba
 aae:	0000                	.2byte	0x0
 ab0:	12c0                	.2byte	0x12c0
 ab2:	0000                	.2byte	0x0
 ab4:	0500                	.2byte	0x500
 ab6:	025f 0000 040c      	.byte	0x5f, 0x02, 0x00, 0x00, 0x0c, 0x04
 abc:	1000                	.2byte	0x1000
 abe:	0008                	.2byte	0x8
 ac0:	0000                	.2byte	0x0
 ac2:	019302a3          	sb	s9,5(t1)
 ac6:	0000                	.2byte	0x0
 ac8:	6d02                	.2byte	0x6d02
 aca:	0002                	.2byte	0x2
 acc:	db00                	.2byte	0xdb00
 ace:	0012                	.2byte	0x12
 ad0:	1600                	.2byte	0x1600
 ad2:	0279                	.2byte	0x279
 ad4:	0000                	.2byte	0x0
 ad6:	040c                	.2byte	0x40c
 ad8:	1000                	.2byte	0x1000
 ada:	0008                	.2byte	0x8
 adc:	0000                	.2byte	0x0
 ade:	2604                	.2byte	0x2604
 ae0:	8e020203          	lb	tp,-1824(tp) # fffff8e0 <_ebss+0xc7ffe5f0>
 ae4:	0002                	.2byte	0x2
 ae6:	e800                	.2byte	0xe800
 ae8:	0012                	.2byte	0x12
 aea:	0200                	.2byte	0x200
 aec:	0284                	.2byte	0x284
 aee:	0000                	.2byte	0x0
 af0:	000012db          	.4byte	0x12db
 af4:	0000                	.2byte	0x0
 af6:	1c06                	.2byte	0x1c06
 af8:	0004                	.2byte	0x4
 afa:	9d10                	.2byte	0x9d10
 afc:	0000                	.2byte	0x0
 afe:	0600                	.2byte	0x600
 b00:	0448                	.2byte	0x448
 b02:	1000                	.2byte	0x1000
 b04:	008d                	.2byte	0x8d
 b06:	0000                	.2byte	0x0
 b08:	d006                	.2byte	0xd006
 b0a:	0004                	.2byte	0x4
 b0c:	7810                	.2byte	0x7810
 b0e:	0000                	.2byte	0x0
 b10:	0000                	.2byte	0x0
 b12:	0d0a                	.2byte	0xd0a
 b14:	0002                	.2byte	0x2
 b16:	0300                	.2byte	0x300
 b18:	c71d                	.2byte	0xc71d
 b1a:	0001                	.2byte	0x1
 b1c:	1700                	.2byte	0x1700
 b1e:	000000d3          	.4byte	0xd3
 b22:	712d1d03          	lh	s10,1810(s10)
 b26:	0000                	.2byte	0x0
 b28:	0000                	.2byte	0x0
 b2a:	cc18                	.2byte	0xcc18
 b2c:	0000                	.2byte	0x0
 b2e:	0300                	.2byte	0x300
 b30:	1c16                	.2byte	0x1c16
 b32:	0071                	.2byte	0x71
 b34:	0000                	.2byte	0x0
 b36:	0001e503          	.4byte	0x1e503
 b3a:	1900                	.2byte	0x1900
 b3c:	000000d3          	.4byte	0xd3
 b40:	710f1803          	lh	a6,1808(t5)
 b44:	0000                	.2byte	0x0
 b46:	0000                	.2byte	0x0
 b48:	341a                	.2byte	0x341a
 b4a:	0002                	.2byte	0x2
 b4c:	0100                	.2byte	0x100
 b4e:	061a                	.2byte	0x61a
 b50:	01d0                	.2byte	0x1d0
 b52:	1000                	.2byte	0x1000
 b54:	0048                	.2byte	0x48
 b56:	0000                	.2byte	0x0
 b58:	9c01                	.2byte	0x9c01
 b5a:	0236                	.2byte	0x236
 b5c:	0000                	.2byte	0x0
 b5e:	0100701b          	.4byte	0x100701b
 b62:	181a                	.2byte	0x181a
 b64:	0236                	.2byte	0x236
 b66:	0000                	.2byte	0x0
 b68:	12f9                	.2byte	0x12f9
 b6a:	0000                	.2byte	0x0
 b6c:	0002470b          	.4byte	0x2470b
 b70:	d800                	.2byte	0xd800
 b72:	0001                	.2byte	0x1
 b74:	9510                	.2byte	0x9510
 b76:	0001                	.2byte	0x1
 b78:	1d00                	.2byte	0x1d00
 b7a:	5402                	.2byte	0x5402
 b7c:	0002                	.2byte	0x2
 b7e:	1000                	.2byte	0x1000
 b80:	0b000013          	li	zero,176
 b84:	00000247          	.4byte	0x247
 b88:	01dc                	.2byte	0x1dc
 b8a:	1000                	.2byte	0x1000
 b8c:	01b1                	.2byte	0x1b1
 b8e:	0000                	.2byte	0x0
 b90:	0c15                	.2byte	0xc15
 b92:	0254                	.2byte	0x254
 b94:	0000                	.2byte	0x0
 b96:	0000                	.2byte	0x0
 b98:	0900                	.2byte	0x900
 b9a:	0242                	.2byte	0x242
 b9c:	0000                	.2byte	0x0
 b9e:	0101                	.2byte	0x101
 ba0:	b408                	.2byte	0xb408
 ba2:	0000                	.2byte	0x0
 ba4:	1c00                	.2byte	0x1c00
 ba6:	0000023b          	.4byte	0x23b
 baa:	001d                	.2byte	0x1d
 bac:	0002                	.2byte	0x2
 bae:	0100                	.2byte	0x100
 bb0:	0612                	.2byte	0x612
 bb2:	5f01                	.2byte	0x5f01
 bb4:	0002                	.2byte	0x2
 bb6:	0700                	.2byte	0x700
 bb8:	12010063          	beqz	sp,cd8 <_fstack+0x6d8>
 bbc:	00023b13          	sltiu	s6,tp,0
 bc0:	0000                	.2byte	0x0
 bc2:	191e                	.2byte	0x191e
 bc4:	0002                	.2byte	0x2
 bc6:	0400                	.2byte	0x400
 bc8:	0325                	.2byte	0x325
 bca:	0314                	.2byte	0x314
 bcc:	0279                	.2byte	0x279
 bce:	0000                	.2byte	0x0
 bd0:	761f 0400 0325      	.byte	0x1f, 0x76, 0x00, 0x04, 0x25, 0x03
 bd6:	5038                	.2byte	0x5038
 bd8:	0000                	.2byte	0x0
 bda:	0000                	.2byte	0x0
 bdc:	880a                	.2byte	0x880a
 bde:	0000                	.2byte	0x0
 be0:	0500                	.2byte	0x500
 be2:	9920                	.2byte	0x9920
 be4:	0002                	.2byte	0x2
 be6:	0700                	.2byte	0x700
 be8:	0076                	.2byte	0x76
 bea:	2005                	.2byte	0x2005
 bec:	00005c33          	srl	s8,zero,zero
 bf0:	0700                	.2byte	0x700
 bf2:	0061                	.2byte	0x61
 bf4:	2005                	.2byte	0x2005
 bf6:	5c44                	.2byte	0x5c44
 bf8:	0000                	.2byte	0x0
 bfa:	0000                	.2byte	0x0
 bfc:	4720                	.2byte	0x4720
 bfe:	0002                	.2byte	0x2
 c00:	9400                	.2byte	0x9400
 c02:	0001                	.2byte	0x1
 c04:	3c10                	.2byte	0x3c10
 c06:	0000                	.2byte	0x0
 c08:	0100                	.2byte	0x100
 c0a:	219c                	.2byte	0x219c
 c0c:	0254                	.2byte	0x254
 c0e:	0000                	.2byte	0x0
 c10:	5a01                	.2byte	0x5a01
 c12:	4722                	.2byte	0x4722
 c14:	0002                	.2byte	0x2
 c16:	b400                	.2byte	0xb400
 c18:	0001                	.2byte	0x1
 c1a:	1c10                	.2byte	0x1c10
 c1c:	0000                	.2byte	0x0
 c1e:	0100                	.2byte	0x100
 c20:	0315                	.2byte	0x315
 c22:	540c                	.2byte	0x540c
 c24:	0002                	.2byte	0x2
 c26:	0000                	.2byte	0x0
 c28:	0000                	.2byte	0x0
 c2a:	0000002b          	.4byte	0x2b
 c2e:	0005                	.2byte	0x5
 c30:	0401                	.2byte	0x401
 c32:	060d                	.2byte	0x60d
 c34:	0000                	.2byte	0x0
 c36:	4b01                	.2byte	0x4b01
 c38:	0031                	.2byte	0x31
 c3a:	0000                	.2byte	0x0
 c3c:	0000                	.2byte	0x0
 c3e:	2438                	.2byte	0x2438
 c40:	023a                	.2byte	0x23a
 c42:	0000                	.2byte	0x0
 c44:	0000027b          	.4byte	0x27b
 c48:	0055                	.2byte	0x55
 c4a:	0000                	.2byte	0x0
 c4c:	8001                	.2byte	0x8001
 c4e:	a002                	.2byte	0xa002
 c50:	0001                	.2byte	0x1
 c52:	0000                	.2byte	0x0
 c54:	0000                	.2byte	0x0
 c56:	2438                	.2byte	0x2438
	...

Disassembly of section .debug_abbrev:

00000000 <.debug_abbrev>:
   0:	1101                	.2byte	0x1101
   2:	1000                	.2byte	0x1000
   4:	12011117          	auipc	sp,0x12011
   8:	1b0e030f          	.4byte	0x1b0e030f
   c:	250e                	.2byte	0x250e
   e:	130e                	.2byte	0x130e
  10:	0005                	.2byte	0x5
  12:	0000                	.2byte	0x0
  14:	2401                	.2byte	0x2401
  16:	0b00                	.2byte	0xb00
  18:	030b3e0b          	.4byte	0x30b3e0b
  1c:	000e                	.2byte	0xe
  1e:	0200                	.2byte	0x200
  20:	0005                	.2byte	0x5
  22:	1331                	.2byte	0x1331
  24:	1702                	.2byte	0x1702
  26:	0000                	.2byte	0x0
  28:	3f012e03          	lw	t3,1008(sp) # 120113f4 <_fdata_rom+0x2010048>
  2c:	0319                	.2byte	0x319
  2e:	3a0e                	.2byte	0x3a0e
  30:	0121                	.2byte	0x121
  32:	21390b3b          	.4byte	0x21390b3b
  36:	490c                	.2byte	0x490c
  38:	01193c13          	sltiu	s8,s2,17
  3c:	04000013          	li	zero,64
  40:	0018                	.2byte	0x18
  42:	0000                	.2byte	0x0
  44:	1d05                	.2byte	0x1d05
  46:	3101                	.2byte	0x3101
  48:	12011113          	.4byte	0x12011113
  4c:	5806                	.2byte	0x5806
  4e:	0121                	.2byte	0x121
  50:	2159                	.2byte	0x2159
  52:	5720                	.2byte	0x5720
  54:	0013010b          	.4byte	0x13010b
  58:	0600                	.2byte	0x600
  5a:	0034                	.2byte	0x34
  5c:	1331                	.2byte	0x1331
  5e:	0000                	.2byte	0x0
  60:	03012e07          	.4byte	0x3012e07
  64:	3a0e                	.2byte	0x3a0e
  66:	0221                	.2byte	0x221
  68:	21390b3b          	.4byte	0x21390b3b
  6c:	271c                	.2byte	0x271c
  6e:	4919                	.2byte	0x4919
  70:	03212013          	slti	zero,sp,50
  74:	1301                	.2byte	0x1301
  76:	0000                	.2byte	0x0
  78:	3408                	.2byte	0x3408
  7a:	0300                	.2byte	0x300
  7c:	3a0e                	.2byte	0x3a0e
  7e:	0221                	.2byte	0x221
  80:	21390b3b          	.4byte	0x21390b3b
  84:	0013490f          	.4byte	0x13490f
  88:	0900                	.2byte	0x900
  8a:	0005                	.2byte	0x5
  8c:	213a0803          	lb	a6,531(s4)
  90:	3b04                	.2byte	0x3b04
  92:	2021                	.2byte	0x2021
  94:	0b39                	.2byte	0xb39
  96:	1349                	.2byte	0x1349
  98:	0000                	.2byte	0x0
  9a:	110a                	.2byte	0x110a
  9c:	2501                	.2byte	0x2501
  9e:	130e                	.2byte	0x130e
  a0:	1b1f030b          	.4byte	0x1b1f030b
  a4:	111f 1201 1006      	.byte	0x1f, 0x11, 0x01, 0x12, 0x06, 0x10
  aa:	0b000017          	auipc	zero,0xb000
  ae:	0016                	.2byte	0x16
  b0:	0b3a0e03          	lb	t3,179(s4)
  b4:	0b390b3b          	.4byte	0xb390b3b
  b8:	1349                	.2byte	0x1349
  ba:	0000                	.2byte	0x0
  bc:	240c                	.2byte	0x240c
  be:	0b00                	.2byte	0xb00
  c0:	030b3e0b          	.4byte	0x30b3e0b
  c4:	0008                	.2byte	0x8
  c6:	0d00                	.2byte	0xd00
  c8:	0034                	.2byte	0x34
  ca:	0b3a0e03          	lb	t3,179(s4)
  ce:	0b390b3b          	.4byte	0xb390b3b
  d2:	1349                	.2byte	0x1349
  d4:	1802193f 2e0e0000 	.8byte	0x2e0e00001802193f
  dc:	3f01                	.2byte	0x3f01
  de:	0319                	.2byte	0x319
  e0:	3a08                	.2byte	0x3a08
  e2:	390b3b0b          	.4byte	0x390b3b0b
  e6:	1119270b          	.4byte	0x1119270b
  ea:	1201                	.2byte	0x1201
  ec:	4006                	.2byte	0x4006
  ee:	7a18                	.2byte	0x7a18
  f0:	0119                	.2byte	0x119
  f2:	0f000013          	li	zero,240
  f6:	0034                	.2byte	0x34
  f8:	0b3a0e03          	lb	t3,179(s4)
  fc:	0b390b3b          	.4byte	0xb390b3b
 100:	1349                	.2byte	0x1349
 102:	1702                	.2byte	0x1702
 104:	0000                	.2byte	0x0
 106:	3410                	.2byte	0x3410
 108:	0300                	.2byte	0x300
 10a:	3a08                	.2byte	0x3a08
 10c:	390b3b0b          	.4byte	0x390b3b0b
 110:	0213490b          	.4byte	0x213490b
 114:	11000017          	auipc	zero,0x11000
 118:	011d                	.2byte	0x11d
 11a:	1331                	.2byte	0x1331
 11c:	0152                	.2byte	0x152
 11e:	1755                	.2byte	0x1755
 120:	0b58                	.2byte	0xb58
 122:	0b59                	.2byte	0xb59
 124:	13010b57          	.4byte	0x13010b57
 128:	0000                	.2byte	0x0
 12a:	1d12                	.2byte	0x1d12
 12c:	3101                	.2byte	0x3101
 12e:	55015213          	.4byte	0x55015213
 132:	590b5817          	auipc	a6,0x590b5
 136:	5705                	.2byte	0x5705
 138:	1300000b          	.4byte	0x1300000b
 13c:	0048                	.2byte	0x48
 13e:	017d                	.2byte	0x17d
 140:	137f                	.2byte	0x137f
 142:	0000                	.2byte	0x0
 144:	4814                	.2byte	0x4814
 146:	7d00                	.2byte	0x7d00
 148:	8201                	.2byte	0x8201
 14a:	1901                	.2byte	0x1901
 14c:	137f                	.2byte	0x137f
 14e:	0000                	.2byte	0x0
 150:	2e15                	.2byte	0x2e15
 152:	0301                	.2byte	0x301
 154:	3a0e                	.2byte	0x3a0e
 156:	39053b0b          	.4byte	0x39053b0b
 15a:	2019270b          	.4byte	0x2019270b
 15e:	0013010b          	.4byte	0x13010b
 162:	1600                	.2byte	0x1600
 164:	0005                	.2byte	0x5
 166:	0b3a0803          	lb	a6,179(s4)
 16a:	0b39053b          	.4byte	0xb39053b
 16e:	1349                	.2byte	0x1349
 170:	0000                	.2byte	0x0
 172:	03012e17          	auipc	t3,0x3012
 176:	3a0e                	.2byte	0x3a0e
 178:	390b3b0b          	.4byte	0x390b3b0b
 17c:	2019270b          	.4byte	0x2019270b
 180:	0000000b          	.4byte	0xb
 184:	4801                	.2byte	0x4801
 186:	7d00                	.2byte	0x7d00
 188:	7f01                	.2byte	0x7f01
 18a:	02000013          	li	zero,32
 18e:	0034                	.2byte	0x34
 190:	1331                	.2byte	0x1331
 192:	1702                	.2byte	0x1702
 194:	0000                	.2byte	0x0
 196:	31000503          	lb	a0,784(zero) # 310 <__DYNAMIC+0x310>
 19a:	00170213          	addi	tp,a4,1 # ff5a0001 <_ebss+0xc759ed11>
 19e:	0400                	.2byte	0x400
 1a0:	0024                	.2byte	0x24
 1a2:	0b3e0b0b          	.4byte	0xb3e0b0b
 1a6:	00000e03          	lb	t3,0(zero) # 0 <__DYNAMIC>
 1aa:	3405                	.2byte	0x3405
 1ac:	0300                	.2byte	0x300
 1ae:	3a08                	.2byte	0x3a08
 1b0:	0121                	.2byte	0x121
 1b2:	0b390b3b          	.4byte	0xb390b3b
 1b6:	1349                	.2byte	0x1349
 1b8:	1702                	.2byte	0x1702
 1ba:	0000                	.2byte	0x0
 1bc:	0506                	.2byte	0x506
 1be:	0300                	.2byte	0x300
 1c0:	3a08                	.2byte	0x3a08
 1c2:	0121                	.2byte	0x121
 1c4:	0b390b3b          	.4byte	0xb390b3b
 1c8:	1349                	.2byte	0x1349
 1ca:	0000                	.2byte	0x0
 1cc:	03003407          	.4byte	0x3003407
 1d0:	3a08                	.2byte	0x3a08
 1d2:	0221                	.2byte	0x221
 1d4:	21390b3b          	.4byte	0x21390b3b
 1d8:	4906                	.2byte	0x4906
 1da:	02193f13          	sltiu	t5,s2,33
 1de:	0018                	.2byte	0x18
 1e0:	0800                	.2byte	0x800
 1e2:	012e                	.2byte	0x12e
 1e4:	0e03193f 3b01213a 	.8byte	0x3b01213a0e03193f
 1ec:	490b390b          	.4byte	0x490b390b
 1f0:	12011113          	.4byte	0x12011113
 1f4:	4006                	.2byte	0x4006
 1f6:	7a18                	.2byte	0x7a18
 1f8:	0119                	.2byte	0x119
 1fa:	09000013          	li	zero,144
 1fe:	011d                	.2byte	0x11d
 200:	1331                	.2byte	0x1331
 202:	0152                	.2byte	0x152
 204:	1755                	.2byte	0x1755
 206:	2158                	.2byte	0x2158
 208:	5901                	.2byte	0x5901
 20a:	000b570b          	.4byte	0xb570b
 20e:	0a00                	.2byte	0xa00
 210:	0049                	.2byte	0x49
 212:	1802                	.2byte	0x1802
 214:	187e                	.2byte	0x187e
 216:	0000                	.2byte	0x0
 218:	4901010b          	.4byte	0x4901010b
 21c:	00130113          	addi	sp,t1,1
 220:	0c00                	.2byte	0xc00
 222:	0021                	.2byte	0x21
 224:	1349                	.2byte	0x1349
 226:	00000b2f          	.4byte	0xb2f
 22a:	340d                	.2byte	0x340d
 22c:	0300                	.2byte	0x300
 22e:	3a08                	.2byte	0x3a08
 230:	0121                	.2byte	0x121
 232:	0b390b3b          	.4byte	0xb390b3b
 236:	1349                	.2byte	0x1349
 238:	0000                	.2byte	0x0
 23a:	2e0e                	.2byte	0x2e0e
 23c:	3101                	.2byte	0x3101
 23e:	12011113          	.4byte	0x12011113
 242:	4006                	.2byte	0x4006
 244:	7a18                	.2byte	0x7a18
 246:	0119                	.2byte	0x119
 248:	0f000013          	li	zero,240
 24c:	0034                	.2byte	0x34
 24e:	213a0e03          	lb	t3,531(s4)
 252:	3b02                	.2byte	0x3b02
 254:	0621390b          	.4byte	0x621390b
 258:	1349                	.2byte	0x1349
 25a:	1802193f 0f100000 	.8byte	0xf1000001802193f
 262:	0b00                	.2byte	0xb00
 264:	0421                	.2byte	0x421
 266:	1349                	.2byte	0x1349
 268:	0000                	.2byte	0x0
 26a:	0b11                	.2byte	0xb11
 26c:	3101                	.2byte	0x3101
 26e:	00175513          	srli	a0,a4,0x1
 272:	1200                	.2byte	0x1200
 274:	1755010b          	.4byte	0x1755010b
 278:	0000                	.2byte	0x0
 27a:	7d014813          	xori	a6,sp,2000
 27e:	7f01                	.2byte	0x7f01
 280:	00130113          	addi	sp,t1,1
 284:	1400                	.2byte	0x1400
 286:	0148                	.2byte	0x148
 288:	017d                	.2byte	0x17d
 28a:	137f                	.2byte	0x137f
 28c:	0000                	.2byte	0x0
 28e:	2e15                	.2byte	0x2e15
 290:	3f01                	.2byte	0x3f01
 292:	0319                	.2byte	0x319
 294:	3a0e                	.2byte	0x3a0e
 296:	0121                	.2byte	0x121
 298:	0b390b3b          	.4byte	0xb390b3b
 29c:	21201927          	.4byte	0x21201927
 2a0:	0101                	.2byte	0x101
 2a2:	16000013          	li	zero,352
 2a6:	0034                	.2byte	0x34
 2a8:	213a0e03          	lb	t3,531(s4)
 2ac:	3b01                	.2byte	0x3b01
 2ae:	0621390b          	.4byte	0x621390b
 2b2:	1349                	.2byte	0x1349
 2b4:	0000                	.2byte	0x0
 2b6:	03003417          	auipc	s0,0x3003
 2ba:	3a08                	.2byte	0x3a08
 2bc:	0121                	.2byte	0x121
 2be:	0b390b3b          	.4byte	0xb390b3b
 2c2:	1349                	.2byte	0x1349
 2c4:	1802                	.2byte	0x1802
 2c6:	0000                	.2byte	0x0
 2c8:	0b18                	.2byte	0xb18
 2ca:	1101                	.2byte	0x1101
 2cc:	1201                	.2byte	0x1201
 2ce:	0006                	.2byte	0x6
 2d0:	1900                	.2byte	0x1900
 2d2:	012e                	.2byte	0x12e
 2d4:	0e03193f 3b01213a 	.8byte	0x3b01213a0e03193f
 2dc:	3021390b          	.4byte	0x3021390b
 2e0:	01111927          	.4byte	0x1111927
 2e4:	0612                	.2byte	0x612
 2e6:	1840                	.2byte	0x1840
 2e8:	197a                	.2byte	0x197a
 2ea:	1301                	.2byte	0x1301
 2ec:	0000                	.2byte	0x0
 2ee:	051a                	.2byte	0x51a
 2f0:	3100                	.2byte	0x3100
 2f2:	1b000013          	li	zero,432
 2f6:	0111                	.2byte	0x111
 2f8:	0e25                	.2byte	0xe25
 2fa:	1f030b13          	addi	s6,t1,496
 2fe:	17551f1b          	.4byte	0x17551f1b
 302:	0111                	.2byte	0x111
 304:	1710                	.2byte	0x1710
 306:	0000                	.2byte	0x0
 308:	161c                	.2byte	0x161c
 30a:	0300                	.2byte	0x300
 30c:	3a0e                	.2byte	0x3a0e
 30e:	390b3b0b          	.4byte	0x390b3b0b
 312:	0013490b          	.4byte	0x13490b
 316:	1d00                	.2byte	0x1d00
 318:	0024                	.2byte	0x24
 31a:	0b3e0b0b          	.4byte	0xb3e0b0b
 31e:	00000803          	lb	a6,0(zero) # 0 <__DYNAMIC>
 322:	2e1e                	.2byte	0x2e1e
 324:	3f01                	.2byte	0x3f01
 326:	0319                	.2byte	0x319
 328:	3a08                	.2byte	0x3a08
 32a:	390b3b0b          	.4byte	0x390b3b0b
 32e:	1113490b          	.4byte	0x1113490b
 332:	1201                	.2byte	0x1201
 334:	4006                	.2byte	0x4006
 336:	7a18                	.2byte	0x7a18
 338:	0119                	.2byte	0x119
 33a:	1f000013          	li	zero,496
 33e:	0034                	.2byte	0x34
 340:	0b3a0803          	lb	a6,179(s4)
 344:	0b390b3b          	.4byte	0xb390b3b
 348:	1349                	.2byte	0x1349
 34a:	0b1c                	.2byte	0xb1c
 34c:	0000                	.2byte	0x0
 34e:	1d20                	.2byte	0x1d20
 350:	3100                	.2byte	0x3100
 352:	12011113          	.4byte	0x12011113
 356:	5806                	.2byte	0x5806
 358:	570b590b          	.4byte	0x570b590b
 35c:	2100000b          	.4byte	0x2100000b
 360:	002e                	.2byte	0x2e
 362:	0e03193f 0b3b0b3a 	.8byte	0xb3b0b3a0e03193f
 36a:	0b39                	.2byte	0xb39
 36c:	0b20                	.2byte	0xb20
 36e:	0000                	.2byte	0x0
 370:	1d22                	.2byte	0x1d22
 372:	3101                	.2byte	0x3101
 374:	55015213          	.4byte	0x55015213
 378:	590b5817          	auipc	a6,0x590b5
 37c:	010b570b          	.4byte	0x10b570b
 380:	23000013          	li	zero,560
 384:	0000010b          	.4byte	0x10b
 388:	2e24                	.2byte	0x2e24
 38a:	3f01                	.2byte	0x3f01
 38c:	0319                	.2byte	0x319
 38e:	3a0e                	.2byte	0x3a0e
 390:	390b3b0b          	.4byte	0x390b3b0b
 394:	4919270b          	.4byte	0x4919270b
 398:	010b2013          	slti	zero,s6,16
 39c:	25000013          	li	zero,592
 3a0:	0026                	.2byte	0x26
 3a2:	1349                	.2byte	0x1349
 3a4:	0000                	.2byte	0x0
 3a6:	0526                	.2byte	0x526
 3a8:	0300                	.2byte	0x300
 3aa:	3a08                	.2byte	0x3a08
 3ac:	390b3b0b          	.4byte	0x390b3b0b
 3b0:	0213490b          	.4byte	0x213490b
 3b4:	27000017          	auipc	zero,0x27000
 3b8:	0005                	.2byte	0x5
 3ba:	0b3a0803          	lb	a6,179(s4)
 3be:	0b390b3b          	.4byte	0xb390b3b
 3c2:	1349                	.2byte	0x1349
 3c4:	1802                	.2byte	0x1802
 3c6:	0000                	.2byte	0x0
 3c8:	0528                	.2byte	0x528
 3ca:	3100                	.2byte	0x3100
 3cc:	00180213          	addi	tp,a6,1 # 590b5379 <_ebss+0x210b4089>
 3d0:	2900                	.2byte	0x2900
 3d2:	011d                	.2byte	0x11d
 3d4:	1331                	.2byte	0x1331
 3d6:	0111                	.2byte	0x111
 3d8:	0612                	.2byte	0x612
 3da:	0b58                	.2byte	0xb58
 3dc:	0b59                	.2byte	0xb59
 3de:	00000b57          	.4byte	0xb57
 3e2:	2e2a                	.2byte	0x2e2a
 3e4:	3100                	.2byte	0x3100
 3e6:	12011113          	.4byte	0x12011113
 3ea:	4006                	.2byte	0x4006
 3ec:	7a18                	.2byte	0x7a18
 3ee:	0019                	.2byte	0x19
 3f0:	2b00                	.2byte	0x2b00
 3f2:	002e                	.2byte	0x2e
 3f4:	193c193f 0e030e6e 	.8byte	0xe030e6e193c193f
 3fc:	0000                	.2byte	0x0
 3fe:	0100                	.2byte	0x100
 400:	0024                	.2byte	0x24
 402:	0b3e0b0b          	.4byte	0xb3e0b0b
 406:	00000e03          	lb	t3,0(zero) # 0 <__DYNAMIC>
 40a:	0502                	.2byte	0x502
 40c:	3100                	.2byte	0x3100
 40e:	00170213          	addi	tp,a4,1
 412:	0300                	.2byte	0x300
 414:	0018                	.2byte	0x18
 416:	0000                	.2byte	0x0
 418:	3404                	.2byte	0x3404
 41a:	0300                	.2byte	0x300
 41c:	3a0e                	.2byte	0x3a0e
 41e:	0221                	.2byte	0x221
 420:	0b390b3b          	.4byte	0xb390b3b
 424:	1349                	.2byte	0x1349
 426:	1702                	.2byte	0x1702
 428:	0000                	.2byte	0x0
 42a:	1d05                	.2byte	0x1d05
 42c:	3101                	.2byte	0x3101
 42e:	12011113          	.4byte	0x12011113
 432:	5806                	.2byte	0x5806
 434:	0221                	.2byte	0x221
 436:	0b59                	.2byte	0xb59
 438:	13010b57          	.4byte	0x13010b57
 43c:	0000                	.2byte	0x0
 43e:	4806                	.2byte	0x4806
 440:	7d00                	.2byte	0x7d00
 442:	7f01                	.2byte	0x7f01
 444:	07000013          	li	zero,112
 448:	0005                	.2byte	0x5
 44a:	0b3a0803          	lb	a6,179(s4)
 44e:	0b390b3b          	.4byte	0xb390b3b
 452:	1349                	.2byte	0x1349
 454:	0000                	.2byte	0x0
 456:	2e08                	.2byte	0x2e08
 458:	3f01                	.2byte	0x3f01
 45a:	0319                	.2byte	0x319
 45c:	3a0e                	.2byte	0x3a0e
 45e:	0221                	.2byte	0x221
 460:	21390b3b          	.4byte	0x21390b3b
 464:	490d                	.2byte	0x490d
 466:	01193c13          	sltiu	s8,s2,17
 46a:	09000013          	li	zero,144
 46e:	210b000f          	.4byte	0x210b000f
 472:	4904                	.2byte	0x4904
 474:	0a000013          	li	zero,160
 478:	012e                	.2byte	0x12e
 47a:	0b3a0e03          	lb	t3,179(s4)
 47e:	21390b3b          	.4byte	0x21390b3b
 482:	2714                	.2byte	0x2714
 484:	2019                	.2byte	0x2019
 486:	0321                	.2byte	0x321
 488:	1301                	.2byte	0x1301
 48a:	0000                	.2byte	0x0
 48c:	31011d0b          	.4byte	0x31011d0b
 490:	55015213          	.4byte	0x55015213
 494:	01215817          	auipc	a6,0x1215
 498:	0b59                	.2byte	0xb59
 49a:	00032157          	.4byte	0x32157
 49e:	0c00                	.2byte	0xc00
 4a0:	0005                	.2byte	0x5
 4a2:	1331                	.2byte	0x1331
 4a4:	0000                	.2byte	0x0
 4a6:	110d                	.2byte	0x110d
 4a8:	2501                	.2byte	0x2501
 4aa:	130e                	.2byte	0x130e
 4ac:	1b1f030b          	.4byte	0x1b1f030b
 4b0:	551f 1117 1001      	.byte	0x1f, 0x55, 0x17, 0x11, 0x01, 0x10
 4b6:	0e000017          	auipc	zero,0xe000
 4ba:	0016                	.2byte	0x16
 4bc:	0b3a0e03          	lb	t3,179(s4)
 4c0:	0b390b3b          	.4byte	0xb390b3b
 4c4:	1349                	.2byte	0x1349
 4c6:	0000                	.2byte	0x0
 4c8:	0b00240f          	.4byte	0xb00240f
 4cc:	030b3e0b          	.4byte	0x30b3e0b
 4d0:	0008                	.2byte	0x8
 4d2:	1000                	.2byte	0x1000
 4d4:	012e                	.2byte	0x12e
 4d6:	0803193f 0b3b0b3a 	.8byte	0xb3b0b3a0803193f
 4de:	0b39                	.2byte	0xb39
 4e0:	1349                	.2byte	0x1349
 4e2:	193c                	.2byte	0x193c
 4e4:	1301                	.2byte	0x1301
 4e6:	0000                	.2byte	0x0
 4e8:	2e11                	.2byte	0x2e11
 4ea:	3f01                	.2byte	0x3f01
 4ec:	0319                	.2byte	0x319
 4ee:	3a0e                	.2byte	0x3a0e
 4f0:	390b3b0b          	.4byte	0x390b3b0b
 4f4:	1201110b          	.4byte	0x1201110b
 4f8:	4006                	.2byte	0x4006
 4fa:	7a18                	.2byte	0x7a18
 4fc:	0119                	.2byte	0x119
 4fe:	12000013          	li	zero,288
 502:	0034                	.2byte	0x34
 504:	0b3a0e03          	lb	t3,179(s4)
 508:	0b390b3b          	.4byte	0xb390b3b
 50c:	1349                	.2byte	0x1349
 50e:	1802                	.2byte	0x1802
 510:	0000                	.2byte	0x0
 512:	11010b13          	addi	s6,sp,272
 516:	1201                	.2byte	0x1201
 518:	0106                	.2byte	0x106
 51a:	14000013          	li	zero,320
 51e:	0034                	.2byte	0x34
 520:	0b3a0803          	lb	a6,179(s4)
 524:	0b390b3b          	.4byte	0xb390b3b
 528:	1349                	.2byte	0x1349
 52a:	1702                	.2byte	0x1702
 52c:	0000                	.2byte	0x0
 52e:	3415                	.2byte	0x3415
 530:	3100                	.2byte	0x3100
 532:	16000013          	li	zero,352
 536:	011d                	.2byte	0x11d
 538:	1331                	.2byte	0x1331
 53a:	0111                	.2byte	0x111
 53c:	0612                	.2byte	0x612
 53e:	0b58                	.2byte	0xb58
 540:	0559                	.2byte	0x559
 542:	00000b57          	.4byte	0xb57
 546:	03000517          	auipc	a0,0x3000
 54a:	3a0e                	.2byte	0x3a0e
 54c:	390b3b0b          	.4byte	0x390b3b0b
 550:	0013490b          	.4byte	0x13490b
 554:	1800                	.2byte	0x1800
 556:	012e                	.2byte	0x12e
 558:	0b3a0e03          	lb	t3,179(s4)
 55c:	0b390b3b          	.4byte	0xb390b3b
 560:	13491927          	.4byte	0x13491927
 564:	0b20                	.2byte	0xb20
 566:	1301                	.2byte	0x1301
 568:	0000                	.2byte	0x0
 56a:	3419                	.2byte	0x3419
 56c:	0300                	.2byte	0x300
 56e:	3a0e                	.2byte	0x3a0e
 570:	390b3b0b          	.4byte	0x390b3b0b
 574:	0013490b          	.4byte	0x13490b
 578:	1a00                	.2byte	0x1a00
 57a:	012e                	.2byte	0x12e
 57c:	0e03193f 0b3b0b3a 	.8byte	0xb3b0b3a0e03193f
 584:	0b39                	.2byte	0xb39
 586:	01111927          	.4byte	0x1111927
 58a:	0612                	.2byte	0x612
 58c:	1840                	.2byte	0x1840
 58e:	197a                	.2byte	0x197a
 590:	1301                	.2byte	0x1301
 592:	0000                	.2byte	0x0
 594:	0300051b          	.4byte	0x300051b
 598:	3a08                	.2byte	0x3a08
 59a:	390b3b0b          	.4byte	0x390b3b0b
 59e:	0213490b          	.4byte	0x213490b
 5a2:	1c000017          	auipc	zero,0x1c000
 5a6:	0026                	.2byte	0x26
 5a8:	1349                	.2byte	0x1349
 5aa:	0000                	.2byte	0x0
 5ac:	2e1d                	.2byte	0x2e1d
 5ae:	3f01                	.2byte	0x3f01
 5b0:	0319                	.2byte	0x319
 5b2:	3a0e                	.2byte	0x3a0e
 5b4:	390b3b0b          	.4byte	0x390b3b0b
 5b8:	2019270b          	.4byte	0x2019270b
 5bc:	0013010b          	.4byte	0x13010b
 5c0:	1e00                	.2byte	0x1e00
 5c2:	012e                	.2byte	0x12e
 5c4:	0b3a0e03          	lb	t3,179(s4)
 5c8:	0b39053b          	.4byte	0xb39053b
 5cc:	0b201927          	.4byte	0xb201927
 5d0:	1301                	.2byte	0x1301
 5d2:	0000                	.2byte	0x0
 5d4:	051f 0300 3a08      	.byte	0x1f, 0x05, 0x00, 0x03, 0x08, 0x3a
 5da:	39053b0b          	.4byte	0x39053b0b
 5de:	0013490b          	.4byte	0x13490b
 5e2:	2000                	.2byte	0x2000
 5e4:	012e                	.2byte	0x12e
 5e6:	1331                	.2byte	0x1331
 5e8:	0111                	.2byte	0x111
 5ea:	0612                	.2byte	0x612
 5ec:	1840                	.2byte	0x1840
 5ee:	197a                	.2byte	0x197a
 5f0:	0000                	.2byte	0x0
 5f2:	0521                	.2byte	0x521
 5f4:	3100                	.2byte	0x3100
 5f6:	00180213          	addi	tp,a6,1 # 1215495 <_fstack+0x1214e95>
 5fa:	2200                	.2byte	0x2200
 5fc:	011d                	.2byte	0x11d
 5fe:	1331                	.2byte	0x1331
 600:	0111                	.2byte	0x111
 602:	0612                	.2byte	0x612
 604:	0b58                	.2byte	0xb58
 606:	0b59                	.2byte	0xb59
 608:	00000b57          	.4byte	0xb57
 60c:	0100                	.2byte	0x100
 60e:	0111                	.2byte	0x111
 610:	1710                	.2byte	0x1710
 612:	0111                	.2byte	0x111
 614:	0f12                	.2byte	0xf12
 616:	0e1b0e03          	lb	t3,225(s6)
 61a:	0e25                	.2byte	0xe25
 61c:	00000513          	li	a0,0
 620:	2e02                	.2byte	0x2e02
 622:	0300                	.2byte	0x300
 624:	3f0e                	.2byte	0x3f0e
 626:	1119                	.2byte	0x1119
 628:	1201                	.2byte	0x1201
 62a:	0000000f          	fence	unknown,unknown

Disassembly of section .debug_aranges:

00000000 <.debug_aranges>:
   0:	001c                	.2byte	0x1c
   2:	0000                	.2byte	0x0
   4:	0002                	.2byte	0x2
   6:	0000                	.2byte	0x0
   8:	0000                	.2byte	0x0
   a:	0004                	.2byte	0x4
   c:	0000                	.2byte	0x0
   e:	0000                	.2byte	0x0
  10:	0000                	.2byte	0x0
  12:	1000                	.2byte	0x1000
  14:	0158                	.2byte	0x158
	...
  1e:	0000                	.2byte	0x0
  20:	001c                	.2byte	0x1c
  22:	0000                	.2byte	0x0
  24:	0002                	.2byte	0x2
  26:	0025                	.2byte	0x25
  28:	0000                	.2byte	0x0
  2a:	0004                	.2byte	0x4
  2c:	0000                	.2byte	0x0
  2e:	0000                	.2byte	0x0
  30:	0158                	.2byte	0x158
  32:	1000                	.2byte	0x1000
  34:	003c                	.2byte	0x3c
	...
  3e:	0000                	.2byte	0x0
  40:	006c                	.2byte	0x6c
  42:	0000                	.2byte	0x0
  44:	0002                	.2byte	0x2
  46:	01f1                	.2byte	0x1f1
  48:	0000                	.2byte	0x0
  4a:	0004                	.2byte	0x4
  4c:	0000                	.2byte	0x0
  4e:	0000                	.2byte	0x0
  50:	0218                	.2byte	0x218
  52:	1000                	.2byte	0x1000
  54:	0018                	.2byte	0x18
  56:	0000                	.2byte	0x0
  58:	0230                	.2byte	0x230
  5a:	1000                	.2byte	0x1000
  5c:	003c                	.2byte	0x3c
  5e:	0000                	.2byte	0x0
  60:	026c                	.2byte	0x26c
  62:	1000                	.2byte	0x1000
  64:	004c                	.2byte	0x4c
  66:	0000                	.2byte	0x0
  68:	02b8                	.2byte	0x2b8
  6a:	1000                	.2byte	0x1000
  6c:	0030                	.2byte	0x30
  6e:	0000                	.2byte	0x0
  70:	02e8                	.2byte	0x2e8
  72:	1000                	.2byte	0x1000
  74:	0028                	.2byte	0x28
  76:	0000                	.2byte	0x0
  78:	0024                	.2byte	0x24
  7a:	3800                	.2byte	0x3800
  7c:	0678                	.2byte	0x678
  7e:	0000                	.2byte	0x0
  80:	069c                	.2byte	0x69c
  82:	3800                	.2byte	0x3800
  84:	0224                	.2byte	0x224
  86:	0000                	.2byte	0x0
  88:	08c0                	.2byte	0x8c0
  8a:	3800                	.2byte	0x3800
  8c:	0274                	.2byte	0x274
  8e:	0000                	.2byte	0x0
  90:	0b34                	.2byte	0xb34
  92:	3800                	.2byte	0x3800
  94:	0230                	.2byte	0x230
  96:	0000                	.2byte	0x0
  98:	0d64                	.2byte	0xd64
  9a:	3800                	.2byte	0x3800
  9c:	0078                	.2byte	0x78
  9e:	0000                	.2byte	0x0
  a0:	0ddc                	.2byte	0xddc
  a2:	3800                	.2byte	0x3800
  a4:	00a8                	.2byte	0xa8
	...
  ae:	0000                	.2byte	0x0
  b0:	0024                	.2byte	0x24
  b2:	0000                	.2byte	0x0
  b4:	0002                	.2byte	0x2
  b6:	00000963          	beqz	zero,c8 <__DYNAMIC+0xc8>
  ba:	0004                	.2byte	0x4
  bc:	0000                	.2byte	0x0
  be:	0000                	.2byte	0x0
  c0:	0194                	.2byte	0x194
  c2:	1000                	.2byte	0x1000
  c4:	0084                	.2byte	0x84
  c6:	0000                	.2byte	0x0
  c8:	0310                	.2byte	0x310
  ca:	1000                	.2byte	0x1000
  cc:	0214                	.2byte	0x214
	...
  d6:	0000                	.2byte	0x0
  d8:	001c                	.2byte	0x1c
  da:	0000                	.2byte	0x0
  dc:	0002                	.2byte	0x2
  de:	0c2a                	.2byte	0xc2a
  e0:	0000                	.2byte	0x0
  e2:	0004                	.2byte	0x4
  e4:	0000                	.2byte	0x0
  e6:	0000                	.2byte	0x0
  e8:	0000                	.2byte	0x0
  ea:	3800                	.2byte	0x3800
  ec:	0024                	.2byte	0x24
	...

Disassembly of section .debug_str:

00000000 <.debug_str>:
   0:	2e2e                	.2byte	0x2e2e
   2:	2f2e2e2f          	.4byte	0x2f2e2e2f
   6:	6966                	.2byte	0x6966
   8:	6d72                	.2byte	0x6d72
   a:	65726177          	.4byte	0x65726177
   e:	7472632f          	.4byte	0x7472632f
  12:	5f30                	.2byte	0x5f30
  14:	6576                	.2byte	0x6576
  16:	2e78                	.2byte	0x2e78
  18:	682f0053          	.4byte	0x682f0053
  1c:	2f656d6f          	jal	s10,56312 <_fstack+0x55d12>
  20:	6275                	.2byte	0x6275
  22:	6e75                	.2byte	0x6e75
  24:	7574                	.2byte	0x7574
  26:	6e69662f          	.4byte	0x6e69662f
  2a:	6c61                	.2byte	0x6c61
  2c:	705f 6f72 656a      	.byte	0x5f, 0x70, 0x72, 0x6f, 0x6a, 0x65
  32:	6c2f7463          	bgeu	t5,sp,6fa <_fstack+0xfa>
  36:	6261                	.2byte	0x6261
  38:	772d                	.2byte	0x772d
  3a:	6f6c                	.2byte	0x6f6c
  3c:	61625f73          	csrrwi	t5,0x616,4
  40:	696c6573          	csrrsi	a0,0x696,24
  44:	656e                	.2byte	0x656e
  46:	7365742f          	.4byte	0x7365742f
  4a:	6274                	.2byte	0x6274
  4c:	6e65                	.2byte	0x6e65
  4e:	742f6863          	bltu	t5,sp,79e <_fstack+0x19e>
  52:	4700706f          	j	74c2 <_fstack+0x6ec2>
  56:	554e                	.2byte	0x554e
  58:	4120                	.2byte	0x4120
  5a:	2e322053          	.4byte	0x2e322053
  5e:	75003933          	.4byte	0x75003933
  62:	5f726573          	csrrsi	a0,0x5f7,4
  66:	7269                	.2byte	0x7269
  68:	5f71                	.2byte	0x5f71
  6a:	5f30                	.2byte	0x5f30
  6c:	7665                	.2byte	0x7665
  6e:	705f 6e65 6964      	.byte	0x5f, 0x70, 0x65, 0x6e, 0x64, 0x69
  74:	676e                	.2byte	0x676e
  76:	775f 6972 6574      	.byte	0x5f, 0x77, 0x72, 0x69, 0x74, 0x65
  7c:	7500                	.2byte	0x7500
  7e:	7261                	.2byte	0x7261
  80:	5f74                	.2byte	0x5f74
  82:	74697277          	.4byte	0x74697277
  86:	0065                	.2byte	0x65
  88:	5f727363          	bgeu	tp,s7,66e <_fstack+0x6e>
  8c:	74697277          	.4byte	0x74697277
  90:	5f65                	.2byte	0x5f65
  92:	706d6973          	csrrsi	s2,0x706,26
  96:	656c                	.2byte	0x656c
  98:	7500                	.2byte	0x7500
  9a:	7261                	.2byte	0x7261
  9c:	5f74                	.2byte	0x5f74
  9e:	6572                	.2byte	0x6572
  a0:	6461                	.2byte	0x6461
  a2:	6300                	.2byte	0x6300
  a4:	746e756f          	jal	a0,e77ea <_fstack+0xe71ea>
  a8:	7265                	.2byte	0x7265
  aa:	7500                	.2byte	0x7500
  ac:	736e                	.2byte	0x736e
  ae:	6769                	.2byte	0x6769
  b0:	656e                	.2byte	0x656e
  b2:	2064                	.2byte	0x2064
  b4:	72616863          	bltu	sp,t1,7e4 <_fstack+0x1e4>
  b8:	7300                	.2byte	0x7300
  ba:	6f68                	.2byte	0x6f68
  bc:	7472                	.2byte	0x7472
  be:	7520                	.2byte	0x7520
  c0:	736e                	.2byte	0x736e
  c2:	6769                	.2byte	0x6769
  c4:	656e                	.2byte	0x656e
  c6:	2064                	.2byte	0x2064
  c8:	6e69                	.2byte	0x6e69
  ca:	0074                	.2byte	0x74
  cc:	7269                	.2byte	0x7269
  ce:	5f71                	.2byte	0x5f71
  d0:	6d746567          	.4byte	0x6d746567
  d4:	7361                	.2byte	0x7361
  d6:	4e47006b          	.4byte	0x4e47006b
  da:	2055                	.2byte	0x2055
  dc:	20373143          	.4byte	0x20373143
  e0:	3231                	.2byte	0x3231
  e2:	312e                	.2byte	0x312e
  e4:	302e                	.2byte	0x302e
  e6:	2d20                	.2byte	0x2d20
  e8:	616d                	.2byte	0x616d
  ea:	6962                	.2byte	0x6962
  ec:	693d                	.2byte	0x693d
  ee:	706c                	.2byte	0x706c
  f0:	2d203233          	.4byte	0x2d203233
  f4:	746d                	.2byte	0x746d
  f6:	6e75                	.2byte	0x6e75
  f8:	3d65                	.2byte	0x3d65
  fa:	6f72                	.2byte	0x6f72
  fc:	74656b63          	bltu	a0,t1,852 <_fstack+0x252>
 100:	2d20                	.2byte	0x2d20
 102:	696d                	.2byte	0x696d
 104:	732d6173          	csrrsi	sp,mhpmevent18h,26
 108:	6570                	.2byte	0x6570
 10a:	2e323d63          	.4byte	0x2e323d63
 10e:	2032                	.2byte	0x2032
 110:	6d2d                	.2byte	0x6d2d
 112:	7261                	.2byte	0x7261
 114:	723d6863          	bltu	s10,gp,844 <_fstack+0x244>
 118:	3376                	.2byte	0x3376
 11a:	6932                	.2byte	0x6932
 11c:	2d20                	.2byte	0x2d20
 11e:	4f2d2067          	.4byte	0x4f2d2067
 122:	662d2033          	.4byte	0x662d2033
 126:	7266                	.2byte	0x7266
 128:	6565                	.2byte	0x6565
 12a:	6e617473          	csrrci	s0,0x6e6,2
 12e:	6964                	.2byte	0x6964
 130:	676e                	.2byte	0x676e
 132:	6c00                	.2byte	0x6c00
 134:	20676e6f          	jal	t3,7633a <_fstack+0x75d3a>
 138:	6f6c                	.2byte	0x6f6c
 13a:	676e                	.2byte	0x676e
 13c:	7520                	.2byte	0x7520
 13e:	736e                	.2byte	0x736e
 140:	6769                	.2byte	0x6769
 142:	656e                	.2byte	0x656e
 144:	2064                	.2byte	0x2064
 146:	6e69                	.2byte	0x6e69
 148:	0074                	.2byte	0x74
 14a:	6f6c                	.2byte	0x6f6c
 14c:	676e                	.2byte	0x676e
 14e:	6c20                	.2byte	0x6c20
 150:	20676e6f          	jal	t3,76356 <_fstack+0x75d56>
 154:	6e69                	.2byte	0x6e69
 156:	0074                	.2byte	0x74
 158:	7269                	.2byte	0x7269
 15a:	7371                	.2byte	0x7371
 15c:	7300                	.2byte	0x7300
 15e:	6f68                	.2byte	0x6f68
 160:	7472                	.2byte	0x7472
 162:	6920                	.2byte	0x6920
 164:	746e                	.2byte	0x746e
 166:	7500                	.2byte	0x7500
 168:	6e69                	.2byte	0x6e69
 16a:	3374                	.2byte	0x3374
 16c:	5f32                	.2byte	0x5f32
 16e:	0074                	.2byte	0x74
 170:	7269                	.2byte	0x7269
 172:	5f71                	.2byte	0x5f71
 174:	6570                	.2byte	0x6570
 176:	646e                	.2byte	0x646e
 178:	6e69                	.2byte	0x6e69
 17a:	6e690067          	jr	1766(s2)
 17e:	7469                	.2byte	0x7469
 180:	6966                	.2byte	0x6966
 182:	0072                	.2byte	0x72
 184:	616d                	.2byte	0x616d
 186:	6d74                	.2byte	0x6d74
 188:	6c75                	.2byte	0x6c75
 18a:	7100                	.2byte	0x7100
 18c:	74726f73          	csrrsi	t5,0x747,4
 190:	7400                	.2byte	0x7400
 192:	6d65                	.2byte	0x6d65
 194:	0070                	.2byte	0x70
 196:	6170                	.2byte	0x6170
 198:	7472                	.2byte	0x7472
 19a:	7469                	.2byte	0x7469
 19c:	6f69                	.2byte	0x6f69
 19e:	006e                	.2byte	0x6e
 1a0:	5f5f 756d 736c      	.byte	0x5f, 0x5f, 0x6d, 0x75, 0x6c, 0x73
 1a6:	3369                	.2byte	0x3369
 1a8:	7500                	.2byte	0x7500
 1aa:	7261                	.2byte	0x7261
 1ac:	5f74                	.2byte	0x5f74
 1ae:	6572                	.2byte	0x6572
 1b0:	6461                	.2byte	0x6461
 1b2:	635f 6168 0072      	.byte	0x5f, 0x63, 0x68, 0x61, 0x72, 0x00
 1b8:	6572                	.2byte	0x6572
 1ba:	746c7573          	csrrci	a0,0x746,24
 1be:	6900                	.2byte	0x6900
 1c0:	706e                	.2byte	0x706e
 1c2:	7475                	.2byte	0x7475
 1c4:	6164                	.2byte	0x6164
 1c6:	6174                	.2byte	0x6174
 1c8:	7500                	.2byte	0x7500
 1ca:	7261                	.2byte	0x7261
 1cc:	5f74                	.2byte	0x5f74
 1ce:	74697277          	.4byte	0x74697277
 1d2:	5f65                	.2byte	0x5f65
 1d4:	72616863          	bltu	sp,t1,904 <_fstack+0x304>
 1d8:	7500                	.2byte	0x7500
 1da:	7261                	.2byte	0x7261
 1dc:	5f74                	.2byte	0x5f74
 1de:	74697277          	.4byte	0x74697277
 1e2:	5f65                	.2byte	0x5f65
 1e4:	69727473          	csrrci	s0,0x697,4
 1e8:	676e                	.2byte	0x676e
 1ea:	7000                	.2byte	0x7000
 1ec:	7669                	.2byte	0x7669
 1ee:	7400746f          	jal	s0,792e <_fstack+0x732e>
 1f2:	706d                	.2byte	0x706d
 1f4:	0031                	.2byte	0x31
 1f6:	6d74                	.2byte	0x6d74
 1f8:	3270                	.2byte	0x3270
 1fa:	7400                	.2byte	0x7400
 1fc:	706d                	.2byte	0x706d
 1fe:	75700033          	.4byte	0x75700033
 202:	6374                	.2byte	0x6374
 204:	6168                	.2byte	0x6168
 206:	0072                	.2byte	0x72
 208:	616d                	.2byte	0x616d
 20a:	6e69                	.2byte	0x6e69
 20c:	6900                	.2byte	0x6900
 20e:	7172                	.2byte	0x7172
 210:	735f 7465 616d      	.byte	0x5f, 0x73, 0x65, 0x74, 0x6d, 0x61
 216:	75006b73          	csrrsi	s6,0x750,0
 21a:	5f726573          	csrrsi	a0,0x5f7,4
 21e:	7269                	.2byte	0x7269
 220:	5f71                	.2byte	0x5f71
 222:	5f30                	.2byte	0x5f30
 224:	7665                	.2byte	0x7665
 226:	655f 616e 6c62      	.byte	0x5f, 0x65, 0x6e, 0x61, 0x62, 0x6c
 22c:	5f65                	.2byte	0x5f65
 22e:	74697277          	.4byte	0x74697277
 232:	0065                	.2byte	0x65
 234:	7270                	.2byte	0x7270
 236:	6e69                	.2byte	0x6e69
 238:	0074                	.2byte	0x74
 23a:	706d742f          	.4byte	0x706d742f
 23e:	5f76722f          	.4byte	0x5f76722f
 242:	2f636367          	.4byte	0x2f636367
 246:	6972                	.2byte	0x6972
 248:	2d766373          	csrrsi	t1,0x2d7,12
 24c:	2d756e67          	.4byte	0x2d756e67
 250:	6f74                	.2byte	0x6f74
 252:	68636c6f          	jal	s8,368d8 <_fstack+0x362d8>
 256:	6961                	.2byte	0x6961
 258:	2f6e                	.2byte	0x2f6e
 25a:	2f636367          	.4byte	0x2f636367
 25e:	696c                	.2byte	0x696c
 260:	6762                	.2byte	0x6762
 262:	632f6363          	bltu	t5,s2,888 <_fstack+0x288>
 266:	69666e6f          	jal	t3,668fc <_fstack+0x662fc>
 26a:	69722f67          	.4byte	0x69722f67
 26e:	2f766373          	csrrsi	t1,0x2f7,12
 272:	756d                	.2byte	0x756d
 274:	646c                	.2byte	0x646c
 276:	3369                	.2byte	0x3369
 278:	532e                	.2byte	0x532e
 27a:	2f00                	.2byte	0x2f00
 27c:	6d74                	.2byte	0x6d74
 27e:	2f70                	.2byte	0x2f70
 280:	7672                	.2byte	0x7672
 282:	675f 6363 722f      	.byte	0x5f, 0x67, 0x63, 0x63, 0x2f, 0x72
 288:	7369                	.2byte	0x7369
 28a:	672d7663          	bgeu	s10,s2,8f6 <_fstack+0x2f6>
 28e:	756e                	.2byte	0x756e
 290:	742d                	.2byte	0x742d
 292:	636c6f6f          	jal	t5,c68c8 <_fstack+0xc62c8>
 296:	6168                	.2byte	0x6168
 298:	6e69                	.2byte	0x6e69
 29a:	6975622f          	.4byte	0x6975622f
 29e:	646c                	.2byte	0x646c
 2a0:	672d                	.2byte	0x672d
 2a2:	6e2d6363          	bltu	s10,sp,988 <_fstack+0x388>
 2a6:	7765                	.2byte	0x7765
 2a8:	696c                	.2byte	0x696c
 2aa:	2d62                	.2byte	0x2d62
 2ac:	67617473          	csrrci	s0,0x676,2
 2b0:	3265                	.2byte	0x3265
 2b2:	7369722f          	.4byte	0x7369722f
 2b6:	32337663          	bgeu	t1,gp,5e2 <__DYNAMIC+0x5e2>
 2ba:	752d                	.2byte	0x752d
 2bc:	6b6e                	.2byte	0x6b6e
 2be:	6f6e                	.2byte	0x6f6e
 2c0:	652d6e77          	.4byte	0x652d6e77
 2c4:	666c                	.2byte	0x666c
 2c6:	62696c2f          	.4byte	0x62696c2f
 2ca:	00636367          	.4byte	0x636367

Disassembly of section .debug_loclists:

00000000 <.debug_loclists>:
       0:	004e                	.2byte	0x4e
       2:	0000                	.2byte	0x0
       4:	0005                	.2byte	0x5
       6:	0004                	.2byte	0x4
       8:	0000                	.2byte	0x0
       a:	0000                	.2byte	0x0
       c:	00016007          	.4byte	0x16007
      10:	6410                	.2byte	0x6410
      12:	0001                	.2byte	0x1
      14:	0610                	.2byte	0x610
      16:	007f                	.2byte	0x7f
      18:	007e                	.2byte	0x7e
      1a:	9f1a                	.2byte	0x9f1a
      1c:	00016407          	.4byte	0x16407
      20:	6810                	.2byte	0x6810
      22:	0001                	.2byte	0x1
      24:	0110                	.2byte	0x110
      26:	005f 8807 0001      	.byte	0x5f, 0x00, 0x07, 0x88, 0x01, 0x00
      2c:	9310                	.2byte	0x9310
      2e:	0001                	.2byte	0x1
      30:	0110                	.2byte	0x110
      32:	005a                	.2byte	0x5a
      34:	00017007          	.4byte	0x17007
      38:	8410                	.2byte	0x8410
      3a:	0001                	.2byte	0x1
      3c:	0210                	.2byte	0x210
      3e:	9f31                	.2byte	0x9f31
      40:	0700                	.2byte	0x700
      42:	0170                	.2byte	0x170
      44:	1000                	.2byte	0x1000
      46:	0184                	.2byte	0x184
      48:	1000                	.2byte	0x1000
      4a:	9e06                	.2byte	0x9e06
      4c:	1004                	.2byte	0x1004
      4e:	0068                	.2byte	0x68
      50:	00f0                	.2byte	0xf0
      52:	1210                	.2byte	0x1210
      54:	0000                	.2byte	0x0
      56:	0005                	.2byte	0x5
      58:	0004                	.2byte	0x4
      5a:	0000                	.2byte	0x0
      5c:	0000                	.2byte	0x0
      5e:	000e5407          	.4byte	0xe5407
      62:	5838                	.2byte	0x5838
      64:	000e                	.2byte	0xe
      66:	0138                	.2byte	0x138
      68:	075f 0e64 3800      	.byte	0x5f, 0x07, 0x64, 0x0e, 0x00, 0x38
      6e:	0e68                	.2byte	0xe68
      70:	3800                	.2byte	0x3800
      72:	5f01                	.2byte	0x5f01
      74:	0700                	.2byte	0x700
      76:	0b34                	.2byte	0xb34
      78:	3800                	.2byte	0x3800
      7a:	0d40                	.2byte	0xd40
      7c:	3800                	.2byte	0x3800
      7e:	3902                	.2byte	0x3902
      80:	009f 3407 000b      	.byte	0x9f, 0x00, 0x07, 0x34, 0x0b, 0x00
      86:	4038                	.2byte	0x4038
      88:	000d                	.2byte	0xd
      8a:	0238                	.2byte	0x238
      8c:	9f30                	.2byte	0x9f30
      8e:	0700                	.2byte	0x700
      90:	0d18                	.2byte	0xd18
      92:	3800                	.2byte	0x3800
      94:	0d24                	.2byte	0xd24
      96:	3800                	.2byte	0x3800
      98:	6401                	.2byte	0x6401
      9a:	000d3007          	.4byte	0xd3007
      9e:	4038                	.2byte	0x4038
      a0:	000d                	.2byte	0xd
      a2:	0338                	.2byte	0x338
      a4:	0179                	.2byte	0x179
      a6:	009f 3407 000b      	.byte	0x9f, 0x00, 0x07, 0x34, 0x0b, 0x00
      ac:	1838                	.2byte	0x1838
      ae:	000d                	.2byte	0xd
      b0:	0238                	.2byte	0x238
      b2:	9f39                	.2byte	0x9f39
      b4:	000d2407          	.4byte	0xd2407
      b8:	3038                	.2byte	0x3038
      ba:	000d                	.2byte	0xd
      bc:	0238                	.2byte	0x238
      be:	9f39                	.2byte	0x9f39
      c0:	0700                	.2byte	0x700
      c2:	0b34                	.2byte	0xb34
      c4:	3800                	.2byte	0x3800
      c6:	0b6c                	.2byte	0xb6c
      c8:	3800                	.2byte	0x3800
      ca:	3002                	.2byte	0x3002
      cc:	079f 0d24 3800      	.byte	0x9f, 0x07, 0x24, 0x0d, 0x00, 0x38
      d2:	0d30                	.2byte	0xd30
      d4:	3800                	.2byte	0x3800
      d6:	5a01                	.2byte	0x5a01
      d8:	0700                	.2byte	0x700
      da:	0b48                	.2byte	0xb48
      dc:	3800                	.2byte	0x3800
      de:	0ce4                	.2byte	0xce4
      e0:	3800                	.2byte	0x3800
      e2:	5f01                	.2byte	0x5f01
      e4:	000d2807          	.4byte	0xd2807
      e8:	3038                	.2byte	0x3038
      ea:	000d                	.2byte	0xd
      ec:	0138                	.2byte	0x138
      ee:	005f 4807 000b      	.byte	0x5f, 0x00, 0x07, 0x48, 0x0b, 0x00
      f4:	6c38                	.2byte	0x6c38
      f6:	0338000b          	.4byte	0x338000b
      fa:	ff09                	.2byte	0xff09
      fc:	079f 0b6c 3800      	.byte	0x9f, 0x07, 0x6c, 0x0b, 0x00, 0x38
     102:	0b9c                	.2byte	0xb9c
     104:	3800                	.2byte	0x3800
     106:	5901                	.2byte	0x5901
     108:	000b9c07          	.4byte	0xb9c07
     10c:	a838                	.2byte	0xa838
     10e:	0338000b          	.4byte	0x338000b
     112:	7f79                	.2byte	0x7f79
     114:	079f 0ba8 3800      	.byte	0x9f, 0x07, 0xa8, 0x0b, 0x00, 0x38
     11a:	0bb0                	.2byte	0xbb0
     11c:	3800                	.2byte	0x3800
     11e:	9f017903          	.4byte	0x9f017903
     122:	000bb007          	.4byte	0xbb007
     126:	cc38                	.2byte	0xcc38
     128:	0138000b          	.4byte	0x138000b
     12c:	0759                	.2byte	0x759
     12e:	0bcc                	.2byte	0xbcc
     130:	3800                	.2byte	0x3800
     132:	0bd8                	.2byte	0xbd8
     134:	3800                	.2byte	0x3800
     136:	9f7f7903          	.4byte	0x9f7f7903
     13a:	000bd807          	.4byte	0xbd807
     13e:	e038                	.2byte	0xe038
     140:	0338000b          	.4byte	0x338000b
     144:	0179                	.2byte	0x179
     146:	079f 0be0 3800      	.byte	0x9f, 0x07, 0xe0, 0x0b, 0x00, 0x38
     14c:	0bfc                	.2byte	0xbfc
     14e:	3800                	.2byte	0x3800
     150:	5901                	.2byte	0x5901
     152:	000bfc07          	.4byte	0xbfc07
     156:	0838                	.2byte	0x838
     158:	000c                	.2byte	0xc
     15a:	0338                	.2byte	0x338
     15c:	7f79                	.2byte	0x7f79
     15e:	079f 0c08 3800      	.byte	0x9f, 0x07, 0x08, 0x0c, 0x00, 0x38
     164:	0c10                	.2byte	0xc10
     166:	3800                	.2byte	0x3800
     168:	9f017903          	.4byte	0x9f017903
     16c:	000c1007          	.4byte	0xc1007
     170:	2c38                	.2byte	0x2c38
     172:	000c                	.2byte	0xc
     174:	0138                	.2byte	0x138
     176:	0759                	.2byte	0x759
     178:	0c2c                	.2byte	0xc2c
     17a:	3800                	.2byte	0x3800
     17c:	0c38                	.2byte	0xc38
     17e:	3800                	.2byte	0x3800
     180:	9f7f7903          	.4byte	0x9f7f7903
     184:	000c3807          	.4byte	0xc3807
     188:	4038                	.2byte	0x4038
     18a:	000c                	.2byte	0xc
     18c:	0338                	.2byte	0x338
     18e:	0179                	.2byte	0x179
     190:	079f 0c40 3800      	.byte	0x9f, 0x07, 0x40, 0x0c, 0x00, 0x38
     196:	0c5c                	.2byte	0xc5c
     198:	3800                	.2byte	0x3800
     19a:	5901                	.2byte	0x5901
     19c:	000c5c07          	.4byte	0xc5c07
     1a0:	6838                	.2byte	0x6838
     1a2:	000c                	.2byte	0xc
     1a4:	0338                	.2byte	0x338
     1a6:	7f79                	.2byte	0x7f79
     1a8:	079f 0c68 3800      	.byte	0x9f, 0x07, 0x68, 0x0c, 0x00, 0x38
     1ae:	0c70                	.2byte	0xc70
     1b0:	3800                	.2byte	0x3800
     1b2:	9f017903          	.4byte	0x9f017903
     1b6:	000c7007          	.4byte	0xc7007
     1ba:	8c38                	.2byte	0x8c38
     1bc:	000c                	.2byte	0xc
     1be:	0138                	.2byte	0x138
     1c0:	0759                	.2byte	0x759
     1c2:	0c8c                	.2byte	0xc8c
     1c4:	3800                	.2byte	0x3800
     1c6:	0c98                	.2byte	0xc98
     1c8:	3800                	.2byte	0x3800
     1ca:	9f7f7903          	.4byte	0x9f7f7903
     1ce:	000c9807          	.4byte	0xc9807
     1d2:	a038                	.2byte	0xa038
     1d4:	000c                	.2byte	0xc
     1d6:	0338                	.2byte	0x338
     1d8:	0179                	.2byte	0x179
     1da:	079f 0ca0 3800      	.byte	0x9f, 0x07, 0xa0, 0x0c, 0x00, 0x38
     1e0:	0cbc                	.2byte	0xcbc
     1e2:	3800                	.2byte	0x3800
     1e4:	5901                	.2byte	0x5901
     1e6:	000cbc07          	.4byte	0xcbc07
     1ea:	c838                	.2byte	0xc838
     1ec:	000c                	.2byte	0xc
     1ee:	0338                	.2byte	0x338
     1f0:	7f79                	.2byte	0x7f79
     1f2:	079f 0cc8 3800      	.byte	0x9f, 0x07, 0xc8, 0x0c, 0x00, 0x38
     1f8:	0cd0                	.2byte	0xcd0
     1fa:	3800                	.2byte	0x3800
     1fc:	9f017903          	.4byte	0x9f017903
     200:	000cd007          	.4byte	0xcd007
     204:	e038                	.2byte	0xe038
     206:	000c                	.2byte	0xc
     208:	0138                	.2byte	0x138
     20a:	0759                	.2byte	0x759
     20c:	0ce0                	.2byte	0xce0
     20e:	3800                	.2byte	0x3800
     210:	0cec                	.2byte	0xcec
     212:	3800                	.2byte	0x3800
     214:	9f7f7903          	.4byte	0x9f7f7903
     218:	000cec07          	.4byte	0xcec07
     21c:	f438                	.2byte	0xf438
     21e:	000c                	.2byte	0xc
     220:	0338                	.2byte	0x338
     222:	0179                	.2byte	0x179
     224:	079f 0cf4 3800      	.byte	0x9f, 0x07, 0xf4, 0x0c, 0x00, 0x38
     22a:	0d18                	.2byte	0xd18
     22c:	3800                	.2byte	0x3800
     22e:	5901                	.2byte	0x5901
     230:	000d2c07          	.4byte	0xd2c07
     234:	3038                	.2byte	0x3038
     236:	000d                	.2byte	0xd
     238:	0138                	.2byte	0x138
     23a:	0064                	.2byte	0x64
     23c:	000b4807          	.4byte	0xb4807
     240:	6c38                	.2byte	0x6c38
     242:	0238000b          	.4byte	0x238000b
     246:	9f30                	.2byte	0x9f30
     248:	000b6c07          	.4byte	0xb6c07
     24c:	8438                	.2byte	0x8438
     24e:	0138000b          	.4byte	0x138000b
     252:	075a                	.2byte	0x75a
     254:	0b84                	.2byte	0xb84
     256:	3800                	.2byte	0x3800
     258:	0b8c                	.2byte	0xb8c
     25a:	3800                	.2byte	0x3800
     25c:	5e01                	.2byte	0x5e01
     25e:	000b8c07          	.4byte	0xb8c07
     262:	b438                	.2byte	0xb438
     264:	0338000b          	.4byte	0x338000b
     268:	017a                	.2byte	0x17a
     26a:	079f 0bb4 3800      	.byte	0x9f, 0x07, 0xb4, 0x0b, 0x00, 0x38
     270:	0bbc                	.2byte	0xbbc
     272:	3800                	.2byte	0x3800
     274:	5e01                	.2byte	0x5e01
     276:	000bbc07          	.4byte	0xbbc07
     27a:	e438                	.2byte	0xe438
     27c:	0338000b          	.4byte	0x338000b
     280:	027a                	.2byte	0x27a
     282:	079f 0be4 3800      	.byte	0x9f, 0x07, 0xe4, 0x0b, 0x00, 0x38
     288:	0bec                	.2byte	0xbec
     28a:	3800                	.2byte	0x3800
     28c:	5e01                	.2byte	0x5e01
     28e:	000bec07          	.4byte	0xbec07
     292:	1438                	.2byte	0x1438
     294:	000c                	.2byte	0xc
     296:	0338                	.2byte	0x338
     298:	037a                	.2byte	0x37a
     29a:	079f 0c14 3800      	.byte	0x9f, 0x07, 0x14, 0x0c, 0x00, 0x38
     2a0:	0c1c                	.2byte	0xc1c
     2a2:	3800                	.2byte	0x3800
     2a4:	5e01                	.2byte	0x5e01
     2a6:	000c1c07          	.4byte	0xc1c07
     2aa:	4438                	.2byte	0x4438
     2ac:	000c                	.2byte	0xc
     2ae:	0338                	.2byte	0x338
     2b0:	047a                	.2byte	0x47a
     2b2:	079f 0c44 3800      	.byte	0x9f, 0x07, 0x44, 0x0c, 0x00, 0x38
     2b8:	0c4c                	.2byte	0xc4c
     2ba:	3800                	.2byte	0x3800
     2bc:	5e01                	.2byte	0x5e01
     2be:	000c4c07          	.4byte	0xc4c07
     2c2:	7438                	.2byte	0x7438
     2c4:	000c                	.2byte	0xc
     2c6:	0338                	.2byte	0x338
     2c8:	057a                	.2byte	0x57a
     2ca:	079f 0c74 3800      	.byte	0x9f, 0x07, 0x74, 0x0c, 0x00, 0x38
     2d0:	0c7c                	.2byte	0xc7c
     2d2:	3800                	.2byte	0x3800
     2d4:	5e01                	.2byte	0x5e01
     2d6:	000c7c07          	.4byte	0xc7c07
     2da:	a438                	.2byte	0xa438
     2dc:	000c                	.2byte	0xc
     2de:	0338                	.2byte	0x338
     2e0:	067a                	.2byte	0x67a
     2e2:	079f 0ca4 3800      	.byte	0x9f, 0x07, 0xa4, 0x0c, 0x00, 0x38
     2e8:	0cac                	.2byte	0xcac
     2ea:	3800                	.2byte	0x3800
     2ec:	5e01                	.2byte	0x5e01
     2ee:	000cac07          	.4byte	0xcac07
     2f2:	d038                	.2byte	0xd038
     2f4:	000c                	.2byte	0xc
     2f6:	0338                	.2byte	0x338
     2f8:	077a                	.2byte	0x77a
     2fa:	079f 0cd0 3800      	.byte	0x9f, 0x07, 0xd0, 0x0c, 0x00, 0x38
     300:	0cd4                	.2byte	0xcd4
     302:	3800                	.2byte	0x3800
     304:	380c                	.2byte	0x380c
     306:	7a39                	.2byte	0x7a39
     308:	3000                	.2byte	0x3000
     30a:	2829                	.2byte	0x2829
     30c:	0001                	.2byte	0x1
     30e:	1316                	.2byte	0x1316
     310:	079f 0cd4 3800      	.byte	0x9f, 0x07, 0xd4, 0x0c, 0x00, 0x38
     316:	0cf4                	.2byte	0xcf4
     318:	3800                	.2byte	0x3800
     31a:	3802                	.2byte	0x3802
     31c:	079f 0d2c 3800      	.byte	0x9f, 0x07, 0x2c, 0x0d, 0x00, 0x38
     322:	0d30                	.2byte	0xd30
     324:	3800                	.2byte	0x3800
     326:	5a01                	.2byte	0x5a01
     328:	0700                	.2byte	0x700
     32a:	0ba8                	.2byte	0xba8
     32c:	3800                	.2byte	0x3800
     32e:	0bac                	.2byte	0xbac
     330:	3800                	.2byte	0x3800
     332:	790a                	.2byte	0x790a
     334:	3201                	.2byte	0x3201
     336:	0324                	.2byte	0x324
     338:	1080                	.2byte	0x1080
     33a:	3800                	.2byte	0x3800
     33c:	0722                	.2byte	0x722
     33e:	0bd8                	.2byte	0xbd8
     340:	3800                	.2byte	0x3800
     342:	0bdc                	.2byte	0xbdc
     344:	3800                	.2byte	0x3800
     346:	790a                	.2byte	0x790a
     348:	3201                	.2byte	0x3201
     34a:	0324                	.2byte	0x324
     34c:	1080                	.2byte	0x1080
     34e:	3800                	.2byte	0x3800
     350:	0722                	.2byte	0x722
     352:	0c08                	.2byte	0xc08
     354:	3800                	.2byte	0x3800
     356:	0c0c                	.2byte	0xc0c
     358:	3800                	.2byte	0x3800
     35a:	790a                	.2byte	0x790a
     35c:	3201                	.2byte	0x3201
     35e:	0324                	.2byte	0x324
     360:	1080                	.2byte	0x1080
     362:	3800                	.2byte	0x3800
     364:	0722                	.2byte	0x722
     366:	0c38                	.2byte	0xc38
     368:	3800                	.2byte	0x3800
     36a:	0c3c                	.2byte	0xc3c
     36c:	3800                	.2byte	0x3800
     36e:	790a                	.2byte	0x790a
     370:	3201                	.2byte	0x3201
     372:	0324                	.2byte	0x324
     374:	1080                	.2byte	0x1080
     376:	3800                	.2byte	0x3800
     378:	0722                	.2byte	0x722
     37a:	0c68                	.2byte	0xc68
     37c:	3800                	.2byte	0x3800
     37e:	0c6c                	.2byte	0xc6c
     380:	3800                	.2byte	0x3800
     382:	790a                	.2byte	0x790a
     384:	3201                	.2byte	0x3201
     386:	0324                	.2byte	0x324
     388:	1080                	.2byte	0x1080
     38a:	3800                	.2byte	0x3800
     38c:	0722                	.2byte	0x722
     38e:	0c98                	.2byte	0xc98
     390:	3800                	.2byte	0x3800
     392:	0c9c                	.2byte	0xc9c
     394:	3800                	.2byte	0x3800
     396:	790a                	.2byte	0x790a
     398:	3201                	.2byte	0x3201
     39a:	0324                	.2byte	0x324
     39c:	1080                	.2byte	0x1080
     39e:	3800                	.2byte	0x3800
     3a0:	0722                	.2byte	0x722
     3a2:	0cc8                	.2byte	0xcc8
     3a4:	3800                	.2byte	0x3800
     3a6:	0ccc                	.2byte	0xccc
     3a8:	3800                	.2byte	0x3800
     3aa:	790a                	.2byte	0x790a
     3ac:	3201                	.2byte	0x3201
     3ae:	0324                	.2byte	0x324
     3b0:	1080                	.2byte	0x1080
     3b2:	3800                	.2byte	0x3800
     3b4:	0722                	.2byte	0x722
     3b6:	0cec                	.2byte	0xcec
     3b8:	3800                	.2byte	0x3800
     3ba:	0cf0                	.2byte	0xcf0
     3bc:	3800                	.2byte	0x3800
     3be:	790a                	.2byte	0x790a
     3c0:	3201                	.2byte	0x3201
     3c2:	0324                	.2byte	0x324
     3c4:	1080                	.2byte	0x1080
     3c6:	3800                	.2byte	0x3800
     3c8:	0722                	.2byte	0x722
     3ca:	0d0c                	.2byte	0xd0c
     3cc:	3800                	.2byte	0x3800
     3ce:	0d18                	.2byte	0xd18
     3d0:	3800                	.2byte	0x3800
     3d2:	5e01                	.2byte	0x5e01
     3d4:	0700                	.2byte	0x700
     3d6:	0024                	.2byte	0x24
     3d8:	3800                	.2byte	0x3800
     3da:	022c                	.2byte	0x22c
     3dc:	3800                	.2byte	0x3800
     3de:	3002                	.2byte	0x3002
     3e0:	079f 022c 3800      	.byte	0x9f, 0x07, 0x2c, 0x02, 0x00, 0x38
     3e6:	03a8                	.2byte	0x3a8
     3e8:	3800                	.2byte	0x3800
     3ea:	3102                	.2byte	0x3102
     3ec:	079f 03a8 3800      	.byte	0x9f, 0x07, 0xa8, 0x03, 0x00, 0x38
     3f2:	0524                	.2byte	0x524
     3f4:	3800                	.2byte	0x3800
     3f6:	3202                	.2byte	0x3202
     3f8:	079f 0524 3800      	.byte	0x9f, 0x07, 0x24, 0x05, 0x00, 0x38
     3fe:	0660                	.2byte	0x660
     400:	3800                	.2byte	0x3800
     402:	3302                	.2byte	0x3302
     404:	079f 0660 3800      	.byte	0x9f, 0x07, 0x60, 0x06, 0x00, 0x38
     40a:	069c                	.2byte	0x69c
     40c:	3800                	.2byte	0x3800
     40e:	3402                	.2byte	0x3402
     410:	009f ec07 0001      	.byte	0x9f, 0x00, 0x07, 0xec, 0x01, 0x00
     416:	2c38                	.2byte	0x2c38
     418:	0002                	.2byte	0x2
     41a:	0238                	.2byte	0x238
     41c:	2c079f33          	.4byte	0x2c079f33
     420:	0002                	.2byte	0x2
     422:	8c38                	.2byte	0x8c38
     424:	0002                	.2byte	0x2
     426:	0238                	.2byte	0x238
     428:	9f30                	.2byte	0x9f30
     42a:	00028c07          	.4byte	0x28c07
     42e:	f038                	.2byte	0xf038
     430:	0002                	.2byte	0x2
     432:	0238                	.2byte	0x238
     434:	9f31                	.2byte	0x9f31
     436:	0002f007          	.4byte	0x2f007
     43a:	5438                	.2byte	0x5438
     43c:	02380003          	lb	zero,35(a6)
     440:	9f32                	.2byte	0x9f32
     442:	00035407          	.4byte	0x35407
     446:	a838                	.2byte	0xa838
     448:	02380003          	lb	zero,35(a6)
     44c:	a8079f33          	.4byte	0xa8079f33
     450:	08380003          	lb	zero,131(a6)
     454:	0004                	.2byte	0x4
     456:	0238                	.2byte	0x238
     458:	9f30                	.2byte	0x9f30
     45a:	00040807          	.4byte	0x40807
     45e:	6c38                	.2byte	0x6c38
     460:	0004                	.2byte	0x4
     462:	0238                	.2byte	0x238
     464:	9f31                	.2byte	0x9f31
     466:	00046c07          	.4byte	0x46c07
     46a:	d038                	.2byte	0xd038
     46c:	0004                	.2byte	0x4
     46e:	0238                	.2byte	0x238
     470:	9f32                	.2byte	0x9f32
     472:	0004d007          	.4byte	0x4d007
     476:	2438                	.2byte	0x2438
     478:	0005                	.2byte	0x5
     47a:	0238                	.2byte	0x238
     47c:	24079f33          	.4byte	0x24079f33
     480:	0005                	.2byte	0x5
     482:	7438                	.2byte	0x7438
     484:	0005                	.2byte	0x5
     486:	0238                	.2byte	0x238
     488:	9f30                	.2byte	0x9f30
     48a:	00057407          	.4byte	0x57407
     48e:	c438                	.2byte	0xc438
     490:	0005                	.2byte	0x5
     492:	0238                	.2byte	0x238
     494:	9f31                	.2byte	0x9f31
     496:	0005c407          	.4byte	0x5c407
     49a:	1038                	.2byte	0x1038
     49c:	0006                	.2byte	0x6
     49e:	0238                	.2byte	0x238
     4a0:	9f32                	.2byte	0x9f32
     4a2:	00061007          	.4byte	0x61007
     4a6:	6038                	.2byte	0x6038
     4a8:	0006                	.2byte	0x6
     4aa:	0238                	.2byte	0x238
     4ac:	60079f33          	.4byte	0x60079f33
     4b0:	0006                	.2byte	0x6
     4b2:	9c38                	.2byte	0x9c38
     4b4:	0006                	.2byte	0x6
     4b6:	0238                	.2byte	0x238
     4b8:	9f34                	.2byte	0x9f34
     4ba:	0700                	.2byte	0x700
     4bc:	01ec                	.2byte	0x1ec
     4be:	3800                	.2byte	0x3800
     4c0:	0204                	.2byte	0x204
     4c2:	3800                	.2byte	0x3800
     4c4:	3102                	.2byte	0x3102
     4c6:	079f 0204 3800      	.byte	0x9f, 0x07, 0x04, 0x02, 0x00, 0x38
     4cc:	0218                	.2byte	0x218
     4ce:	3800                	.2byte	0x3800
     4d0:	3202                	.2byte	0x3202
     4d2:	079f 0218 3800      	.byte	0x9f, 0x07, 0x18, 0x02, 0x00, 0x38
     4d8:	022c                	.2byte	0x22c
     4da:	3800                	.2byte	0x3800
     4dc:	3402                	.2byte	0x3402
     4de:	079f 022c 3800      	.byte	0x9f, 0x07, 0x2c, 0x02, 0x00, 0x38
     4e4:	0238                	.2byte	0x238
     4e6:	3800                	.2byte	0x3800
     4e8:	3002                	.2byte	0x3002
     4ea:	079f 0238 3800      	.byte	0x9f, 0x07, 0x38, 0x02, 0x00, 0x38
     4f0:	025c                	.2byte	0x25c
     4f2:	3800                	.2byte	0x3800
     4f4:	3102                	.2byte	0x3102
     4f6:	079f 025c 3800      	.byte	0x9f, 0x07, 0x5c, 0x02, 0x00, 0x38
     4fc:	0278                	.2byte	0x278
     4fe:	3800                	.2byte	0x3800
     500:	3202                	.2byte	0x3202
     502:	079f 0278 3800      	.byte	0x9f, 0x07, 0x78, 0x02, 0x00, 0x38
     508:	028c                	.2byte	0x28c
     50a:	3800                	.2byte	0x3800
     50c:	3402                	.2byte	0x3402
     50e:	079f 028c 3800      	.byte	0x9f, 0x07, 0x8c, 0x02, 0x00, 0x38
     514:	02c0                	.2byte	0x2c0
     516:	3800                	.2byte	0x3800
     518:	3102                	.2byte	0x3102
     51a:	079f 02c0 3800      	.byte	0x9f, 0x07, 0xc0, 0x02, 0x00, 0x38
     520:	02dc                	.2byte	0x2dc
     522:	3800                	.2byte	0x3800
     524:	3202                	.2byte	0x3202
     526:	079f 02dc 3800      	.byte	0x9f, 0x07, 0xdc, 0x02, 0x00, 0x38
     52c:	02f0                	.2byte	0x2f0
     52e:	3800                	.2byte	0x3800
     530:	3402                	.2byte	0x3402
     532:	079f 02f0 3800      	.byte	0x9f, 0x07, 0xf0, 0x02, 0x00, 0x38
     538:	0324                	.2byte	0x324
     53a:	3800                	.2byte	0x3800
     53c:	3102                	.2byte	0x3102
     53e:	079f 0324 3800      	.byte	0x9f, 0x07, 0x24, 0x03, 0x00, 0x38
     544:	0340                	.2byte	0x340
     546:	3800                	.2byte	0x3800
     548:	3202                	.2byte	0x3202
     54a:	079f 0340 3800      	.byte	0x9f, 0x07, 0x40, 0x03, 0x00, 0x38
     550:	0354                	.2byte	0x354
     552:	3800                	.2byte	0x3800
     554:	3402                	.2byte	0x3402
     556:	079f 0354 3800      	.byte	0x9f, 0x07, 0x54, 0x03, 0x00, 0x38
     55c:	0380                	.2byte	0x380
     55e:	3800                	.2byte	0x3800
     560:	3102                	.2byte	0x3102
     562:	079f 0380 3800      	.byte	0x9f, 0x07, 0x80, 0x03, 0x00, 0x38
     568:	0394                	.2byte	0x394
     56a:	3800                	.2byte	0x3800
     56c:	3202                	.2byte	0x3202
     56e:	079f 0394 3800      	.byte	0x9f, 0x07, 0x94, 0x03, 0x00, 0x38
     574:	03a8                	.2byte	0x3a8
     576:	3800                	.2byte	0x3800
     578:	3402                	.2byte	0x3402
     57a:	079f 03a8 3800      	.byte	0x9f, 0x07, 0xa8, 0x03, 0x00, 0x38
     580:	03d8                	.2byte	0x3d8
     582:	3800                	.2byte	0x3800
     584:	3102                	.2byte	0x3102
     586:	079f 03d8 3800      	.byte	0x9f, 0x07, 0xd8, 0x03, 0x00, 0x38
     58c:	03f4                	.2byte	0x3f4
     58e:	3800                	.2byte	0x3800
     590:	3202                	.2byte	0x3202
     592:	079f 03f4 3800      	.byte	0x9f, 0x07, 0xf4, 0x03, 0x00, 0x38
     598:	0408                	.2byte	0x408
     59a:	3800                	.2byte	0x3800
     59c:	3402                	.2byte	0x3402
     59e:	079f 0408 3800      	.byte	0x9f, 0x07, 0x08, 0x04, 0x00, 0x38
     5a4:	043c                	.2byte	0x43c
     5a6:	3800                	.2byte	0x3800
     5a8:	3102                	.2byte	0x3102
     5aa:	079f 043c 3800      	.byte	0x9f, 0x07, 0x3c, 0x04, 0x00, 0x38
     5b0:	0458                	.2byte	0x458
     5b2:	3800                	.2byte	0x3800
     5b4:	3202                	.2byte	0x3202
     5b6:	079f 0458 3800      	.byte	0x9f, 0x07, 0x58, 0x04, 0x00, 0x38
     5bc:	046c                	.2byte	0x46c
     5be:	3800                	.2byte	0x3800
     5c0:	3402                	.2byte	0x3402
     5c2:	079f 046c 3800      	.byte	0x9f, 0x07, 0x6c, 0x04, 0x00, 0x38
     5c8:	04a0                	.2byte	0x4a0
     5ca:	3800                	.2byte	0x3800
     5cc:	3102                	.2byte	0x3102
     5ce:	079f 04a0 3800      	.byte	0x9f, 0x07, 0xa0, 0x04, 0x00, 0x38
     5d4:	04bc                	.2byte	0x4bc
     5d6:	3800                	.2byte	0x3800
     5d8:	3202                	.2byte	0x3202
     5da:	079f 04bc 3800      	.byte	0x9f, 0x07, 0xbc, 0x04, 0x00, 0x38
     5e0:	04d0                	.2byte	0x4d0
     5e2:	3800                	.2byte	0x3800
     5e4:	3402                	.2byte	0x3402
     5e6:	079f 04d0 3800      	.byte	0x9f, 0x07, 0xd0, 0x04, 0x00, 0x38
     5ec:	04fc                	.2byte	0x4fc
     5ee:	3800                	.2byte	0x3800
     5f0:	3102                	.2byte	0x3102
     5f2:	079f 04fc 3800      	.byte	0x9f, 0x07, 0xfc, 0x04, 0x00, 0x38
     5f8:	0510                	.2byte	0x510
     5fa:	3800                	.2byte	0x3800
     5fc:	3202                	.2byte	0x3202
     5fe:	079f 0510 3800      	.byte	0x9f, 0x07, 0x10, 0x05, 0x00, 0x38
     604:	0524                	.2byte	0x524
     606:	3800                	.2byte	0x3800
     608:	3402                	.2byte	0x3402
     60a:	079f 0524 3800      	.byte	0x9f, 0x07, 0x24, 0x05, 0x00, 0x38
     610:	054c                	.2byte	0x54c
     612:	3800                	.2byte	0x3800
     614:	3102                	.2byte	0x3102
     616:	079f 054c 3800      	.byte	0x9f, 0x07, 0x4c, 0x05, 0x00, 0x38
     61c:	0560                	.2byte	0x560
     61e:	3800                	.2byte	0x3800
     620:	3202                	.2byte	0x3202
     622:	079f 0560 3800      	.byte	0x9f, 0x07, 0x60, 0x05, 0x00, 0x38
     628:	0574                	.2byte	0x574
     62a:	3800                	.2byte	0x3800
     62c:	3402                	.2byte	0x3402
     62e:	079f 0574 3800      	.byte	0x9f, 0x07, 0x74, 0x05, 0x00, 0x38
     634:	05a0                	.2byte	0x5a0
     636:	3800                	.2byte	0x3800
     638:	3102                	.2byte	0x3102
     63a:	079f 05a0 3800      	.byte	0x9f, 0x07, 0xa0, 0x05, 0x00, 0x38
     640:	05b4                	.2byte	0x5b4
     642:	3800                	.2byte	0x3800
     644:	3202                	.2byte	0x3202
     646:	079f 05b4 3800      	.byte	0x9f, 0x07, 0xb4, 0x05, 0x00, 0x38
     64c:	05c4                	.2byte	0x5c4
     64e:	3800                	.2byte	0x3800
     650:	3402                	.2byte	0x3402
     652:	079f 05c4 3800      	.byte	0x9f, 0x07, 0xc4, 0x05, 0x00, 0x38
     658:	05ec                	.2byte	0x5ec
     65a:	3800                	.2byte	0x3800
     65c:	3102                	.2byte	0x3102
     65e:	079f 05ec 3800      	.byte	0x9f, 0x07, 0xec, 0x05, 0x00, 0x38
     664:	0600                	.2byte	0x600
     666:	3800                	.2byte	0x3800
     668:	3202                	.2byte	0x3202
     66a:	079f 0600 3800      	.byte	0x9f, 0x07, 0x00, 0x06, 0x00, 0x38
     670:	0610                	.2byte	0x610
     672:	3800                	.2byte	0x3800
     674:	3402                	.2byte	0x3402
     676:	079f 0610 3800      	.byte	0x9f, 0x07, 0x10, 0x06, 0x00, 0x38
     67c:	0638                	.2byte	0x638
     67e:	3800                	.2byte	0x3800
     680:	3102                	.2byte	0x3102
     682:	079f 0638 3800      	.byte	0x9f, 0x07, 0x38, 0x06, 0x00, 0x38
     688:	064c                	.2byte	0x64c
     68a:	3800                	.2byte	0x3800
     68c:	3202                	.2byte	0x3202
     68e:	079f 064c 3800      	.byte	0x9f, 0x07, 0x4c, 0x06, 0x00, 0x38
     694:	069c                	.2byte	0x69c
     696:	3800                	.2byte	0x3800
     698:	3402                	.2byte	0x3402
     69a:	009f ec07 0001      	.byte	0x9f, 0x00, 0x07, 0xec, 0x01, 0x00
     6a0:	f338                	.2byte	0xf338
     6a2:	0001                	.2byte	0x1
     6a4:	0638                	.2byte	0x638
     6a6:	007a                	.2byte	0x7a
     6a8:	9f1e007b          	.4byte	0x9f1e007b
     6ac:	00020407          	.4byte	0x20407
     6b0:	1838                	.2byte	0x1838
     6b2:	0002                	.2byte	0x2
     6b4:	0138                	.2byte	0x138
     6b6:	0768                	.2byte	0x768
     6b8:	0218                	.2byte	0x218
     6ba:	3800                	.2byte	0x3800
     6bc:	3800021b          	.4byte	0x3800021b
     6c0:	8a09                	.2byte	0x8a09
     6c2:	7b00                	.2byte	0x7b00
     6c4:	1e00                	.2byte	0x1e00
     6c6:	0088                	.2byte	0x88
     6c8:	9f22                	.2byte	0x9f22
     6ca:	00021b07          	.4byte	0x21b07
     6ce:	2c38                	.2byte	0x2c38
     6d0:	0002                	.2byte	0x2
     6d2:	0938                	.2byte	0x938
     6d4:	008a                	.2byte	0x8a
     6d6:	0082                	.2byte	0x82
     6d8:	881e                	.2byte	0x881e
     6da:	2200                	.2byte	0x2200
     6dc:	079f 022c 3800      	.byte	0x9f, 0x07, 0x2c, 0x02, 0x00, 0x38
     6e2:	0238                	.2byte	0x238
     6e4:	3800                	.2byte	0x3800
     6e6:	3002                	.2byte	0x3002
     6e8:	079f 0238 3800      	.byte	0x9f, 0x07, 0x38, 0x02, 0x00, 0x38
     6ee:	025c                	.2byte	0x25c
     6f0:	3800                	.2byte	0x3800
     6f2:	9108                	.2byte	0x9108
     6f4:	7fa4                	.2byte	0x7fa4
     6f6:	8a06                	.2byte	0x8a06
     6f8:	1e00                	.2byte	0x1e00
     6fa:	079f 025c 3800      	.byte	0x9f, 0x07, 0x5c, 0x02, 0x00, 0x38
     700:	025f 3800 5f01      	.byte	0x5f, 0x02, 0x00, 0x38, 0x01, 0x5f
     706:	00025f07          	.4byte	0x25f07
     70a:	7838                	.2byte	0x7838
     70c:	0002                	.2byte	0x2
     70e:	0338                	.2byte	0x338
     710:	bc91                	.2byte	0xbc91
     712:	077f                	.2byte	0x77f
     714:	0278                	.2byte	0x278
     716:	3800                	.2byte	0x3800
     718:	3800027b          	.4byte	0x3800027b
     71c:	7a09                	.2byte	0x7a09
     71e:	8600                	.2byte	0x8600
     720:	1e00                	.2byte	0x1e00
     722:	007f                	.2byte	0x7f
     724:	9f22                	.2byte	0x9f22
     726:	00027b07          	.4byte	0x27b07
     72a:	8c38                	.2byte	0x8c38
     72c:	0002                	.2byte	0x2
     72e:	0b38                	.2byte	0xb38
     730:	0088                	.2byte	0x88
     732:	0086                	.2byte	0x86
     734:	911e                	.2byte	0x911e
     736:	7fbc                	.2byte	0x7fbc
     738:	2206                	.2byte	0x2206
     73a:	079f 028c 3800      	.byte	0x9f, 0x07, 0x8c, 0x02, 0x00, 0x38
     740:	02c0                	.2byte	0x2c0
     742:	3800                	.2byte	0x3800
     744:	8a06                	.2byte	0x8a06
     746:	8500                	.2byte	0x8500
     748:	1e00                	.2byte	0x1e00
     74a:	079f 02c0 3800      	.byte	0x9f, 0x07, 0xc0, 0x02, 0x00, 0x38
     750:	380002c3          	.4byte	0x380002c3
     754:	5f01                	.2byte	0x5f01
     756:	0002c307          	.4byte	0x2c307
     75a:	dc38                	.2byte	0xdc38
     75c:	0002                	.2byte	0x2
     75e:	0338                	.2byte	0x338
     760:	bc91                	.2byte	0xbc91
     762:	077f                	.2byte	0x77f
     764:	02dc                	.2byte	0x2dc
     766:	3800                	.2byte	0x3800
     768:	02df 3800 880b      	.byte	0xdf, 0x02, 0x00, 0x38, 0x0b, 0x88
     76e:	9100                	.2byte	0x9100
     770:	7f94                	.2byte	0x7f94
     772:	1e06                	.2byte	0x1e06
     774:	007f                	.2byte	0x7f
     776:	9f22                	.2byte	0x9f22
     778:	0002df07          	.4byte	0x2df07
     77c:	f038                	.2byte	0xf038
     77e:	0002                	.2byte	0x2
     780:	0d38                	.2byte	0xd38
     782:	0088                	.2byte	0x88
     784:	9491                	.2byte	0x9491
     786:	067f                	.2byte	0x67f
     788:	911e                	.2byte	0x911e
     78a:	7fbc                	.2byte	0x7fbc
     78c:	2206                	.2byte	0x2206
     78e:	079f 02f0 3800      	.byte	0x9f, 0x07, 0xf0, 0x02, 0x00, 0x38
     794:	0324                	.2byte	0x324
     796:	3800                	.2byte	0x3800
     798:	8a08                	.2byte	0x8a08
     79a:	9100                	.2byte	0x9100
     79c:	7f98                	.2byte	0x7f98
     79e:	1e06                	.2byte	0x1e06
     7a0:	079f 0324 3800      	.byte	0x9f, 0x07, 0x24, 0x03, 0x00, 0x38
     7a6:	38000327          	.4byte	0x38000327
     7aa:	5f01                	.2byte	0x5f01
     7ac:	00032707          	.4byte	0x32707
     7b0:	4038                	.2byte	0x4038
     7b2:	03380003          	lb	zero,51(a6)
     7b6:	bc91                	.2byte	0xbc91
     7b8:	077f                	.2byte	0x77f
     7ba:	0340                	.2byte	0x340
     7bc:	3800                	.2byte	0x3800
     7be:	38000343          	.4byte	0x38000343
     7c2:	9100880b          	.4byte	0x9100880b
     7c6:	7f9c                	.2byte	0x7f9c
     7c8:	1e06                	.2byte	0x1e06
     7ca:	007f                	.2byte	0x7f
     7cc:	9f22                	.2byte	0x9f22
     7ce:	00034307          	.4byte	0x34307
     7d2:	5438                	.2byte	0x5438
     7d4:	0d380003          	lb	zero,211(a6)
     7d8:	0088                	.2byte	0x88
     7da:	9c91                	.2byte	0x9c91
     7dc:	067f                	.2byte	0x67f
     7de:	911e                	.2byte	0x911e
     7e0:	7fbc                	.2byte	0x7fbc
     7e2:	2206                	.2byte	0x2206
     7e4:	079f 0354 3800      	.byte	0x9f, 0x07, 0x54, 0x03, 0x00, 0x38
     7ea:	036c                	.2byte	0x36c
     7ec:	3800                	.2byte	0x3800
     7ee:	8a08                	.2byte	0x8a08
     7f0:	9100                	.2byte	0x9100
     7f2:	7fa0                	.2byte	0x7fa0
     7f4:	1e06                	.2byte	0x1e06
     7f6:	079f 036c 3800      	.byte	0x9f, 0x07, 0x6c, 0x03, 0x00, 0x38
     7fc:	3800036f          	jal	t1,b7c <_fstack+0x57c>
     800:	7a08                	.2byte	0x7a08
     802:	9100                	.2byte	0x9100
     804:	7fa0                	.2byte	0x7fa0
     806:	1e06                	.2byte	0x1e06
     808:	079f 0380 3800      	.byte	0x9f, 0x07, 0x80, 0x03, 0x00, 0x38
     80e:	0394                	.2byte	0x394
     810:	3800                	.2byte	0x3800
     812:	6901                	.2byte	0x6901
     814:	00039407          	.4byte	0x39407
     818:	a838                	.2byte	0xa838
     81a:	09380003          	lb	zero,147(a6)
     81e:	0088                	.2byte	0x88
     820:	0082                	.2byte	0x82
     822:	891e                	.2byte	0x891e
     824:	2200                	.2byte	0x2200
     826:	079f 03a8 3800      	.byte	0x9f, 0x07, 0xa8, 0x03, 0x00, 0x38
     82c:	03d8                	.2byte	0x3d8
     82e:	3800                	.2byte	0x3800
     830:	8b08                	.2byte	0x8b08
     832:	9100                	.2byte	0x9100
     834:	7fa4                	.2byte	0x7fa4
     836:	1e06                	.2byte	0x1e06
     838:	079f 03d8 3800      	.byte	0x9f, 0x07, 0xd8, 0x03, 0x00, 0x38
     83e:	380003db          	.4byte	0x380003db
     842:	5f01                	.2byte	0x5f01
     844:	0003db07          	.4byte	0x3db07
     848:	f438                	.2byte	0xf438
     84a:	03380003          	lb	zero,51(a6)
     84e:	bc91                	.2byte	0xbc91
     850:	077f                	.2byte	0x77f
     852:	03f4                	.2byte	0x3f4
     854:	3800                	.2byte	0x3800
     856:	380003f7          	.4byte	0x380003f7
     85a:	7a09                	.2byte	0x7a09
     85c:	8600                	.2byte	0x8600
     85e:	1e00                	.2byte	0x1e00
     860:	007f                	.2byte	0x7f
     862:	9f22                	.2byte	0x9f22
     864:	0003f707          	.4byte	0x3f707
     868:	0838                	.2byte	0x838
     86a:	0004                	.2byte	0x4
     86c:	0b38                	.2byte	0xb38
     86e:	0088                	.2byte	0x88
     870:	0086                	.2byte	0x86
     872:	911e                	.2byte	0x911e
     874:	7fbc                	.2byte	0x7fbc
     876:	2206                	.2byte	0x2206
     878:	079f 0408 3800      	.byte	0x9f, 0x07, 0x08, 0x04, 0x00, 0x38
     87e:	043c                	.2byte	0x43c
     880:	3800                	.2byte	0x3800
     882:	8b06                	.2byte	0x8b06
     884:	8500                	.2byte	0x8500
     886:	1e00                	.2byte	0x1e00
     888:	079f 043c 3800      	.byte	0x9f, 0x07, 0x3c, 0x04, 0x00, 0x38
     88e:	3800043f 3f075f01 	.8byte	0x3f075f013800043f
     896:	0004                	.2byte	0x4
     898:	5838                	.2byte	0x5838
     89a:	0004                	.2byte	0x4
     89c:	0338                	.2byte	0x338
     89e:	bc91                	.2byte	0xbc91
     8a0:	077f                	.2byte	0x77f
     8a2:	0458                	.2byte	0x458
     8a4:	3800                	.2byte	0x3800
     8a6:	3800045b          	.4byte	0x3800045b
     8aa:	9100880b          	.4byte	0x9100880b
     8ae:	7f94                	.2byte	0x7f94
     8b0:	1e06                	.2byte	0x1e06
     8b2:	007f                	.2byte	0x7f
     8b4:	9f22                	.2byte	0x9f22
     8b6:	00045b07          	.4byte	0x45b07
     8ba:	6c38                	.2byte	0x6c38
     8bc:	0004                	.2byte	0x4
     8be:	0d38                	.2byte	0xd38
     8c0:	0088                	.2byte	0x88
     8c2:	9491                	.2byte	0x9491
     8c4:	067f                	.2byte	0x67f
     8c6:	911e                	.2byte	0x911e
     8c8:	7fbc                	.2byte	0x7fbc
     8ca:	2206                	.2byte	0x2206
     8cc:	079f 046c 3800      	.byte	0x9f, 0x07, 0x6c, 0x04, 0x00, 0x38
     8d2:	04a0                	.2byte	0x4a0
     8d4:	3800                	.2byte	0x3800
     8d6:	8b08                	.2byte	0x8b08
     8d8:	9100                	.2byte	0x9100
     8da:	7f98                	.2byte	0x7f98
     8dc:	1e06                	.2byte	0x1e06
     8de:	079f 04a0 3800      	.byte	0x9f, 0x07, 0xa0, 0x04, 0x00, 0x38
     8e4:	380004a3          	sb	zero,905(zero) # 389 <__DYNAMIC+0x389>
     8e8:	5f01                	.2byte	0x5f01
     8ea:	0004a307          	.4byte	0x4a307
     8ee:	bc38                	.2byte	0xbc38
     8f0:	0004                	.2byte	0x4
     8f2:	0338                	.2byte	0x338
     8f4:	bc91                	.2byte	0xbc91
     8f6:	077f                	.2byte	0x77f
     8f8:	04bc                	.2byte	0x4bc
     8fa:	3800                	.2byte	0x3800
     8fc:	380004bf 9100880b 	.8byte	0x9100880b380004bf
     904:	7f9c                	.2byte	0x7f9c
     906:	1e06                	.2byte	0x1e06
     908:	007f                	.2byte	0x7f
     90a:	9f22                	.2byte	0x9f22
     90c:	0004bf07          	.4byte	0x4bf07
     910:	d038                	.2byte	0xd038
     912:	0004                	.2byte	0x4
     914:	0d38                	.2byte	0xd38
     916:	0088                	.2byte	0x88
     918:	9c91                	.2byte	0x9c91
     91a:	067f                	.2byte	0x67f
     91c:	911e                	.2byte	0x911e
     91e:	7fbc                	.2byte	0x7fbc
     920:	2206                	.2byte	0x2206
     922:	079f 04d0 3800      	.byte	0x9f, 0x07, 0xd0, 0x04, 0x00, 0x38
     928:	04fc                	.2byte	0x4fc
     92a:	3800                	.2byte	0x3800
     92c:	8b08                	.2byte	0x8b08
     92e:	9100                	.2byte	0x9100
     930:	7fa0                	.2byte	0x7fa0
     932:	1e06                	.2byte	0x1e06
     934:	079f 04fc 3800      	.byte	0x9f, 0x07, 0xfc, 0x04, 0x00, 0x38
     93a:	0510                	.2byte	0x510
     93c:	3800                	.2byte	0x3800
     93e:	6a01                	.2byte	0x6a01
     940:	00051007          	.4byte	0x51007
     944:	1338                	.2byte	0x1338
     946:	0005                	.2byte	0x5
     948:	0938                	.2byte	0x938
     94a:	007a                	.2byte	0x7a
     94c:	0082                	.2byte	0x82
     94e:	881e                	.2byte	0x881e
     950:	2200                	.2byte	0x2200
     952:	079f 0524 3800      	.byte	0x9f, 0x07, 0x24, 0x05, 0x00, 0x38
     958:	054c                	.2byte	0x54c
     95a:	3800                	.2byte	0x3800
     95c:	8a08                	.2byte	0x8a08
     95e:	9100                	.2byte	0x9100
     960:	7fa4                	.2byte	0x7fa4
     962:	1e06                	.2byte	0x1e06
     964:	079f 054c 3800      	.byte	0x9f, 0x07, 0x4c, 0x05, 0x00, 0x38
     96a:	0560                	.2byte	0x560
     96c:	3800                	.2byte	0x3800
     96e:	6701                	.2byte	0x6701
     970:	00056007          	.4byte	0x56007
     974:	7438                	.2byte	0x7438
     976:	0005                	.2byte	0x5
     978:	0938                	.2byte	0x938
     97a:	0078                	.2byte	0x78
     97c:	0086                	.2byte	0x86
     97e:	871e                	.2byte	0x871e
     980:	2200                	.2byte	0x2200
     982:	079f 0574 3800      	.byte	0x9f, 0x07, 0x74, 0x05, 0x00, 0x38
     988:	05a0                	.2byte	0x5a0
     98a:	3800                	.2byte	0x3800
     98c:	8a06                	.2byte	0x8a06
     98e:	8500                	.2byte	0x8500
     990:	1e00                	.2byte	0x1e00
     992:	079f 05a0 3800      	.byte	0x9f, 0x07, 0xa0, 0x05, 0x00, 0x38
     998:	05b4                	.2byte	0x5b4
     99a:	3800                	.2byte	0x3800
     99c:	6401                	.2byte	0x6401
     99e:	0005b407          	.4byte	0x5b407
     9a2:	c438                	.2byte	0xc438
     9a4:	0005                	.2byte	0x5
     9a6:	0b38                	.2byte	0xb38
     9a8:	0078                	.2byte	0x78
     9aa:	9491                	.2byte	0x9491
     9ac:	067f                	.2byte	0x67f
     9ae:	841e                	.2byte	0x841e
     9b0:	2200                	.2byte	0x2200
     9b2:	079f 05c4 3800      	.byte	0x9f, 0x07, 0xc4, 0x05, 0x00, 0x38
     9b8:	05ec                	.2byte	0x5ec
     9ba:	3800                	.2byte	0x3800
     9bc:	8a08                	.2byte	0x8a08
     9be:	9100                	.2byte	0x9100
     9c0:	7f98                	.2byte	0x7f98
     9c2:	1e06                	.2byte	0x1e06
     9c4:	079f 05ec 3800      	.byte	0x9f, 0x07, 0xec, 0x05, 0x00, 0x38
     9ca:	0600                	.2byte	0x600
     9cc:	3800                	.2byte	0x3800
     9ce:	6401                	.2byte	0x6401
     9d0:	00060007          	.4byte	0x60007
     9d4:	1038                	.2byte	0x1038
     9d6:	0006                	.2byte	0x6
     9d8:	0b38                	.2byte	0xb38
     9da:	0078                	.2byte	0x78
     9dc:	9c91                	.2byte	0x9c91
     9de:	067f                	.2byte	0x67f
     9e0:	841e                	.2byte	0x841e
     9e2:	2200                	.2byte	0x2200
     9e4:	079f 0610 3800      	.byte	0x9f, 0x07, 0x10, 0x06, 0x00, 0x38
     9ea:	0638                	.2byte	0x638
     9ec:	3800                	.2byte	0x3800
     9ee:	8a08                	.2byte	0x8a08
     9f0:	9100                	.2byte	0x9100
     9f2:	7fa0                	.2byte	0x7fa0
     9f4:	1e06                	.2byte	0x1e06
     9f6:	079f 0638 3800      	.byte	0x9f, 0x07, 0x38, 0x06, 0x00, 0x38
     9fc:	064c                	.2byte	0x64c
     9fe:	3800                	.2byte	0x3800
     a00:	6301                	.2byte	0x6301
     a02:	00064c07          	.4byte	0x64c07
     a06:	5838                	.2byte	0x5838
     a08:	0006                	.2byte	0x6
     a0a:	0938                	.2byte	0x938
     a0c:	0078                	.2byte	0x78
     a0e:	0082                	.2byte	0x82
     a10:	831e                	.2byte	0x831e
     a12:	2200                	.2byte	0x2200
     a14:	009f 0407 0003      	.byte	0x9f, 0x00, 0x07, 0x04, 0x03, 0x00
     a1a:	0810                	.2byte	0x810
     a1c:	02100003          	lb	zero,33(zero) # 21 <__DYNAMIC+0x21>
     a20:	9f30                	.2byte	0x9f30
     a22:	00030807          	.4byte	0x30807
     a26:	0c10                	.2byte	0xc10
     a28:	02100003          	lb	zero,33(zero) # 21 <__DYNAMIC+0x21>
     a2c:	9f31                	.2byte	0x9f31
     a2e:	0700                	.2byte	0x700
     a30:	02d8                	.2byte	0x2d8
     a32:	1000                	.2byte	0x1000
     a34:	02dc                	.2byte	0x2dc
     a36:	1000                	.2byte	0x1000
     a38:	3002                	.2byte	0x3002
     a3a:	079f 02dc 1000      	.byte	0x9f, 0x07, 0xdc, 0x02, 0x00, 0x10
     a40:	02e4                	.2byte	0x2e4
     a42:	1000                	.2byte	0x1000
     a44:	3102                	.2byte	0x3102
     a46:	009f 6c07 0002      	.byte	0x9f, 0x00, 0x07, 0x6c, 0x02, 0x00
     a4c:	8410                	.2byte	0x8410
     a4e:	0002                	.2byte	0x2
     a50:	0110                	.2byte	0x110
     a52:	075a                	.2byte	0x75a
     a54:	0284                	.2byte	0x284
     a56:	1000                	.2byte	0x1000
     a58:	02b8                	.2byte	0x2b8
     a5a:	1000                	.2byte	0x1000
     a5c:	5a01                	.2byte	0x5a01
     a5e:	0700                	.2byte	0x700
     a60:	0284                	.2byte	0x284
     a62:	1000                	.2byte	0x1000
     a64:	0298                	.2byte	0x298
     a66:	1000                	.2byte	0x1000
     a68:	5d01                	.2byte	0x5d01
     a6a:	0002a407          	.4byte	0x2a407
     a6e:	b810                	.2byte	0xb810
     a70:	0002                	.2byte	0x2
     a72:	0110                	.2byte	0x110
     a74:	005d                	.2byte	0x5d
     a76:	00069c07          	.4byte	0x69c07
     a7a:	d838                	.2byte	0xd838
     a7c:	01380007          	.4byte	0x1380007
     a80:	075a                	.2byte	0x75a
     a82:	07d8                	.2byte	0x7d8
     a84:	3800                	.2byte	0x3800
     a86:	07e0                	.2byte	0x7e0
     a88:	3800                	.2byte	0x3800
     a8a:	9f777a03          	.4byte	0x9f777a03
     a8e:	0007e007          	.4byte	0x7e007
     a92:	1838                	.2byte	0x1838
     a94:	0008                	.2byte	0x8
     a96:	0438                	.2byte	0x438
     a98:	9f5a01a3          	sb	s5,-1565(s4)
     a9c:	00081807          	.4byte	0x81807
     aa0:	a438                	.2byte	0xa438
     aa2:	0008                	.2byte	0x8
     aa4:	0138                	.2byte	0x138
     aa6:	075a                	.2byte	0x75a
     aa8:	08a4                	.2byte	0x8a4
     aaa:	3800                	.2byte	0x3800
     aac:	08c0                	.2byte	0x8c0
     aae:	3800                	.2byte	0x3800
     ab0:	a304                	.2byte	0xa304
     ab2:	5a01                	.2byte	0x5a01
     ab4:	009f 9c07 0006      	.byte	0x9f, 0x00, 0x07, 0x9c, 0x06, 0x00
     aba:	e838                	.2byte	0xe838
     abc:	01380007          	.4byte	0x1380007
     ac0:	07e8075b          	.4byte	0x7e8075b
     ac4:	3800                	.2byte	0x3800
     ac6:	0818                	.2byte	0x818
     ac8:	3800                	.2byte	0x3800
     aca:	a304                	.2byte	0xa304
     acc:	5b01                	.2byte	0x5b01
     ace:	079f 0818 3800      	.byte	0x9f, 0x07, 0x18, 0x08, 0x00, 0x38
     ad4:	08a4                	.2byte	0x8a4
     ad6:	3800                	.2byte	0x3800
     ad8:	5b01                	.2byte	0x5b01
     ada:	0008a407          	.4byte	0x8a407
     ade:	c038                	.2byte	0xc038
     ae0:	0008                	.2byte	0x8
     ae2:	0438                	.2byte	0x438
     ae4:	9f5b01a3          	sb	s5,-1565(s6)
     ae8:	0700                	.2byte	0x700
     aea:	06b0                	.2byte	0x6b0
     aec:	3800                	.2byte	0x3800
     aee:	07ec                	.2byte	0x7ec
     af0:	3800                	.2byte	0x3800
     af2:	5c01                	.2byte	0x5c01
     af4:	00081807          	.4byte	0x81807
     af8:	b438                	.2byte	0xb438
     afa:	0008                	.2byte	0x8
     afc:	0138                	.2byte	0x138
     afe:	005c                	.2byte	0x5c
     b00:	0006b007          	.4byte	0x6b007
     b04:	d038                	.2byte	0xd038
     b06:	0006                	.2byte	0x6
     b08:	0338                	.2byte	0x338
     b0a:	7f7a                	.2byte	0x7f7a
     b0c:	079f 06d0 3800      	.byte	0x9f, 0x07, 0xd0, 0x06, 0x00, 0x38
     b12:	0730                	.2byte	0x730
     b14:	3800                	.2byte	0x3800
     b16:	5f01                	.2byte	0x5f01
     b18:	00073007          	.4byte	0x73007
     b1c:	3c38                	.2byte	0x3c38
     b1e:	03380007          	.4byte	0x3380007
     b22:	7f7f                	.2byte	0x7f7f
     b24:	079f 073c 3800      	.byte	0x9f, 0x07, 0x3c, 0x07, 0x00, 0x38
     b2a:	0744                	.2byte	0x744
     b2c:	3800                	.2byte	0x3800
     b2e:	9f017f03          	.4byte	0x9f017f03
     b32:	00074407          	.4byte	0x74407
     b36:	6038                	.2byte	0x6038
     b38:	01380007          	.4byte	0x1380007
     b3c:	075f 0760 3800      	.byte	0x5f, 0x07, 0x60, 0x07, 0x00, 0x38
     b42:	076c                	.2byte	0x76c
     b44:	3800                	.2byte	0x3800
     b46:	9f7f7f03          	.4byte	0x9f7f7f03
     b4a:	00076c07          	.4byte	0x76c07
     b4e:	7438                	.2byte	0x7438
     b50:	03380007          	.4byte	0x3380007
     b54:	017f                	.2byte	0x17f
     b56:	079f 0774 3800      	.byte	0x9f, 0x07, 0x74, 0x07, 0x00, 0x38
     b5c:	0790                	.2byte	0x790
     b5e:	3800                	.2byte	0x3800
     b60:	5f01                	.2byte	0x5f01
     b62:	00079007          	.4byte	0x79007
     b66:	9c38                	.2byte	0x9c38
     b68:	03380007          	.4byte	0x3380007
     b6c:	7f7f                	.2byte	0x7f7f
     b6e:	079f 079c 3800      	.byte	0x9f, 0x07, 0x9c, 0x07, 0x00, 0x38
     b74:	07a4                	.2byte	0x7a4
     b76:	3800                	.2byte	0x3800
     b78:	9f017f03          	.4byte	0x9f017f03
     b7c:	0007a407          	.4byte	0x7a407
     b80:	f838                	.2byte	0xf838
     b82:	01380007          	.4byte	0x1380007
     b86:	075f 0818 3800      	.byte	0x5f, 0x07, 0x18, 0x08, 0x00, 0x38
     b8c:	081c                	.2byte	0x81c
     b8e:	3800                	.2byte	0x3800
     b90:	5f01                	.2byte	0x5f01
     b92:	00081c07          	.4byte	0x81c07
     b96:	2838                	.2byte	0x2838
     b98:	0008                	.2byte	0x8
     b9a:	0338                	.2byte	0x338
     b9c:	7f7f                	.2byte	0x7f7f
     b9e:	079f 0828 3800      	.byte	0x9f, 0x07, 0x28, 0x08, 0x00, 0x38
     ba4:	0834                	.2byte	0x834
     ba6:	3800                	.2byte	0x3800
     ba8:	9f017f03          	.4byte	0x9f017f03
     bac:	00083407          	.4byte	0x83407
     bb0:	3838                	.2byte	0x3838
     bb2:	0008                	.2byte	0x8
     bb4:	0138                	.2byte	0x138
     bb6:	075f 0838 3800      	.byte	0x5f, 0x07, 0x38, 0x08, 0x00, 0x38
     bbc:	0844                	.2byte	0x844
     bbe:	3800                	.2byte	0x3800
     bc0:	9f7f7f03          	.4byte	0x9f7f7f03
     bc4:	00084407          	.4byte	0x84407
     bc8:	5038                	.2byte	0x5038
     bca:	0008                	.2byte	0x8
     bcc:	0338                	.2byte	0x338
     bce:	017f                	.2byte	0x17f
     bd0:	079f 0850 3800      	.byte	0x9f, 0x07, 0x50, 0x08, 0x00, 0x38
     bd6:	0854                	.2byte	0x854
     bd8:	3800                	.2byte	0x3800
     bda:	5f01                	.2byte	0x5f01
     bdc:	00085407          	.4byte	0x85407
     be0:	6038                	.2byte	0x6038
     be2:	0008                	.2byte	0x8
     be4:	0338                	.2byte	0x338
     be6:	7f7f                	.2byte	0x7f7f
     be8:	079f 0860 3800      	.byte	0x9f, 0x07, 0x60, 0x08, 0x00, 0x38
     bee:	086c                	.2byte	0x86c
     bf0:	3800                	.2byte	0x3800
     bf2:	9f017f03          	.4byte	0x9f017f03
     bf6:	00086c07          	.4byte	0x86c07
     bfa:	7038                	.2byte	0x7038
     bfc:	0008                	.2byte	0x8
     bfe:	0138                	.2byte	0x138
     c00:	075f 0870 3800      	.byte	0x5f, 0x07, 0x70, 0x08, 0x00, 0x38
     c06:	087c                	.2byte	0x87c
     c08:	3800                	.2byte	0x3800
     c0a:	9f7f7f03          	.4byte	0x9f7f7f03
     c0e:	00087c07          	.4byte	0x87c07
     c12:	8838                	.2byte	0x8838
     c14:	0008                	.2byte	0x8
     c16:	0338                	.2byte	0x338
     c18:	017f                	.2byte	0x17f
     c1a:	079f 0888 3800      	.byte	0x9f, 0x07, 0x88, 0x08, 0x00, 0x38
     c20:	088c                	.2byte	0x88c
     c22:	3800                	.2byte	0x3800
     c24:	5f01                	.2byte	0x5f01
     c26:	00088c07          	.4byte	0x88c07
     c2a:	9838                	.2byte	0x9838
     c2c:	0008                	.2byte	0x8
     c2e:	0338                	.2byte	0x338
     c30:	7f7f                	.2byte	0x7f7f
     c32:	079f 0898 3800      	.byte	0x9f, 0x07, 0x98, 0x08, 0x00, 0x38
     c38:	08a4                	.2byte	0x8a4
     c3a:	3800                	.2byte	0x3800
     c3c:	9f017f03          	.4byte	0x9f017f03
     c40:	0008a407          	.4byte	0x8a407
     c44:	a838                	.2byte	0xa838
     c46:	0008                	.2byte	0x8
     c48:	0138                	.2byte	0x138
     c4a:	075f 08a8 3800      	.byte	0x5f, 0x07, 0xa8, 0x08, 0x00, 0x38
     c50:	08b4                	.2byte	0x8b4
     c52:	3800                	.2byte	0x3800
     c54:	9f7f7f03          	.4byte	0x9f7f7f03
     c58:	0008b407          	.4byte	0x8b407
     c5c:	bc38                	.2byte	0xbc38
     c5e:	0008                	.2byte	0x8
     c60:	0338                	.2byte	0x338
     c62:	017f                	.2byte	0x17f
     c64:	079f 08bc 3800      	.byte	0x9f, 0x07, 0xbc, 0x08, 0x00, 0x38
     c6a:	08c0                	.2byte	0x8c0
     c6c:	3800                	.2byte	0x3800
     c6e:	5f01                	.2byte	0x5f01
     c70:	0700                	.2byte	0x700
     c72:	06b0                	.2byte	0x6b0
     c74:	3800                	.2byte	0x3800
     c76:	06d0                	.2byte	0x6d0
     c78:	3800                	.2byte	0x3800
     c7a:	5a01                	.2byte	0x5a01
     c7c:	0006d007          	.4byte	0x6d007
     c80:	d838                	.2byte	0xd838
     c82:	0006                	.2byte	0x6
     c84:	0138                	.2byte	0x138
     c86:	075d                	.2byte	0x75d
     c88:	06d8                	.2byte	0x6d8
     c8a:	3800                	.2byte	0x3800
     c8c:	06e8                	.2byte	0x6e8
     c8e:	3800                	.2byte	0x3800
     c90:	9f017a03          	.4byte	0x9f017a03
     c94:	0006e807          	.4byte	0x6e807
     c98:	f038                	.2byte	0xf038
     c9a:	0006                	.2byte	0x6
     c9c:	0138                	.2byte	0x138
     c9e:	075d                	.2byte	0x75d
     ca0:	06f0                	.2byte	0x6f0
     ca2:	3800                	.2byte	0x3800
     ca4:	0700                	.2byte	0x700
     ca6:	3800                	.2byte	0x3800
     ca8:	9f027a03          	.4byte	0x9f027a03
     cac:	00070007          	.4byte	0x70007
     cb0:	0838                	.2byte	0x838
     cb2:	01380007          	.4byte	0x1380007
     cb6:	075d                	.2byte	0x75d
     cb8:	0708                	.2byte	0x708
     cba:	3800                	.2byte	0x3800
     cbc:	0718                	.2byte	0x718
     cbe:	3800                	.2byte	0x3800
     cc0:	9f037a03          	.4byte	0x9f037a03
     cc4:	00071807          	.4byte	0x71807
     cc8:	2038                	.2byte	0x2038
     cca:	01380007          	.4byte	0x1380007
     cce:	075d                	.2byte	0x75d
     cd0:	0720                	.2byte	0x720
     cd2:	3800                	.2byte	0x3800
     cd4:	0748                	.2byte	0x748
     cd6:	3800                	.2byte	0x3800
     cd8:	9f047a03          	.4byte	0x9f047a03
     cdc:	00074807          	.4byte	0x74807
     ce0:	5038                	.2byte	0x5038
     ce2:	01380007          	.4byte	0x1380007
     ce6:	075d                	.2byte	0x75d
     ce8:	0750                	.2byte	0x750
     cea:	3800                	.2byte	0x3800
     cec:	0778                	.2byte	0x778
     cee:	3800                	.2byte	0x3800
     cf0:	9f057a03          	.4byte	0x9f057a03
     cf4:	00077807          	.4byte	0x77807
     cf8:	8038                	.2byte	0x8038
     cfa:	01380007          	.4byte	0x1380007
     cfe:	075d                	.2byte	0x75d
     d00:	0780                	.2byte	0x780
     d02:	3800                	.2byte	0x3800
     d04:	07a8                	.2byte	0x7a8
     d06:	3800                	.2byte	0x3800
     d08:	9f067a03          	.4byte	0x9f067a03
     d0c:	0007a807          	.4byte	0x7a807
     d10:	b038                	.2byte	0xb038
     d12:	01380007          	.4byte	0x1380007
     d16:	075d                	.2byte	0x75d
     d18:	07b0                	.2byte	0x7b0
     d1a:	3800                	.2byte	0x3800
     d1c:	07c0                	.2byte	0x7c0
     d1e:	3800                	.2byte	0x3800
     d20:	9f077a03          	.4byte	0x9f077a03
     d24:	0007c007          	.4byte	0x7c007
     d28:	c838                	.2byte	0xc838
     d2a:	01380007          	.4byte	0x1380007
     d2e:	075d                	.2byte	0x75d
     d30:	07c8                	.2byte	0x7c8
     d32:	3800                	.2byte	0x3800
     d34:	07d8                	.2byte	0x7d8
     d36:	3800                	.2byte	0x3800
     d38:	9f087a03          	.4byte	0x9f087a03
     d3c:	0007d807          	.4byte	0x7d807
     d40:	e038                	.2byte	0xe038
     d42:	01380007          	.4byte	0x1380007
     d46:	075a                	.2byte	0x75a
     d48:	07e0                	.2byte	0x7e0
     d4a:	3800                	.2byte	0x3800
     d4c:	07ec                	.2byte	0x7ec
     d4e:	3800                	.2byte	0x3800
     d50:	a306                	.2byte	0xa306
     d52:	5a01                	.2byte	0x5a01
     d54:	079f0923          	sb	s9,114(t5)
     d58:	0818                	.2byte	0x818
     d5a:	3800                	.2byte	0x3800
     d5c:	0834                	.2byte	0x834
     d5e:	3800                	.2byte	0x3800
     d60:	9f017a03          	.4byte	0x9f017a03
     d64:	00083407          	.4byte	0x83407
     d68:	5038                	.2byte	0x5038
     d6a:	0008                	.2byte	0x8
     d6c:	0338                	.2byte	0x338
     d6e:	027a                	.2byte	0x27a
     d70:	079f 0850 3800      	.byte	0x9f, 0x07, 0x50, 0x08, 0x00, 0x38
     d76:	086c                	.2byte	0x86c
     d78:	3800                	.2byte	0x3800
     d7a:	9f037a03          	.4byte	0x9f037a03
     d7e:	00086c07          	.4byte	0x86c07
     d82:	8838                	.2byte	0x8838
     d84:	0008                	.2byte	0x8
     d86:	0338                	.2byte	0x338
     d88:	077a                	.2byte	0x77a
     d8a:	079f 0888 3800      	.byte	0x9f, 0x07, 0x88, 0x08, 0x00, 0x38
     d90:	08a4                	.2byte	0x8a4
     d92:	3800                	.2byte	0x3800
     d94:	9f087a03          	.4byte	0x9f087a03
     d98:	0008a407          	.4byte	0x8a407
     d9c:	bc38                	.2byte	0xbc38
     d9e:	0008                	.2byte	0x8
     da0:	0638                	.2byte	0x638
     da2:	235a01a3          	sb	s5,547(s4)
     da6:	9f09                	.2byte	0x9f09
     da8:	0008bc07          	.4byte	0x8bc07
     dac:	c038                	.2byte	0xc038
     dae:	0008                	.2byte	0x8
     db0:	0638                	.2byte	0x638
     db2:	235a01a3          	sb	s5,547(s4)
     db6:	9f0a                	.2byte	0x9f0a
     db8:	0700                	.2byte	0x700
     dba:	073c                	.2byte	0x73c
     dbc:	3800                	.2byte	0x3800
     dbe:	0740                	.2byte	0x740
     dc0:	3800                	.2byte	0x3800
     dc2:	7f0a                	.2byte	0x7f0a
     dc4:	3201                	.2byte	0x3201
     dc6:	0324                	.2byte	0x324
     dc8:	1080                	.2byte	0x1080
     dca:	3800                	.2byte	0x3800
     dcc:	0722                	.2byte	0x722
     dce:	076c                	.2byte	0x76c
     dd0:	3800                	.2byte	0x3800
     dd2:	0770                	.2byte	0x770
     dd4:	3800                	.2byte	0x3800
     dd6:	7f0a                	.2byte	0x7f0a
     dd8:	3201                	.2byte	0x3201
     dda:	0324                	.2byte	0x324
     ddc:	1080                	.2byte	0x1080
     dde:	3800                	.2byte	0x3800
     de0:	0722                	.2byte	0x722
     de2:	079c                	.2byte	0x79c
     de4:	3800                	.2byte	0x3800
     de6:	07a0                	.2byte	0x7a0
     de8:	3800                	.2byte	0x3800
     dea:	7f0a                	.2byte	0x7f0a
     dec:	3201                	.2byte	0x3201
     dee:	0324                	.2byte	0x324
     df0:	1080                	.2byte	0x1080
     df2:	3800                	.2byte	0x3800
     df4:	0722                	.2byte	0x722
     df6:	0808                	.2byte	0x808
     df8:	3800                	.2byte	0x3800
     dfa:	0814                	.2byte	0x814
     dfc:	3800                	.2byte	0x3800
     dfe:	5d01                	.2byte	0x5d01
     e00:	00082807          	.4byte	0x82807
     e04:	2c38                	.2byte	0x2c38
     e06:	0008                	.2byte	0x8
     e08:	0a38                	.2byte	0xa38
     e0a:	017f                	.2byte	0x17f
     e0c:	2432                	.2byte	0x2432
     e0e:	00108003          	lb	zero,1(ra)
     e12:	2238                	.2byte	0x2238
     e14:	00084407          	.4byte	0x84407
     e18:	4838                	.2byte	0x4838
     e1a:	0008                	.2byte	0x8
     e1c:	0a38                	.2byte	0xa38
     e1e:	017f                	.2byte	0x17f
     e20:	2432                	.2byte	0x2432
     e22:	00108003          	lb	zero,1(ra)
     e26:	2238                	.2byte	0x2238
     e28:	00086007          	.4byte	0x86007
     e2c:	6438                	.2byte	0x6438
     e2e:	0008                	.2byte	0x8
     e30:	0a38                	.2byte	0xa38
     e32:	017f                	.2byte	0x17f
     e34:	2432                	.2byte	0x2432
     e36:	00108003          	lb	zero,1(ra)
     e3a:	2238                	.2byte	0x2238
     e3c:	00087c07          	.4byte	0x87c07
     e40:	8038                	.2byte	0x8038
     e42:	0008                	.2byte	0x8
     e44:	0a38                	.2byte	0xa38
     e46:	017f                	.2byte	0x17f
     e48:	2432                	.2byte	0x2432
     e4a:	00108003          	lb	zero,1(ra)
     e4e:	2238                	.2byte	0x2238
     e50:	00089807          	.4byte	0x89807
     e54:	9c38                	.2byte	0x9c38
     e56:	0008                	.2byte	0x8
     e58:	0a38                	.2byte	0xa38
     e5a:	017f                	.2byte	0x17f
     e5c:	2432                	.2byte	0x2432
     e5e:	00108003          	lb	zero,1(ra)
     e62:	2238                	.2byte	0x2238
     e64:	0008b407          	.4byte	0x8b407
     e68:	b838                	.2byte	0xb838
     e6a:	0008                	.2byte	0x8
     e6c:	0a38                	.2byte	0xa38
     e6e:	017f                	.2byte	0x17f
     e70:	2432                	.2byte	0x2432
     e72:	00108003          	lb	zero,1(ra)
     e76:	2238                	.2byte	0x2238
     e78:	0700                	.2byte	0x700
     e7a:	08c0                	.2byte	0x8c0
     e7c:	3800                	.2byte	0x3800
     e7e:	08f0                	.2byte	0x8f0
     e80:	3800                	.2byte	0x3800
     e82:	5a01                	.2byte	0x5a01
     e84:	0008f007          	.4byte	0x8f007
     e88:	3038                	.2byte	0x3038
     e8a:	0438000b          	.4byte	0x438000b
     e8e:	9f5a01a3          	sb	s5,-1565(s4)
     e92:	000b3007          	.4byte	0xb3007
     e96:	3438                	.2byte	0x3438
     e98:	0138000b          	.4byte	0x138000b
     e9c:	005a                	.2byte	0x5a
     e9e:	0008c007          	.4byte	0x8c007
     ea2:	f038                	.2byte	0xf038
     ea4:	0008                	.2byte	0x8
     ea6:	0138                	.2byte	0x138
     ea8:	08f0075b          	.4byte	0x8f0075b
     eac:	3800                	.2byte	0x3800
     eae:	0b00                	.2byte	0xb00
     eb0:	3800                	.2byte	0x3800
     eb2:	6201                	.2byte	0x6201
     eb4:	000b0007          	.4byte	0xb0007
     eb8:	0c38                	.2byte	0xc38
     eba:	0438000b          	.4byte	0x438000b
     ebe:	9f5b01a3          	sb	s5,-1565(s6)
     ec2:	000b0c07          	.4byte	0xb0c07
     ec6:	3038                	.2byte	0x3038
     ec8:	0138000b          	.4byte	0x138000b
     ecc:	0762                	.2byte	0x762
     ece:	0b30                	.2byte	0xb30
     ed0:	3800                	.2byte	0x3800
     ed2:	0b34                	.2byte	0xb34
     ed4:	3800                	.2byte	0x3800
     ed6:	5b01                	.2byte	0x5b01
     ed8:	0700                	.2byte	0x700
     eda:	0ae4                	.2byte	0xae4
     edc:	3800                	.2byte	0x3800
     ede:	38000ae7          	jalr	s5,896(zero) # 0 <__DYNAMIC>
     ee2:	9f017b03          	.4byte	0x9f017b03
     ee6:	000ae707          	.4byte	0xae707
     eea:	f038                	.2byte	0xf038
     eec:	000a                	.2byte	0xa
     eee:	0338                	.2byte	0x338
     ef0:	0178                	.2byte	0x178
     ef2:	079f 0b0c 3800      	.byte	0x9f, 0x07, 0x0c, 0x0b, 0x00, 0x38
     ef8:	0b24                	.2byte	0xb24
     efa:	3800                	.2byte	0x3800
     efc:	9f017803          	.4byte	0x9f017803
     f00:	000b2407          	.4byte	0xb2407
     f04:	2838                	.2byte	0x2838
     f06:	0338000b          	.4byte	0x338000b
     f0a:	7f7a                	.2byte	0x7f7a
     f0c:	009f f007 0008      	.byte	0x9f, 0x00, 0x07, 0xf0, 0x08, 0x00
     f12:	e438                	.2byte	0xe438
     f14:	000a                	.2byte	0xa
     f16:	0138                	.2byte	0x138
     f18:	0762                	.2byte	0x762
     f1a:	0b1c                	.2byte	0xb1c
     f1c:	3800                	.2byte	0x3800
     f1e:	0b30                	.2byte	0xb30
     f20:	3800                	.2byte	0x3800
     f22:	6201                	.2byte	0x6201
     f24:	0700                	.2byte	0x700
     f26:	08f0                	.2byte	0x8f0
     f28:	3800                	.2byte	0x3800
     f2a:	0ae4                	.2byte	0xae4
     f2c:	3800                	.2byte	0x3800
     f2e:	5a01                	.2byte	0x5a01
     f30:	000b1c07          	.4byte	0xb1c07
     f34:	3038                	.2byte	0x3038
     f36:	0138000b          	.4byte	0x138000b
     f3a:	005a                	.2byte	0x5a
     f3c:	0008f407          	.4byte	0x8f407
     f40:	b038                	.2byte	0xb038
     f42:	000a                	.2byte	0xa
     f44:	0138                	.2byte	0x138
     f46:	075f 0b20 3800      	.byte	0x5f, 0x07, 0x20, 0x0b, 0x00, 0x38
     f4c:	0b30                	.2byte	0xb30
     f4e:	3800                	.2byte	0x3800
     f50:	5f01                	.2byte	0x5f01
     f52:	0700                	.2byte	0x700
     f54:	08f8                	.2byte	0x8f8
     f56:	3800                	.2byte	0x3800
     f58:	092c                	.2byte	0x92c
     f5a:	3800                	.2byte	0x3800
     f5c:	5801                	.2byte	0x5801
     f5e:	00092c07          	.4byte	0x92c07
     f62:	3838                	.2byte	0x3838
     f64:	0009                	.2byte	0x9
     f66:	0338                	.2byte	0x338
     f68:	7f78                	.2byte	0x7f78
     f6a:	079f 0938 3800      	.byte	0x9f, 0x07, 0x38, 0x09, 0x00, 0x38
     f70:	0940                	.2byte	0x940
     f72:	3800                	.2byte	0x3800
     f74:	9f017803          	.4byte	0x9f017803
     f78:	00094007          	.4byte	0x94007
     f7c:	5c38                	.2byte	0x5c38
     f7e:	0009                	.2byte	0x9
     f80:	0138                	.2byte	0x138
     f82:	0758                	.2byte	0x758
     f84:	095c                	.2byte	0x95c
     f86:	3800                	.2byte	0x3800
     f88:	0968                	.2byte	0x968
     f8a:	3800                	.2byte	0x3800
     f8c:	9f7f7803          	.4byte	0x9f7f7803
     f90:	00096807          	.4byte	0x96807
     f94:	7038                	.2byte	0x7038
     f96:	0009                	.2byte	0x9
     f98:	0338                	.2byte	0x338
     f9a:	0178                	.2byte	0x178
     f9c:	079f 0970 3800      	.byte	0x9f, 0x07, 0x70, 0x09, 0x00, 0x38
     fa2:	098c                	.2byte	0x98c
     fa4:	3800                	.2byte	0x3800
     fa6:	5801                	.2byte	0x5801
     fa8:	00098c07          	.4byte	0x98c07
     fac:	9838                	.2byte	0x9838
     fae:	0009                	.2byte	0x9
     fb0:	0338                	.2byte	0x338
     fb2:	7f78                	.2byte	0x7f78
     fb4:	079f 0998 3800      	.byte	0x9f, 0x07, 0x98, 0x09, 0x00, 0x38
     fba:	09a0                	.2byte	0x9a0
     fbc:	3800                	.2byte	0x3800
     fbe:	9f017803          	.4byte	0x9f017803
     fc2:	0009a007          	.4byte	0x9a007
     fc6:	bc38                	.2byte	0xbc38
     fc8:	0009                	.2byte	0x9
     fca:	0138                	.2byte	0x138
     fcc:	0758                	.2byte	0x758
     fce:	09bc                	.2byte	0x9bc
     fd0:	3800                	.2byte	0x3800
     fd2:	09c8                	.2byte	0x9c8
     fd4:	3800                	.2byte	0x3800
     fd6:	9f7f7803          	.4byte	0x9f7f7803
     fda:	0009c807          	.4byte	0x9c807
     fde:	d038                	.2byte	0xd038
     fe0:	0009                	.2byte	0x9
     fe2:	0338                	.2byte	0x338
     fe4:	0178                	.2byte	0x178
     fe6:	079f 09d0 3800      	.byte	0x9f, 0x07, 0xd0, 0x09, 0x00, 0x38
     fec:	09ec                	.2byte	0x9ec
     fee:	3800                	.2byte	0x3800
     ff0:	5801                	.2byte	0x5801
     ff2:	0009ec07          	.4byte	0x9ec07
     ff6:	f838                	.2byte	0xf838
     ff8:	0009                	.2byte	0x9
     ffa:	0338                	.2byte	0x338
     ffc:	7f78                	.2byte	0x7f78
     ffe:	079f 09f8 3800      	.byte	0x9f, 0x07, 0xf8, 0x09, 0x00, 0x38
    1004:	0a00                	.2byte	0xa00
    1006:	3800                	.2byte	0x3800
    1008:	9f017803          	.4byte	0x9f017803
    100c:	000a0007          	.4byte	0xa0007
    1010:	1c38                	.2byte	0x1c38
    1012:	000a                	.2byte	0xa
    1014:	0138                	.2byte	0x138
    1016:	0758                	.2byte	0x758
    1018:	0a1c                	.2byte	0xa1c
    101a:	3800                	.2byte	0x3800
    101c:	0a28                	.2byte	0xa28
    101e:	3800                	.2byte	0x3800
    1020:	9f7f7803          	.4byte	0x9f7f7803
    1024:	000a2807          	.4byte	0xa2807
    1028:	3038                	.2byte	0x3038
    102a:	000a                	.2byte	0xa
    102c:	0338                	.2byte	0x338
    102e:	0178                	.2byte	0x178
    1030:	079f 0a30 3800      	.byte	0x9f, 0x07, 0x30, 0x0a, 0x00, 0x38
    1036:	0a4c                	.2byte	0xa4c
    1038:	3800                	.2byte	0x3800
    103a:	5801                	.2byte	0x5801
    103c:	000a4c07          	.4byte	0xa4c07
    1040:	5838                	.2byte	0x5838
    1042:	000a                	.2byte	0xa
    1044:	0338                	.2byte	0x338
    1046:	7f78                	.2byte	0x7f78
    1048:	079f 0a58 3800      	.byte	0x9f, 0x07, 0x58, 0x0a, 0x00, 0x38
    104e:	0a60                	.2byte	0xa60
    1050:	3800                	.2byte	0x3800
    1052:	9f017803          	.4byte	0x9f017803
    1056:	000a6007          	.4byte	0xa6007
    105a:	7c38                	.2byte	0x7c38
    105c:	000a                	.2byte	0xa
    105e:	0138                	.2byte	0x138
    1060:	0758                	.2byte	0x758
    1062:	0a7c                	.2byte	0xa7c
    1064:	3800                	.2byte	0x3800
    1066:	0a88                	.2byte	0xa88
    1068:	3800                	.2byte	0x3800
    106a:	9f7f7803          	.4byte	0x9f7f7803
    106e:	000a8807          	.4byte	0xa8807
    1072:	9038                	.2byte	0x9038
    1074:	000a                	.2byte	0xa
    1076:	0338                	.2byte	0x338
    1078:	0178                	.2byte	0x178
    107a:	079f 0a90 3800      	.byte	0x9f, 0x07, 0x90, 0x0a, 0x00, 0x38
    1080:	0aac                	.2byte	0xaac
    1082:	3800                	.2byte	0x3800
    1084:	5801                	.2byte	0x5801
    1086:	000aac07          	.4byte	0xaac07
    108a:	b838                	.2byte	0xb838
    108c:	000a                	.2byte	0xa
    108e:	0338                	.2byte	0x338
    1090:	7f78                	.2byte	0x7f78
    1092:	079f 0ab8 3800      	.byte	0x9f, 0x07, 0xb8, 0x0a, 0x00, 0x38
    1098:	0ac0                	.2byte	0xac0
    109a:	3800                	.2byte	0x3800
    109c:	9f017803          	.4byte	0x9f017803
    10a0:	000ac007          	.4byte	0xac007
    10a4:	e438                	.2byte	0xe438
    10a6:	000a                	.2byte	0xa
    10a8:	0138                	.2byte	0x138
    10aa:	0758                	.2byte	0x758
    10ac:	0b24                	.2byte	0xb24
    10ae:	3800                	.2byte	0x3800
    10b0:	0b30                	.2byte	0xb30
    10b2:	3800                	.2byte	0x3800
    10b4:	5801                	.2byte	0x5801
    10b6:	0700                	.2byte	0x700
    10b8:	08f8                	.2byte	0x8f8
    10ba:	3800                	.2byte	0x3800
    10bc:	0914                	.2byte	0x914
    10be:	3800                	.2byte	0x3800
    10c0:	5a01                	.2byte	0x5a01
    10c2:	00091407          	.4byte	0x91407
    10c6:	1c38                	.2byte	0x1c38
    10c8:	0009                	.2byte	0x9
    10ca:	0138                	.2byte	0x138
    10cc:	075e                	.2byte	0x75e
    10ce:	091c                	.2byte	0x91c
    10d0:	3800                	.2byte	0x3800
    10d2:	0944                	.2byte	0x944
    10d4:	3800                	.2byte	0x3800
    10d6:	9f017a03          	.4byte	0x9f017a03
    10da:	00094407          	.4byte	0x94407
    10de:	4c38                	.2byte	0x4c38
    10e0:	0009                	.2byte	0x9
    10e2:	0138                	.2byte	0x138
    10e4:	075e                	.2byte	0x75e
    10e6:	094c                	.2byte	0x94c
    10e8:	3800                	.2byte	0x3800
    10ea:	0974                	.2byte	0x974
    10ec:	3800                	.2byte	0x3800
    10ee:	9f027a03          	.4byte	0x9f027a03
    10f2:	00097407          	.4byte	0x97407
    10f6:	7c38                	.2byte	0x7c38
    10f8:	0009                	.2byte	0x9
    10fa:	0138                	.2byte	0x138
    10fc:	075e                	.2byte	0x75e
    10fe:	097c                	.2byte	0x97c
    1100:	3800                	.2byte	0x3800
    1102:	09a4                	.2byte	0x9a4
    1104:	3800                	.2byte	0x3800
    1106:	9f037a03          	.4byte	0x9f037a03
    110a:	0009a407          	.4byte	0x9a407
    110e:	ac38                	.2byte	0xac38
    1110:	0009                	.2byte	0x9
    1112:	0138                	.2byte	0x138
    1114:	075e                	.2byte	0x75e
    1116:	09ac                	.2byte	0x9ac
    1118:	3800                	.2byte	0x3800
    111a:	09d4                	.2byte	0x9d4
    111c:	3800                	.2byte	0x3800
    111e:	9f047a03          	.4byte	0x9f047a03
    1122:	0009d407          	.4byte	0x9d407
    1126:	dc38                	.2byte	0xdc38
    1128:	0009                	.2byte	0x9
    112a:	0138                	.2byte	0x138
    112c:	075e                	.2byte	0x75e
    112e:	09dc                	.2byte	0x9dc
    1130:	3800                	.2byte	0x3800
    1132:	0a04                	.2byte	0xa04
    1134:	3800                	.2byte	0x3800
    1136:	9f057a03          	.4byte	0x9f057a03
    113a:	000a0407          	.4byte	0xa0407
    113e:	0c38                	.2byte	0xc38
    1140:	000a                	.2byte	0xa
    1142:	0138                	.2byte	0x138
    1144:	075e                	.2byte	0x75e
    1146:	0a0c                	.2byte	0xa0c
    1148:	3800                	.2byte	0x3800
    114a:	0a34                	.2byte	0xa34
    114c:	3800                	.2byte	0x3800
    114e:	9f067a03          	.4byte	0x9f067a03
    1152:	000a3407          	.4byte	0xa3407
    1156:	3c38                	.2byte	0x3c38
    1158:	000a                	.2byte	0xa
    115a:	0138                	.2byte	0x138
    115c:	075e                	.2byte	0x75e
    115e:	0a3c                	.2byte	0xa3c
    1160:	3800                	.2byte	0x3800
    1162:	0a64                	.2byte	0xa64
    1164:	3800                	.2byte	0x3800
    1166:	9f077a03          	.4byte	0x9f077a03
    116a:	000a6407          	.4byte	0xa6407
    116e:	6c38                	.2byte	0x6c38
    1170:	000a                	.2byte	0xa
    1172:	0138                	.2byte	0x138
    1174:	075e                	.2byte	0x75e
    1176:	0a6c                	.2byte	0xa6c
    1178:	3800                	.2byte	0x3800
    117a:	0a94                	.2byte	0xa94
    117c:	3800                	.2byte	0x3800
    117e:	9f087a03          	.4byte	0x9f087a03
    1182:	000a9407          	.4byte	0xa9407
    1186:	9c38                	.2byte	0x9c38
    1188:	000a                	.2byte	0xa
    118a:	0138                	.2byte	0x138
    118c:	075e                	.2byte	0x75e
    118e:	0a9c                	.2byte	0xa9c
    1190:	3800                	.2byte	0x3800
    1192:	0ac0                	.2byte	0xac0
    1194:	3800                	.2byte	0x3800
    1196:	9f097a03          	.4byte	0x9f097a03
    119a:	000b2407          	.4byte	0xb2407
    119e:	3038                	.2byte	0x3038
    11a0:	0138000b          	.4byte	0x138000b
    11a4:	005a                	.2byte	0x5a
    11a6:	00093807          	.4byte	0x93807
    11aa:	3c38                	.2byte	0x3c38
    11ac:	0009                	.2byte	0x9
    11ae:	0a38                	.2byte	0xa38
    11b0:	0178                	.2byte	0x178
    11b2:	2432                	.2byte	0x2432
    11b4:	00108003          	lb	zero,1(ra)
    11b8:	2238                	.2byte	0x2238
    11ba:	00096807          	.4byte	0x96807
    11be:	6c38                	.2byte	0x6c38
    11c0:	0009                	.2byte	0x9
    11c2:	0a38                	.2byte	0xa38
    11c4:	0178                	.2byte	0x178
    11c6:	2432                	.2byte	0x2432
    11c8:	00108003          	lb	zero,1(ra)
    11cc:	2238                	.2byte	0x2238
    11ce:	00099807          	.4byte	0x99807
    11d2:	9c38                	.2byte	0x9c38
    11d4:	0009                	.2byte	0x9
    11d6:	0a38                	.2byte	0xa38
    11d8:	0178                	.2byte	0x178
    11da:	2432                	.2byte	0x2432
    11dc:	00108003          	lb	zero,1(ra)
    11e0:	2238                	.2byte	0x2238
    11e2:	0009c807          	.4byte	0x9c807
    11e6:	cc38                	.2byte	0xcc38
    11e8:	0009                	.2byte	0x9
    11ea:	0a38                	.2byte	0xa38
    11ec:	0178                	.2byte	0x178
    11ee:	2432                	.2byte	0x2432
    11f0:	00108003          	lb	zero,1(ra)
    11f4:	2238                	.2byte	0x2238
    11f6:	0009f807          	.4byte	0x9f807
    11fa:	fc38                	.2byte	0xfc38
    11fc:	0009                	.2byte	0x9
    11fe:	0a38                	.2byte	0xa38
    1200:	0178                	.2byte	0x178
    1202:	2432                	.2byte	0x2432
    1204:	00108003          	lb	zero,1(ra)
    1208:	2238                	.2byte	0x2238
    120a:	000a2807          	.4byte	0xa2807
    120e:	2c38                	.2byte	0x2c38
    1210:	000a                	.2byte	0xa
    1212:	0a38                	.2byte	0xa38
    1214:	0178                	.2byte	0x178
    1216:	2432                	.2byte	0x2432
    1218:	00108003          	lb	zero,1(ra)
    121c:	2238                	.2byte	0x2238
    121e:	000a5807          	.4byte	0xa5807
    1222:	5c38                	.2byte	0x5c38
    1224:	000a                	.2byte	0xa
    1226:	0a38                	.2byte	0xa38
    1228:	0178                	.2byte	0x178
    122a:	2432                	.2byte	0x2432
    122c:	00108003          	lb	zero,1(ra)
    1230:	2238                	.2byte	0x2238
    1232:	000a8807          	.4byte	0xa8807
    1236:	8c38                	.2byte	0x8c38
    1238:	000a                	.2byte	0xa
    123a:	0a38                	.2byte	0xa38
    123c:	0178                	.2byte	0x178
    123e:	2432                	.2byte	0x2432
    1240:	00108003          	lb	zero,1(ra)
    1244:	2238                	.2byte	0x2238
    1246:	000ab807          	.4byte	0xab807
    124a:	bc38                	.2byte	0xbc38
    124c:	000a                	.2byte	0xa
    124e:	0a38                	.2byte	0xa38
    1250:	0178                	.2byte	0x178
    1252:	2432                	.2byte	0x2432
    1254:	00108003          	lb	zero,1(ra)
    1258:	2238                	.2byte	0x2238
    125a:	000ad807          	.4byte	0xad807
    125e:	e438                	.2byte	0xe438
    1260:	000a                	.2byte	0xa
    1262:	0138                	.2byte	0x138
    1264:	005d                	.2byte	0x5d
    1266:	00bd                	.2byte	0xbd
    1268:	0000                	.2byte	0x0
    126a:	0005                	.2byte	0x5
    126c:	0004                	.2byte	0x4
    126e:	0000                	.2byte	0x0
    1270:	0000                	.2byte	0x0
    1272:	00040407          	.4byte	0x40407
    1276:	0810                	.2byte	0x810
    1278:	0004                	.2byte	0x4
    127a:	0510                	.2byte	0x510
    127c:	007f                	.2byte	0x7f
    127e:	2134                	.2byte	0x2134
    1280:	079f 0408 1000      	.byte	0x9f, 0x07, 0x08, 0x04, 0x00, 0x10
    1286:	0410                	.2byte	0x410
    1288:	1000                	.2byte	0x1000
    128a:	5f01                	.2byte	0x5f01
    128c:	0700                	.2byte	0x700
    128e:	041c                	.2byte	0x41c
    1290:	1000                	.2byte	0x1000
    1292:	0424                	.2byte	0x424
    1294:	1000                	.2byte	0x1000
    1296:	5a01                	.2byte	0x5a01
    1298:	00042407          	.4byte	0x42407
    129c:	4710                	.2byte	0x4710
    129e:	0004                	.2byte	0x4
    12a0:	0410                	.2byte	0x410
    12a2:	807e                	.2byte	0x807e
    12a4:	9f7e                	.2byte	0x9f7e
    12a6:	0700                	.2byte	0x700
    12a8:	0448                	.2byte	0x448
    12aa:	1000                	.2byte	0x1000
    12ac:	100004cf          	.4byte	0x100004cf
    12b0:	5a01                	.2byte	0x5a01
    12b2:	0700                	.2byte	0x700
    12b4:	041c                	.2byte	0x41c
    12b6:	1000                	.2byte	0x1000
    12b8:	0424                	.2byte	0x424
    12ba:	1000                	.2byte	0x1000
    12bc:	3002                	.2byte	0x3002
    12be:	009f 0407 0004      	.byte	0x9f, 0x00, 0x07, 0x04, 0x04, 0x00
    12c4:	0810                	.2byte	0x810
    12c6:	0004                	.2byte	0x4
    12c8:	0510                	.2byte	0x510
    12ca:	007f                	.2byte	0x7f
    12cc:	2134                	.2byte	0x2134
    12ce:	079f 0408 1000      	.byte	0x9f, 0x07, 0x08, 0x04, 0x00, 0x10
    12d4:	040c                	.2byte	0x40c
    12d6:	1000                	.2byte	0x1000
    12d8:	5f01                	.2byte	0x5f01
    12da:	0700                	.2byte	0x700
    12dc:	040c                	.2byte	0x40c
    12de:	1000                	.2byte	0x1000
    12e0:	0414                	.2byte	0x414
    12e2:	1000                	.2byte	0x1000
    12e4:	3102                	.2byte	0x3102
    12e6:	009f 0c07 0004      	.byte	0x9f, 0x00, 0x07, 0x0c, 0x04, 0x00
    12ec:	1410                	.2byte	0x1410
    12ee:	0004                	.2byte	0x4
    12f0:	0610                	.2byte	0x610
    12f2:	049e                	.2byte	0x49e
    12f4:	6814                	.2byte	0x6814
    12f6:	f000                	.2byte	0xf000
    12f8:	0700                	.2byte	0x700
    12fa:	01d0                	.2byte	0x1d0
    12fc:	1000                	.2byte	0x1000
    12fe:	01ec                	.2byte	0x1ec
    1300:	1000                	.2byte	0x1000
    1302:	5a01                	.2byte	0x5a01
    1304:	0001ec07          	.4byte	0x1ec07
    1308:	1810                	.2byte	0x1810
    130a:	0002                	.2byte	0x2
    130c:	0110                	.2byte	0x110
    130e:	005a                	.2byte	0x5a
    1310:	0001ec07          	.4byte	0x1ec07
    1314:	fc10                	.2byte	0xfc10
    1316:	0001                	.2byte	0x1
    1318:	0110                	.2byte	0x110
    131a:	075c                	.2byte	0x75c
    131c:	0208                	.2byte	0x208
    131e:	1000                	.2byte	0x1000
    1320:	0218                	.2byte	0x218
    1322:	1000                	.2byte	0x1000
    1324:	5c01                	.2byte	0x5c01
	...

Disassembly of section .debug_rnglists:

00000000 <.debug_rnglists>:
   0:	0000001b          	.4byte	0x1b
   4:	0005                	.2byte	0x5
   6:	0004                	.2byte	0x4
   8:	0000                	.2byte	0x0
   a:	0000                	.2byte	0x0
   c:	7006                	.2byte	0x7006
   e:	0001                	.2byte	0x1
  10:	7010                	.2byte	0x7010
  12:	0001                	.2byte	0x1
  14:	0610                	.2byte	0x610
  16:	0178                	.2byte	0x178
  18:	1000                	.2byte	0x1000
  1a:	0184                	.2byte	0x184
  1c:	1000                	.2byte	0x1000
  1e:	6600                	.2byte	0x6600
  20:	0001                	.2byte	0x1
  22:	0500                	.2byte	0x500
  24:	0400                	.2byte	0x400
  26:	0000                	.2byte	0x0
  28:	0000                	.2byte	0x0
  2a:	0600                	.2byte	0x600
  2c:	0274                	.2byte	0x274
  2e:	1000                	.2byte	0x1000
  30:	0280                	.2byte	0x280
  32:	1000                	.2byte	0x1000
  34:	8406                	.2byte	0x8406
  36:	0002                	.2byte	0x2
  38:	9810                	.2byte	0x9810
  3a:	0002                	.2byte	0x2
  3c:	0610                	.2byte	0x610
  3e:	02a4                	.2byte	0x2a4
  40:	1000                	.2byte	0x1000
  42:	02b8                	.2byte	0x2b8
  44:	1000                	.2byte	0x1000
  46:	0600                	.2byte	0x600
  48:	0278                	.2byte	0x278
  4a:	1000                	.2byte	0x1000
  4c:	0280                	.2byte	0x280
  4e:	1000                	.2byte	0x1000
  50:	a406                	.2byte	0xa406
  52:	0002                	.2byte	0x2
  54:	b810                	.2byte	0xb810
  56:	0002                	.2byte	0x2
  58:	0010                	.2byte	0x10
  5a:	ec06                	.2byte	0xec06
  5c:	0008                	.2byte	0x8
  5e:	ec38                	.2byte	0xec38
  60:	000a                	.2byte	0xa
  62:	0638                	.2byte	0x638
  64:	0b0c                	.2byte	0xb0c
  66:	3800                	.2byte	0x3800
  68:	0b18                	.2byte	0xb18
  6a:	3800                	.2byte	0x3800
  6c:	1c06                	.2byte	0x1c06
  6e:	3438000b          	.4byte	0x3438000b
  72:	0038000b          	.4byte	0x38000b
  76:	ec06                	.2byte	0xec06
  78:	0008                	.2byte	0x8
  7a:	f038                	.2byte	0xf038
  7c:	0008                	.2byte	0x8
  7e:	0638                	.2byte	0x638
  80:	08f0                	.2byte	0x8f0
  82:	3800                	.2byte	0x3800
  84:	0adc                	.2byte	0xadc
  86:	3800                	.2byte	0x3800
  88:	e006                	.2byte	0xe006
  8a:	000a                	.2byte	0xa
  8c:	e438                	.2byte	0xe438
  8e:	000a                	.2byte	0xa
  90:	0638                	.2byte	0x638
  92:	0b0c                	.2byte	0xb0c
  94:	3800                	.2byte	0x3800
  96:	0b0c                	.2byte	0xb0c
  98:	3800                	.2byte	0x3800
  9a:	1c06                	.2byte	0x1c06
  9c:	3438000b          	.4byte	0x3438000b
  a0:	0038000b          	.4byte	0x38000b
  a4:	3406                	.2byte	0x3406
  a6:	3438000b          	.4byte	0x3438000b
  aa:	0638000b          	.4byte	0x638000b
  ae:	0b3c                	.2byte	0xb3c
  b0:	3800                	.2byte	0x3800
  b2:	0b48                	.2byte	0xb48
  b4:	3800                	.2byte	0x3800
  b6:	5c06                	.2byte	0x5c06
  b8:	4038000b          	.4byte	0x4038000b
  bc:	000d                	.2byte	0xd
  be:	0038                	.2byte	0x38
  c0:	3406                	.2byte	0x3406
  c2:	3438000b          	.4byte	0x3438000b
  c6:	0638000b          	.4byte	0x638000b
  ca:	0b3c                	.2byte	0xb3c
  cc:	3800                	.2byte	0x3800
  ce:	0b48                	.2byte	0xb48
  d0:	3800                	.2byte	0x3800
  d2:	5c06                	.2byte	0x5c06
  d4:	6838000b          	.4byte	0x6838000b
  d8:	0638000b          	.4byte	0x638000b
  dc:	0b6c                	.2byte	0xb6c
  de:	3800                	.2byte	0x3800
  e0:	0d20                	.2byte	0xd20
  e2:	3800                	.2byte	0x3800
  e4:	2406                	.2byte	0x2406
  e6:	000d                	.2byte	0xd
  e8:	3c38                	.2byte	0x3c38
  ea:	000d                	.2byte	0xd
  ec:	0038                	.2byte	0x38
  ee:	3406                	.2byte	0x3406
  f0:	3438000b          	.4byte	0x3438000b
  f4:	0638000b          	.4byte	0x638000b
  f8:	0b3c                	.2byte	0xb3c
  fa:	3800                	.2byte	0x3800
  fc:	0b48                	.2byte	0xb48
  fe:	3800                	.2byte	0x3800
 100:	5c06                	.2byte	0x5c06
 102:	6838000b          	.4byte	0x6838000b
 106:	0638000b          	.4byte	0x638000b
 10a:	0b6c                	.2byte	0xb6c
 10c:	3800                	.2byte	0x3800
 10e:	0d10                	.2byte	0xd10
 110:	3800                	.2byte	0x3800
 112:	1406                	.2byte	0x1406
 114:	000d                	.2byte	0xd
 116:	1838                	.2byte	0x1838
 118:	000d                	.2byte	0xd
 11a:	0638                	.2byte	0x638
 11c:	0d24                	.2byte	0xd24
 11e:	3800                	.2byte	0x3800
 120:	0d30                	.2byte	0xd30
 122:	3800                	.2byte	0x3800
 124:	0600                	.2byte	0x600
 126:	0218                	.2byte	0x218
 128:	1000                	.2byte	0x1000
 12a:	0230                	.2byte	0x230
 12c:	1000                	.2byte	0x1000
 12e:	3006                	.2byte	0x3006
 130:	0002                	.2byte	0x2
 132:	6c10                	.2byte	0x6c10
 134:	0002                	.2byte	0x2
 136:	0610                	.2byte	0x610
 138:	026c                	.2byte	0x26c
 13a:	1000                	.2byte	0x1000
 13c:	02b8                	.2byte	0x2b8
 13e:	1000                	.2byte	0x1000
 140:	b806                	.2byte	0xb806
 142:	0002                	.2byte	0x2
 144:	e810                	.2byte	0xe810
 146:	0002                	.2byte	0x2
 148:	0610                	.2byte	0x610
 14a:	02e8                	.2byte	0x2e8
 14c:	1000                	.2byte	0x1000
 14e:	0310                	.2byte	0x310
 150:	1000                	.2byte	0x1000
 152:	2406                	.2byte	0x2406
 154:	0000                	.2byte	0x0
 156:	9c38                	.2byte	0x9c38
 158:	0006                	.2byte	0x6
 15a:	0638                	.2byte	0x638
 15c:	069c                	.2byte	0x69c
 15e:	3800                	.2byte	0x3800
 160:	08c0                	.2byte	0x8c0
 162:	3800                	.2byte	0x3800
 164:	c006                	.2byte	0xc006
 166:	0008                	.2byte	0x8
 168:	3438                	.2byte	0x3438
 16a:	0638000b          	.4byte	0x638000b
 16e:	0b34                	.2byte	0xb34
 170:	3800                	.2byte	0x3800
 172:	0d64                	.2byte	0xd64
 174:	3800                	.2byte	0x3800
 176:	6406                	.2byte	0x6406
 178:	000d                	.2byte	0xd
 17a:	dc38                	.2byte	0xdc38
 17c:	000d                	.2byte	0xd
 17e:	0638                	.2byte	0x638
 180:	0ddc                	.2byte	0xddc
 182:	3800                	.2byte	0x3800
 184:	0e84                	.2byte	0xe84
 186:	3800                	.2byte	0x3800
 188:	4a00                	.2byte	0x4a00
 18a:	0000                	.2byte	0x0
 18c:	0500                	.2byte	0x500
 18e:	0400                	.2byte	0x400
 190:	0000                	.2byte	0x0
 192:	0000                	.2byte	0x0
 194:	0600                	.2byte	0x600
 196:	01d8                	.2byte	0x1d8
 198:	1000                	.2byte	0x1000
 19a:	01e8                	.2byte	0x1e8
 19c:	1000                	.2byte	0x1000
 19e:	ec06                	.2byte	0xec06
 1a0:	0001                	.2byte	0x1
 1a2:	fc10                	.2byte	0xfc10
 1a4:	0001                	.2byte	0x1
 1a6:	0610                	.2byte	0x610
 1a8:	0208                	.2byte	0x208
 1aa:	1000                	.2byte	0x1000
 1ac:	0218                	.2byte	0x218
 1ae:	1000                	.2byte	0x1000
 1b0:	0600                	.2byte	0x600
 1b2:	01dc                	.2byte	0x1dc
 1b4:	1000                	.2byte	0x1000
 1b6:	01e8                	.2byte	0x1e8
 1b8:	1000                	.2byte	0x1000
 1ba:	0806                	.2byte	0x806
 1bc:	0002                	.2byte	0x2
 1be:	1810                	.2byte	0x1810
 1c0:	0002                	.2byte	0x2
 1c2:	0010                	.2byte	0x10
 1c4:	9406                	.2byte	0x9406
 1c6:	0001                	.2byte	0x1
 1c8:	1810                	.2byte	0x1810
 1ca:	0002                	.2byte	0x2
 1cc:	0610                	.2byte	0x610
 1ce:	0310                	.2byte	0x310
 1d0:	1000                	.2byte	0x1000
 1d2:	0524                	.2byte	0x524
 1d4:	1000                	.2byte	0x1000
	...

Disassembly of section .debug_frame:

00000000 <.debug_frame>:
   0:	000c                	.2byte	0xc
   2:	0000                	.2byte	0x0
   4:	ffff                	.2byte	0xffff
   6:	ffff                	.2byte	0xffff
   8:	7c010003          	lb	zero,1984(sp)
   c:	0d01                	.2byte	0xd01
   e:	0002                	.2byte	0x2
  10:	0018                	.2byte	0x18
  12:	0000                	.2byte	0x0
  14:	0000                	.2byte	0x0
  16:	0000                	.2byte	0x0
  18:	0158                	.2byte	0x158
  1a:	1000                	.2byte	0x1000
  1c:	003c                	.2byte	0x3c
  1e:	0000                	.2byte	0x0
  20:	0e5c                	.2byte	0xe5c
  22:	4410                	.2byte	0x4410
  24:	0181                	.2byte	0x181
  26:	c154                	.2byte	0xc154
  28:	0e44                	.2byte	0xe44
  2a:	0000                	.2byte	0x0
  2c:	000c                	.2byte	0xc
  2e:	0000                	.2byte	0x0
  30:	ffff                	.2byte	0xffff
  32:	ffff                	.2byte	0xffff
  34:	7c010003          	lb	zero,1984(sp)
  38:	0d01                	.2byte	0xd01
  3a:	0002                	.2byte	0x2
  3c:	000c                	.2byte	0xc
  3e:	0000                	.2byte	0x0
  40:	002c                	.2byte	0x2c
  42:	0000                	.2byte	0x0
  44:	0218                	.2byte	0x218
  46:	1000                	.2byte	0x1000
  48:	0018                	.2byte	0x18
  4a:	0000                	.2byte	0x0
  4c:	000c                	.2byte	0xc
  4e:	0000                	.2byte	0x0
  50:	002c                	.2byte	0x2c
  52:	0000                	.2byte	0x0
  54:	0230                	.2byte	0x230
  56:	1000                	.2byte	0x1000
  58:	003c                	.2byte	0x3c
  5a:	0000                	.2byte	0x0
  5c:	000c                	.2byte	0xc
  5e:	0000                	.2byte	0x0
  60:	002c                	.2byte	0x2c
  62:	0000                	.2byte	0x0
  64:	026c                	.2byte	0x26c
  66:	1000                	.2byte	0x1000
  68:	004c                	.2byte	0x4c
  6a:	0000                	.2byte	0x0
  6c:	000c                	.2byte	0xc
  6e:	0000                	.2byte	0x0
  70:	002c                	.2byte	0x2c
  72:	0000                	.2byte	0x0
  74:	02b8                	.2byte	0x2b8
  76:	1000                	.2byte	0x1000
  78:	0030                	.2byte	0x30
  7a:	0000                	.2byte	0x0
  7c:	000c                	.2byte	0xc
  7e:	0000                	.2byte	0x0
  80:	002c                	.2byte	0x2c
  82:	0000                	.2byte	0x0
  84:	02e8                	.2byte	0x2e8
  86:	1000                	.2byte	0x1000
  88:	0028                	.2byte	0x28
  8a:	0000                	.2byte	0x0
  8c:	004c                	.2byte	0x4c
  8e:	0000                	.2byte	0x0
  90:	002c                	.2byte	0x2c
  92:	0000                	.2byte	0x0
  94:	0024                	.2byte	0x24
  96:	3800                	.2byte	0x3800
  98:	0678                	.2byte	0x678
  9a:	0000                	.2byte	0x0
  9c:	0e44                	.2byte	0xe44
  9e:	4470                	.2byte	0x4470
  a0:	0288                	.2byte	0x288
  a2:	9250                	.2byte	0x9250
  a4:	4c04                	.2byte	0x4c04
  a6:	0a980593          	addi	a1,a6,169
  aa:	8174                	.2byte	0x8174
  ac:	8901                	.2byte	0x8901
  ae:	95069403          	lh	s0,-1712(a3) # a4f950 <_fstack+0xa4f350>
  b2:	97089607          	.4byte	0x97089607
  b6:	9909                	.2byte	0x9909
  b8:	9b0c9a0b          	.4byte	0x9b0c9a0b
  bc:	030d                	.2byte	0x30d
  be:	05d8                	.2byte	0x5d8
  c0:	44c1                	.2byte	0x44c1
  c2:	50c8                	.2byte	0x50c8
  c4:	44c9                	.2byte	0x44c9
  c6:	44d2                	.2byte	0x44d2
  c8:	44d444d3          	.4byte	0x44d444d3
  cc:	44d5                	.2byte	0x44d5
  ce:	44d6                	.2byte	0x44d6
  d0:	44d844d7          	.4byte	0x44d844d7
  d4:	44d9                	.2byte	0x44d9
  d6:	44da                	.2byte	0x44da
  d8:	000e48db          	.4byte	0xe48db
  dc:	000c                	.2byte	0xc
  de:	0000                	.2byte	0x0
  e0:	002c                	.2byte	0x2c
  e2:	0000                	.2byte	0x0
  e4:	069c                	.2byte	0x69c
  e6:	3800                	.2byte	0x3800
  e8:	0224                	.2byte	0x224
  ea:	0000                	.2byte	0x0
  ec:	0038                	.2byte	0x38
  ee:	0000                	.2byte	0x0
  f0:	002c                	.2byte	0x2c
  f2:	0000                	.2byte	0x0
  f4:	08c0                	.2byte	0x8c0
  f6:	3800                	.2byte	0x3800
  f8:	0274                	.2byte	0x274
  fa:	0000                	.2byte	0x0
  fc:	0e48                	.2byte	0xe48
  fe:	4420                	.2byte	0x4420
 100:	0389                	.2byte	0x389
 102:	934c                	.2byte	0x934c
 104:	5005                	.2byte	0x5005
 106:	0492                	.2byte	0x492
 108:	0181                	.2byte	0x181
 10a:	0288                	.2byte	0x288
 10c:	0a020c03          	lb	s8,160(tp) # a0 <__DYNAMIC+0xa0>
 110:	44c1                	.2byte	0x44c1
 112:	44c8                	.2byte	0x44c8
 114:	44c9                	.2byte	0x44c9
 116:	44d2                	.2byte	0x44d2
 118:	000e44d3          	.4byte	0xe44d3
 11c:	0b44                	.2byte	0xb44
 11e:	0e64                	.2byte	0xe64
 120:	c100                	.2byte	0xc100
 122:	c9c8                	.2byte	0xc9c8
 124:	d3d2                	.2byte	0xd3d2
 126:	0000                	.2byte	0x0
 128:	0030                	.2byte	0x30
 12a:	0000                	.2byte	0x0
 12c:	002c                	.2byte	0x2c
 12e:	0000                	.2byte	0x0
 130:	0b34                	.2byte	0xb34
 132:	3800                	.2byte	0x3800
 134:	0230                	.2byte	0x230
 136:	0000                	.2byte	0x0
 138:	0e44                	.2byte	0xe44
 13a:	4420                	.2byte	0x4420
 13c:	0288                	.2byte	0x288
 13e:	8960                	.2byte	0x8960
 140:	93049203          	lh	tp,-1744(s1)
 144:	8105                	.2byte	0x8105
 146:	9401                	.2byte	0x9401
 148:	0306                	.2byte	0x306
 14a:	01e8                	.2byte	0x1e8
 14c:	48c1                	.2byte	0x48c1
 14e:	44c8                	.2byte	0x44c8
 150:	44c9                	.2byte	0x44c9
 152:	44d2                	.2byte	0x44d2
 154:	44d444d3          	.4byte	0x44d444d3
 158:	000e                	.2byte	0xe
 15a:	0000                	.2byte	0x0
 15c:	000c                	.2byte	0xc
 15e:	0000                	.2byte	0x0
 160:	002c                	.2byte	0x2c
 162:	0000                	.2byte	0x0
 164:	0d64                	.2byte	0xd64
 166:	3800                	.2byte	0x3800
 168:	0078                	.2byte	0x78
 16a:	0000                	.2byte	0x0
 16c:	000c                	.2byte	0xc
 16e:	0000                	.2byte	0x0
 170:	002c                	.2byte	0x2c
 172:	0000                	.2byte	0x0
 174:	0ddc                	.2byte	0xddc
 176:	3800                	.2byte	0x3800
 178:	00a8                	.2byte	0xa8
 17a:	0000                	.2byte	0x0
 17c:	000c                	.2byte	0xc
 17e:	0000                	.2byte	0x0
 180:	ffff                	.2byte	0xffff
 182:	ffff                	.2byte	0xffff
 184:	7c010003          	lb	zero,1984(sp)
 188:	0d01                	.2byte	0xd01
 18a:	0002                	.2byte	0x2
 18c:	000c                	.2byte	0xc
 18e:	0000                	.2byte	0x0
 190:	017c                	.2byte	0x17c
 192:	0000                	.2byte	0x0
 194:	0194                	.2byte	0x194
 196:	1000                	.2byte	0x1000
 198:	003c                	.2byte	0x3c
 19a:	0000                	.2byte	0x0
 19c:	000c                	.2byte	0xc
 19e:	0000                	.2byte	0x0
 1a0:	017c                	.2byte	0x17c
 1a2:	0000                	.2byte	0x0
 1a4:	01d0                	.2byte	0x1d0
 1a6:	1000                	.2byte	0x1000
 1a8:	0048                	.2byte	0x48
 1aa:	0000                	.2byte	0x0
 1ac:	0020                	.2byte	0x20
 1ae:	0000                	.2byte	0x0
 1b0:	017c                	.2byte	0x17c
 1b2:	0000                	.2byte	0x0
 1b4:	0310                	.2byte	0x310
 1b6:	1000                	.2byte	0x1000
 1b8:	0214                	.2byte	0x214
 1ba:	0000                	.2byte	0x0
 1bc:	0e44                	.2byte	0xe44
 1be:	5410                	.2byte	0x5410
 1c0:	0181                	.2byte	0x181
 1c2:	0288                	.2byte	0x288
 1c4:	c101ec03          	.4byte	0xc101ec03
 1c8:	c848                	.2byte	0xc848
 1ca:	0e44                	.2byte	0xe44
 1cc:	0000                	.2byte	0x0
	...
