	.file	"function.c"
	.option nopic
	.attribute arch, "rv32i2p0"
	.attribute unaligned_access, 0
	.attribute stack_align, 16
	.text
.Ltext0:
	.cfi_sections	.debug_frame
	.file 0 "/home/ubuntu/final_project/lab-wlos_baseline/testbench/top" "function.c"
	.section	.mprj,"ax",@progbits
	.align	2
	.globl	uart_write
	.type	uart_write, @function
uart_write:
.LFB321:
	.file 1 "function.c"
	.loc 1 9 1
	.cfi_startproc
.LVL0:
	.loc 1 10 5
	.loc 1 10 14 is_stmt 0
	li	a4,805306368
.L2:
	.loc 1 10 11 is_stmt 1 discriminator 1
	.loc 1 10 14 is_stmt 0 discriminator 1
	lw	a5,8(a4)
	.loc 1 10 11 discriminator 1
	andi	a5,a5,8
	bne	a5,zero,.L2
	.loc 1 11 5 is_stmt 1
	.loc 1 11 39 is_stmt 0
	sw	a0,4(a4)
	.loc 1 12 1
	ret
	.cfi_endproc
.LFE321:
	.size	uart_write, .-uart_write
	.align	2
	.globl	uart_write_char
	.type	uart_write_char, @function
uart_write_char:
.LFB322:
	.loc 1 15 1 is_stmt 1
	.cfi_startproc
.LVL1:
	.loc 1 16 2
	.loc 1 16 5 is_stmt 0
	li	a5,10
	beq	a0,a5,.L11
.L6:
	.loc 1 20 14 discriminator 1
	li	a4,805306368
.L8:
	.loc 1 20 11 is_stmt 1 discriminator 1
	.loc 1 20 14 is_stmt 0 discriminator 1
	lw	a5,8(a4)
	.loc 1 20 11 discriminator 1
	andi	a5,a5,8
	bne	a5,zero,.L8
	.loc 1 21 5 is_stmt 1
	.loc 1 21 39 is_stmt 0
	sw	a0,4(a4)
	.loc 1 22 1
	ret
.L11:
.LBB6:
.LBB7:
	.loc 1 20 14
	li	a4,805306368
.L7:
	.loc 1 20 11 is_stmt 1
	.loc 1 20 14 is_stmt 0
	lw	a5,8(a4)
	.loc 1 20 11
	andi	a5,a5,8
	bne	a5,zero,.L7
	.loc 1 21 5 is_stmt 1
	.loc 1 21 39 is_stmt 0
	li	a5,13
	sw	a5,4(a4)
	.loc 1 22 1
	j	.L6
.LBE7:
.LBE6:
	.cfi_endproc
.LFE322:
	.size	uart_write_char, .-uart_write_char
	.align	2
	.globl	uart_write_string
	.type	uart_write_string, @function
uart_write_string:
.LFB323:
	.loc 1 25 1 is_stmt 1
	.cfi_startproc
.LVL2:
	.loc 1 26 5
	.loc 1 26 12
	lbu	a3,0(a0)
	beq	a3,zero,.L12
.LBB12:
.LBB13:
	.loc 1 16 5 is_stmt 0
	li	a2,10
.LBB14:
.LBB15:
	.loc 1 20 14
	li	a4,805306368
	.loc 1 21 39
	li	a1,13
.L17:
.LBE15:
.LBE14:
.LBE13:
.LBE12:
	.loc 1 27 9 is_stmt 1
	.loc 1 27 28 is_stmt 0
	addi	a0,a0,1
.LVL3:
.LBB20:
.LBB18:
	.loc 1 16 2 is_stmt 1
	.loc 1 16 5 is_stmt 0
	beq	a3,a2,.L15
.L16:
	.loc 1 20 11 is_stmt 1
	.loc 1 20 14 is_stmt 0
	lw	a5,8(a4)
	.loc 1 20 11
	andi	a5,a5,8
	bne	a5,zero,.L16
	.loc 1 21 5 is_stmt 1
	.loc 1 21 39 is_stmt 0
	sw	a3,4(a4)
.LVL4:
.LBE18:
.LBE20:
	.loc 1 26 12 is_stmt 1
	lbu	a3,0(a0)
	bne	a3,zero,.L17
.L12:
	.loc 1 28 1 is_stmt 0
	ret
.LVL5:
.L15:
.LBB21:
.LBB19:
.LBB17:
.LBB16:
	.loc 1 20 11 is_stmt 1
	.loc 1 20 14 is_stmt 0
	lw	a5,8(a4)
	.loc 1 20 11
	andi	a5,a5,8
	bne	a5,zero,.L15
	.loc 1 21 5 is_stmt 1
	.loc 1 21 39 is_stmt 0
	sw	a1,4(a4)
	.loc 1 22 1
	j	.L16
.LBE16:
.LBE17:
.LBE19:
.LBE21:
	.cfi_endproc
.LFE323:
	.size	uart_write_string, .-uart_write_string
	.align	2
	.globl	uart_read_char
	.type	uart_read_char, @function
uart_read_char:
.LFB324:
	.loc 1 32 1 is_stmt 1
	.cfi_startproc
	.loc 1 33 2
	.loc 1 34 5
	.loc 1 34 12 is_stmt 0
	li	a4,805306368
	lw	a5,8(a4)
	.loc 1 32 1
	li	a0,0
	.loc 1 34 44
	srli	a5,a5,5
	.loc 1 34 7
	bne	a5,zero,.L25
	.loc 1 34 67 discriminator 1
	lw	a5,8(a4)
	.loc 1 34 99 discriminator 1
	srli	a5,a5,4
	.loc 1 34 60 discriminator 1
	bne	a5,zero,.L25
.LVL6:
.LBB22:
	.loc 1 35 26 is_stmt 1 discriminator 1
	.loc 1 36 13 discriminator 1
 #APP
# 36 "function.c" 1
	nop
# 0 "" 2
	.loc 1 35 32 discriminator 1
.LVL7:
	.loc 1 35 26 discriminator 1
 #NO_APP
.LBE22:
	.loc 1 38 9 discriminator 1
	.loc 1 38 16 is_stmt 0 discriminator 1
	lw	a0,0(a4)
	.loc 1 38 13 discriminator 1
	andi	a0,a0,0xff
.LVL8:
.L25:
	.loc 1 41 5 is_stmt 1
	.loc 1 42 1 is_stmt 0
	ret
	.cfi_endproc
.LFE324:
	.size	uart_read_char, .-uart_read_char
	.align	2
	.globl	uart_read
	.type	uart_read, @function
uart_read:
.LFB325:
	.loc 1 45 1 is_stmt 1
	.cfi_startproc
	.loc 1 46 5
	.loc 1 47 5
	.loc 1 47 12 is_stmt 0
	li	a4,805306368
	lw	a5,8(a4)
	.loc 1 47 44
	srli	a5,a5,5
	.loc 1 47 7
	bne	a5,zero,.L27
	.loc 1 47 67 discriminator 1
	lw	a5,8(a4)
	.loc 1 47 99 discriminator 1
	srli	a5,a5,4
	.loc 1 47 60 discriminator 1
	bne	a5,zero,.L27
.LVL9:
.LBB23:
	.loc 1 48 26 is_stmt 1 discriminator 1
	.loc 1 49 13 discriminator 1
 #APP
# 49 "function.c" 1
	nop
# 0 "" 2
	.loc 1 48 32 discriminator 1
.LVL10:
	.loc 1 48 26 discriminator 1
 #NO_APP
.LBE23:
	.loc 1 51 9 discriminator 1
	.loc 1 51 16 is_stmt 0 discriminator 1
	lw	a0,0(a4)
.LVL11:
.L27:
	.loc 1 54 5 is_stmt 1
	.loc 1 55 1 is_stmt 0
	ret
	.cfi_endproc
.LFE325:
	.size	uart_read, .-uart_read
	.globl	__mulsi3
	.section	.mprjram,"ax",@progbits
	.align	2
	.globl	matmul
	.type	matmul, @function
matmul:
.LFB326:
	.loc 1 59 1 is_stmt 1
	.cfi_startproc
	.loc 1 60 2
	.loc 1 61 2
	.loc 1 62 2
	.loc 1 63 2
	.loc 1 64 2
.LVL12:
	.loc 1 64 13
	.loc 1 59 1 is_stmt 0
	addi	sp,sp,-112
	.cfi_def_cfa_offset 112
	sw	s0,104(sp)
	.cfi_offset 8, -8
	.loc 1 68 28
	lui	s0,%hi(.LANCHOR0)
	addi	s0,s0,%lo(.LANCHOR0)
	.loc 1 59 1
	sw	s2,96(sp)
	.loc 1 68 28
	lw	a5,16(s0)
	.cfi_offset 18, -16
	.loc 1 68 13
	lw	s2,68(s0)
	.loc 1 59 1
	sw	s3,92(sp)
	sw	s8,72(sp)
	.cfi_offset 19, -20
	.cfi_offset 24, -40
	.loc 1 68 28
	lw	s3,0(s0)
	.loc 1 68 13
	lw	s8,64(s0)
	.loc 1 68 25
	mv	a1,s2
	mv	a0,a5
	.loc 1 59 1
	sw	ra,108(sp)
	sw	s1,100(sp)
	sw	s4,88(sp)
	sw	s5,84(sp)
	sw	s6,80(sp)
	sw	s7,76(sp)
	sw	s9,68(sp)
	sw	s10,64(sp)
	sw	s11,60(sp)
	.cfi_offset 1, -4
	.cfi_offset 9, -12
	.cfi_offset 20, -24
	.cfi_offset 21, -28
	.cfi_offset 22, -32
	.cfi_offset 23, -36
	.cfi_offset 25, -44
	.cfi_offset 26, -48
	.cfi_offset 27, -52
	.loc 1 68 25
	sw	a5,24(sp)
	call	__mulsi3
.LVL13:
	mv	a1,s8
	mv	s1,a0
	mv	a0,s3
	.loc 1 68 28
	lw	s7,32(s0)
	.loc 1 68 25
	sw	s3,20(sp)
	call	__mulsi3
.LVL14:
	.loc 1 68 13
	lw	s9,72(s0)
	.loc 1 68 25
	mv	a5,a0
	mv	a0,s7
	mv	a1,s9
	.loc 1 68 28
	lw	s6,48(s0)
	.loc 1 68 9
	add	s1,s1,a5
	.loc 1 68 25
	call	__mulsi3
.LVL15:
	.loc 1 68 13
	lw	s10,76(s0)
	.loc 1 68 25
	mv	s3,a0
	mv	a0,s6
	mv	a1,s10
	call	__mulsi3
.LVL16:
	.loc 1 68 28
	lw	s4,20(s0)
	.loc 1 68 9
	add	s3,s3,s1
	.loc 1 69 22
	lui	a4,%hi(.LANCHOR1)
	addi	s1,a4,%lo(.LANCHOR1)
	.loc 1 68 9
	add	a5,a0,s3
	.loc 1 69 22
	sw	a5,0(s1)
	.loc 1 68 25
	mv	a1,s2
	mv	a0,s4
	call	__mulsi3
.LVL17:
	.loc 1 68 28
	lw	s5,4(s0)
	lw	a4,52(s0)
	.loc 1 68 25
	mv	a1,s8
	mv	s3,a0
	mv	a0,s5
	.loc 1 68 28
	sw	a4,4(sp)
	lw	s11,36(s0)
	.loc 1 68 25
	call	__mulsi3
.LVL18:
	.loc 1 68 28
	lw	a3,24(s0)
	.loc 1 68 25
	mv	a5,a0
	mv	a1,s9
	mv	a0,s11
	sw	s11,28(sp)
	.loc 1 68 9
	add	s3,s3,a5
	.loc 1 68 28
	mv	s11,a3
	.loc 1 68 25
	call	__mulsi3
.LVL19:
	.loc 1 68 28
	lw	a3,8(s0)
	.loc 1 68 25
	mv	a5,a0
	lw	a0,4(sp)
	mv	a1,s10
	.loc 1 68 28
	sw	a3,8(sp)
	.loc 1 68 9
	add	s3,a5,s3
	.loc 1 68 25
	call	__mulsi3
.LVL20:
	.loc 1 68 28
	lw	a2,40(s0)
	.loc 1 68 9
	add	a5,a0,s3
	.loc 1 69 22
	sw	a5,4(s1)
	.loc 1 68 25
	mv	a1,s2
	mv	a0,s11
	sw	s11,32(sp)
	.loc 1 68 28
	mv	s11,a2
	.loc 1 68 25
	call	__mulsi3
.LVL21:
	.loc 1 68 28
	lw	a2,56(s0)
	.loc 1 68 25
	mv	s3,a0
	lw	a0,8(sp)
	mv	a1,s8
	.loc 1 68 28
	sw	a2,12(sp)
	.loc 1 68 25
	call	__mulsi3
.LVL22:
	.loc 1 68 28
	lw	a6,28(s0)
	.loc 1 68 25
	mv	a5,a0
	mv	a1,s9
	mv	a0,s11
	sw	s11,36(sp)
	.loc 1 68 9
	add	s3,s3,a5
	.loc 1 68 28
	mv	s11,a6
	.loc 1 68 25
	call	__mulsi3
.LVL23:
	.loc 1 68 28
	lw	a6,12(s0)
	.loc 1 68 25
	mv	a5,a0
	lw	a0,12(sp)
	mv	a1,s10
	.loc 1 68 28
	sw	a6,16(sp)
	.loc 1 68 9
	add	s3,a5,s3
	.loc 1 68 25
	call	__mulsi3
.LVL24:
	.loc 1 68 9
	add	a5,a0,s3
	.loc 1 68 25
	mv	a1,s2
	.loc 1 69 22
	sw	a5,8(s1)
	.loc 1 68 25
	mv	a0,s11
	sw	s11,40(sp)
	call	__mulsi3
.LVL25:
	mv	a5,a0
	lw	a0,16(sp)
	.loc 1 68 28
	lw	s3,44(s0)
	.loc 1 68 25
	mv	a1,s8
	.loc 1 68 28
	lw	s2,60(s0)
.LVL26:
	.loc 1 65 14 is_stmt 1
	.loc 1 67 15
	.loc 1 68 5
	.loc 1 67 19
	.loc 1 67 15
	.loc 1 68 5
	.loc 1 67 19
	.loc 1 67 15
	.loc 1 68 5
	.loc 1 67 19
	.loc 1 67 15
	.loc 1 68 5
	.loc 1 67 19
	.loc 1 67 15
	.loc 1 69 4
	.loc 1 65 19
	.loc 1 65 14
	.loc 1 67 15
	.loc 1 68 5
	.loc 1 67 19
	.loc 1 67 15
	.loc 1 68 5
	.loc 1 67 19
	.loc 1 67 15
	.loc 1 68 5
	.loc 1 67 19
	.loc 1 67 15
	.loc 1 68 5
	.loc 1 67 19
	.loc 1 67 15
	.loc 1 69 4
	.loc 1 65 19
	.loc 1 65 14
	.loc 1 67 15
	.loc 1 68 5
	.loc 1 67 19
	.loc 1 67 15
	.loc 1 68 5
	.loc 1 67 19
	.loc 1 67 15
	.loc 1 68 5
	.loc 1 67 19
	.loc 1 67 15
	.loc 1 68 5
	.loc 1 67 19
	.loc 1 67 15
	.loc 1 69 4
	.loc 1 65 19
	.loc 1 65 14
	.loc 1 67 15
	.loc 1 68 5
	.loc 1 67 19
	.loc 1 67 15
	.loc 1 68 5
	.loc 1 68 25 is_stmt 0
	mv	s8,a5
	call	__mulsi3
.LVL27:
	mv	a5,a0
	mv	a1,s3
	mv	a0,s9
	.loc 1 68 9
	add	s8,s8,a5
.LVL28:
	.loc 1 67 19 is_stmt 1
	.loc 1 67 15
	.loc 1 68 5
	.loc 1 68 25 is_stmt 0
	call	__mulsi3
.LVL29:
	mv	a5,a0
	mv	a1,s2
	mv	a0,s10
	.loc 1 68 9
	add	s8,a5,s8
.LVL30:
	.loc 1 67 19 is_stmt 1
	.loc 1 67 15
	.loc 1 68 5
	.loc 1 67 19
	.loc 1 67 15
	.loc 1 69 4
	.loc 1 68 25 is_stmt 0
	call	__mulsi3
.LVL31:
	.loc 1 68 13
	lw	s11,84(s0)
	.loc 1 68 9
	add	a5,a0,s8
	.loc 1 68 25
	lw	a0,24(sp)
	.loc 1 69 22
	sw	a5,12(s1)
	.loc 1 65 19 is_stmt 1
.LVL32:
	.loc 1 65 14
	.loc 1 64 18
	.loc 1 64 13
	.loc 1 65 14
	.loc 1 67 15
	.loc 1 68 5
	.loc 1 68 25 is_stmt 0
	mv	a1,s11
	call	__mulsi3
.LVL33:
	.loc 1 68 13
	lw	s10,80(s0)
.LVL34:
	.loc 1 67 19 is_stmt 1
	.loc 1 67 15
	.loc 1 68 5
	.loc 1 68 25 is_stmt 0
	mv	s8,a0
	lw	a0,20(sp)
	mv	a1,s10
	call	__mulsi3
.LVL35:
	.loc 1 68 13
	lw	s9,88(s0)
	.loc 1 68 9
	add	a5,s8,a0
	.loc 1 68 25
	mv	a1,s7
	mv	a0,s9
	.loc 1 68 9
	sw	a5,44(sp)
.LVL36:
	.loc 1 67 19 is_stmt 1
	.loc 1 67 15
	.loc 1 68 5
	.loc 1 68 25 is_stmt 0
	call	__mulsi3
.LVL37:
	.loc 1 68 9
	lw	a5,44(sp)
	.loc 1 68 13
	lw	s8,92(s0)
	.loc 1 68 25
	mv	a1,s6
	.loc 1 68 9
	add	a5,a0,a5
	.loc 1 68 25
	mv	a0,s8
	.loc 1 68 9
	sw	a5,44(sp)
.LVL38:
	.loc 1 67 19 is_stmt 1
	.loc 1 67 15
	.loc 1 68 5
	.loc 1 67 19
	.loc 1 67 15
	.loc 1 69 4
	.loc 1 68 25 is_stmt 0
	call	__mulsi3
.LVL39:
	.loc 1 68 9
	lw	a5,44(sp)
	.loc 1 68 25
	mv	a1,s4
	.loc 1 68 9
	add	a5,a0,a5
	.loc 1 69 22
	sw	a5,16(s1)
	.loc 1 65 19 is_stmt 1
.LVL40:
	.loc 1 65 14
	.loc 1 67 15
	.loc 1 68 5
	.loc 1 67 19
	.loc 1 67 15
	.loc 1 68 5
	.loc 1 68 25 is_stmt 0
	mv	a0,s11
	call	__mulsi3
.LVL41:
	mv	a5,a0
	mv	a1,s5
	mv	a0,s10
	sw	a5,44(sp)
	call	__mulsi3
.LVL42:
	.loc 1 68 9
	lw	a5,44(sp)
	.loc 1 68 25
	lw	a1,28(sp)
	mv	a4,a0
	.loc 1 68 9
	add	a5,a5,a4
	.loc 1 68 25
	mv	a0,s9
	.loc 1 68 9
	sw	a5,44(sp)
.LVL43:
	.loc 1 67 19 is_stmt 1
	.loc 1 67 15
	.loc 1 68 5
	.loc 1 68 25 is_stmt 0
	call	__mulsi3
.LVL44:
	.loc 1 68 9
	lw	a5,44(sp)
	.loc 1 68 25
	lw	a1,4(sp)
	mv	a4,a0
	.loc 1 68 9
	add	a5,a4,a5
	.loc 1 68 25
	mv	a0,s8
	.loc 1 68 9
	sw	a5,44(sp)
.LVL45:
	.loc 1 67 19 is_stmt 1
	.loc 1 67 15
	.loc 1 68 5
	.loc 1 67 19
	.loc 1 67 15
	.loc 1 69 4
	.loc 1 68 25 is_stmt 0
	call	__mulsi3
.LVL46:
	.loc 1 68 9
	lw	a5,44(sp)
	.loc 1 68 25
	lw	a1,32(sp)
	.loc 1 68 9
	add	a5,a0,a5
	.loc 1 69 22
	sw	a5,20(s1)
	.loc 1 65 19 is_stmt 1
.LVL47:
	.loc 1 65 14
	.loc 1 67 15
	.loc 1 68 5
	.loc 1 67 19
	.loc 1 67 15
	.loc 1 68 5
	.loc 1 68 25 is_stmt 0
	mv	a0,s11
	call	__mulsi3
.LVL48:
	lw	a1,8(sp)
	mv	a5,a0
	mv	a0,s10
	sw	a5,44(sp)
	call	__mulsi3
.LVL49:
	.loc 1 68 9
	lw	a5,44(sp)
	.loc 1 68 25
	lw	a1,36(sp)
	mv	a4,a0
	.loc 1 68 9
	add	a5,a5,a4
	.loc 1 68 25
	mv	a0,s9
	.loc 1 68 9
	sw	a5,44(sp)
.LVL50:
	.loc 1 67 19 is_stmt 1
	.loc 1 67 15
	.loc 1 68 5
	.loc 1 68 25 is_stmt 0
	call	__mulsi3
.LVL51:
	.loc 1 68 9
	lw	a5,44(sp)
	.loc 1 68 25
	lw	a1,12(sp)
	mv	a4,a0
	.loc 1 68 9
	add	a5,a4,a5
	.loc 1 68 25
	mv	a0,s8
	.loc 1 68 9
	sw	a5,44(sp)
.LVL52:
	.loc 1 67 19 is_stmt 1
	.loc 1 67 15
	.loc 1 68 5
	.loc 1 67 19
	.loc 1 67 15
	.loc 1 69 4
	.loc 1 68 25 is_stmt 0
	call	__mulsi3
.LVL53:
	.loc 1 68 9
	lw	a5,44(sp)
	.loc 1 68 25
	lw	a1,40(sp)
	.loc 1 68 9
	add	a5,a0,a5
	.loc 1 69 22
	sw	a5,24(s1)
	.loc 1 65 19 is_stmt 1
.LVL54:
	.loc 1 65 14
	.loc 1 67 15
	.loc 1 68 5
	.loc 1 67 19
	.loc 1 67 15
	.loc 1 68 5
	.loc 1 68 25 is_stmt 0
	mv	a0,s11
	call	__mulsi3
.LVL55:
	lw	a1,16(sp)
	mv	a5,a0
	mv	a0,s10
	mv	s10,a5
.LVL56:
	call	__mulsi3
.LVL57:
	mv	a5,a0
	mv	a1,s3
	mv	a0,s9
	.loc 1 68 9
	add	s9,s10,a5
.LVL58:
	.loc 1 67 19 is_stmt 1
	.loc 1 67 15
	.loc 1 68 5
	.loc 1 68 25 is_stmt 0
	call	__mulsi3
.LVL59:
	mv	a5,a0
	mv	a1,s2
	mv	a0,s8
	.loc 1 68 9
	add	s9,a5,s9
.LVL60:
	.loc 1 67 19 is_stmt 1
	.loc 1 67 15
	.loc 1 68 5
	.loc 1 67 19
	.loc 1 67 15
	.loc 1 69 4
	.loc 1 68 25 is_stmt 0
	call	__mulsi3
.LVL61:
	.loc 1 68 13
	lw	s11,96(s0)
	.loc 1 68 25
	lw	a1,20(sp)
	.loc 1 68 9
	add	a5,a0,s9
	.loc 1 69 22
	sw	a5,28(s1)
	.loc 1 65 19 is_stmt 1
.LVL62:
	.loc 1 65 14
	.loc 1 64 18
	.loc 1 64 13
	.loc 1 65 14
	.loc 1 67 15
	.loc 1 68 5
	.loc 1 67 19
	.loc 1 67 15
	.loc 1 68 5
	.loc 1 68 25 is_stmt 0
	mv	a0,s11
	call	__mulsi3
.LVL63:
	.loc 1 68 13
	lw	s10,100(s0)
	.loc 1 68 25
	lw	a1,24(sp)
	mv	s8,a0
	mv	a0,s10
	call	__mulsi3
.LVL64:
	.loc 1 68 13
	lw	s9,104(s0)
	.loc 1 68 9
	add	a5,s8,a0
	.loc 1 68 25
	mv	a1,s7
	mv	a0,s9
	.loc 1 68 9
	sw	a5,44(sp)
.LVL65:
	.loc 1 67 19 is_stmt 1
	.loc 1 67 15
	.loc 1 68 5
	.loc 1 68 25 is_stmt 0
	call	__mulsi3
.LVL66:
	.loc 1 68 9
	lw	a5,44(sp)
	.loc 1 68 13
	lw	s8,108(s0)
	.loc 1 68 25
	mv	a1,s6
	.loc 1 68 9
	add	a5,a0,a5
	.loc 1 68 25
	mv	a0,s8
	.loc 1 68 9
	sw	a5,44(sp)
.LVL67:
	.loc 1 67 19 is_stmt 1
	.loc 1 67 15
	.loc 1 68 5
	.loc 1 67 19
	.loc 1 67 15
	.loc 1 69 4
	.loc 1 68 25 is_stmt 0
	call	__mulsi3
.LVL68:
	.loc 1 68 9
	lw	a5,44(sp)
	.loc 1 68 25
	mv	a1,s5
	.loc 1 68 9
	add	a5,a0,a5
	.loc 1 69 22
	sw	a5,32(s1)
	.loc 1 65 19 is_stmt 1
.LVL69:
	.loc 1 65 14
	.loc 1 67 15
	.loc 1 68 5
	.loc 1 67 19
	.loc 1 67 15
	.loc 1 68 5
	.loc 1 68 25 is_stmt 0
	mv	a0,s11
	call	__mulsi3
.LVL70:
	mv	a5,a0
	mv	a1,s4
	mv	a0,s10
	sw	a5,44(sp)
	call	__mulsi3
.LVL71:
	.loc 1 68 9
	lw	a5,44(sp)
	.loc 1 68 25
	lw	a1,28(sp)
	mv	a4,a0
	.loc 1 68 9
	add	a5,a5,a4
	.loc 1 68 25
	mv	a0,s9
	.loc 1 68 9
	sw	a5,44(sp)
.LVL72:
	.loc 1 67 19 is_stmt 1
	.loc 1 67 15
	.loc 1 68 5
	.loc 1 68 25 is_stmt 0
	call	__mulsi3
.LVL73:
	lw	a1,4(sp)
	.loc 1 68 9
	lw	a5,44(sp)
	.loc 1 68 25
	mv	a4,a0
	mv	a0,s8
	.loc 1 68 9
	add	a5,a4,a5
	sw	a5,44(sp)
.LVL74:
	.loc 1 67 19 is_stmt 1
	.loc 1 67 15
	.loc 1 68 5
	.loc 1 67 19
	.loc 1 67 15
	.loc 1 69 4
	.loc 1 68 25 is_stmt 0
	call	__mulsi3
.LVL75:
	.loc 1 68 9
	lw	a5,44(sp)
	.loc 1 68 25
	lw	a1,32(sp)
	.loc 1 68 9
	add	a5,a0,a5
	.loc 1 69 22
	sw	a5,36(s1)
	.loc 1 65 19 is_stmt 1
.LVL76:
	.loc 1 65 14
	.loc 1 67 15
	.loc 1 68 5
	.loc 1 67 19
	.loc 1 67 15
	.loc 1 68 5
	.loc 1 68 25 is_stmt 0
	mv	a0,s10
	call	__mulsi3
.LVL77:
	lw	a1,8(sp)
	mv	a5,a0
	mv	a0,s11
	sw	a5,44(sp)
	call	__mulsi3
.LVL78:
	.loc 1 68 9
	lw	a5,44(sp)
	.loc 1 68 25
	lw	a1,36(sp)
	mv	a4,a0
	.loc 1 68 9
	add	a5,a5,a4
	.loc 1 68 25
	mv	a0,s9
	.loc 1 68 9
	sw	a5,44(sp)
.LVL79:
	.loc 1 67 19 is_stmt 1
	.loc 1 67 15
	.loc 1 68 5
	.loc 1 68 25 is_stmt 0
	call	__mulsi3
.LVL80:
	.loc 1 68 9
	lw	a5,44(sp)
	.loc 1 68 25
	lw	a1,12(sp)
	mv	a4,a0
	.loc 1 68 9
	add	a5,a4,a5
	.loc 1 68 25
	mv	a0,s8
	.loc 1 68 9
	sw	a5,44(sp)
.LVL81:
	.loc 1 67 19 is_stmt 1
	.loc 1 67 15
	.loc 1 68 5
	.loc 1 67 19
	.loc 1 67 15
	.loc 1 69 4
	.loc 1 68 25 is_stmt 0
	call	__mulsi3
.LVL82:
	.loc 1 68 9
	lw	a5,44(sp)
	.loc 1 68 25
	lw	a1,16(sp)
	.loc 1 68 9
	add	a5,a0,a5
	.loc 1 69 22
	sw	a5,40(s1)
	.loc 1 65 19 is_stmt 1
.LVL83:
	.loc 1 65 14
	.loc 1 67 15
	.loc 1 68 5
	.loc 1 67 19
	.loc 1 67 15
	.loc 1 68 5
	.loc 1 68 25 is_stmt 0
	mv	a0,s11
	call	__mulsi3
.LVL84:
	lw	a1,40(sp)
	mv	a5,a0
	mv	a0,s10
	mv	s10,a5
	call	__mulsi3
.LVL85:
	mv	a5,a0
	mv	a1,s3
	mv	a0,s9
	.loc 1 68 9
	add	s10,s10,a5
.LVL86:
	.loc 1 67 19 is_stmt 1
	.loc 1 67 15
	.loc 1 68 5
	.loc 1 68 25 is_stmt 0
	call	__mulsi3
.LVL87:
	mv	a5,a0
	mv	a1,s2
	mv	a0,s8
	.loc 1 68 9
	add	s8,a5,s10
.LVL88:
	.loc 1 67 19 is_stmt 1
	.loc 1 67 15
	.loc 1 68 5
	.loc 1 67 19
	.loc 1 67 15
	.loc 1 69 4
	.loc 1 68 25 is_stmt 0
	call	__mulsi3
.LVL89:
	.loc 1 68 13
	lw	s10,112(s0)
	.loc 1 68 25
	lw	a1,20(sp)
	.loc 1 68 9
	add	a5,a0,s8
	.loc 1 69 22
	sw	a5,44(s1)
	.loc 1 65 19 is_stmt 1
.LVL90:
	.loc 1 65 14
	.loc 1 64 18
	.loc 1 64 13
	.loc 1 65 14
	.loc 1 67 15
	.loc 1 68 5
	.loc 1 67 19
	.loc 1 67 15
	.loc 1 68 5
	.loc 1 68 25 is_stmt 0
	mv	a0,s10
	call	__mulsi3
.LVL91:
	.loc 1 68 13
	lw	s9,116(s0)
	.loc 1 68 25
	lw	a1,24(sp)
	mv	s11,a0
	mv	a0,s9
	call	__mulsi3
.LVL92:
	.loc 1 68 13
	lw	s8,120(s0)
	.loc 1 68 25
	mv	a1,s7
	.loc 1 68 9
	add	s7,s11,a0
.LVL93:
	.loc 1 67 19 is_stmt 1
	.loc 1 67 15
	.loc 1 68 5
	.loc 1 68 25 is_stmt 0
	mv	a0,s8
	call	__mulsi3
.LVL94:
	.loc 1 68 13
	lw	s0,124(s0)
	.loc 1 68 25
	mv	a1,s6
	.loc 1 68 9
	add	s7,a0,s7
.LVL95:
	.loc 1 67 19 is_stmt 1
	.loc 1 67 15
	.loc 1 68 5
	.loc 1 67 19
	.loc 1 67 15
	.loc 1 69 4
	.loc 1 68 25 is_stmt 0
	mv	a0,s0
	call	__mulsi3
.LVL96:
	.loc 1 68 9
	add	a5,a0,s7
	.loc 1 68 25
	mv	a1,s5
	.loc 1 69 22
	sw	a5,48(s1)
	.loc 1 65 19 is_stmt 1
.LVL97:
	.loc 1 65 14
	.loc 1 67 15
	.loc 1 68 5
	.loc 1 67 19
	.loc 1 67 15
	.loc 1 68 5
	.loc 1 68 25 is_stmt 0
	mv	a0,s10
	call	__mulsi3
.LVL98:
	mv	a5,a0
	mv	a1,s4
	mv	a0,s9
	mv	s4,a5
	call	__mulsi3
.LVL99:
	lw	a1,28(sp)
	mv	a5,a0
	mv	a0,s8
	.loc 1 68 9
	add	s4,s4,a5
.LVL100:
	.loc 1 67 19 is_stmt 1
	.loc 1 67 15
	.loc 1 68 5
	.loc 1 68 25 is_stmt 0
	call	__mulsi3
.LVL101:
	lw	a1,4(sp)
	mv	a5,a0
	mv	a0,s0
	.loc 1 68 9
	add	s4,a5,s4
.LVL102:
	.loc 1 67 19 is_stmt 1
	.loc 1 67 15
	.loc 1 68 5
	.loc 1 67 19
	.loc 1 67 15
	.loc 1 69 4
	.loc 1 68 25 is_stmt 0
	call	__mulsi3
.LVL103:
	lw	a1,8(sp)
	.loc 1 68 9
	add	a5,a0,s4
	.loc 1 69 22
	sw	a5,52(s1)
	.loc 1 65 19 is_stmt 1
.LVL104:
	.loc 1 65 14
	.loc 1 67 15
	.loc 1 68 5
	.loc 1 67 19
	.loc 1 67 15
	.loc 1 68 5
	.loc 1 68 25 is_stmt 0
	mv	a0,s10
	call	__mulsi3
.LVL105:
	lw	a1,32(sp)
	mv	s4,a0
	mv	a0,s9
	call	__mulsi3
.LVL106:
	lw	a1,36(sp)
	mv	a5,a0
	mv	a0,s8
	.loc 1 68 9
	add	s4,s4,a5
.LVL107:
	.loc 1 67 19 is_stmt 1
	.loc 1 67 15
	.loc 1 68 5
	.loc 1 68 25 is_stmt 0
	call	__mulsi3
.LVL108:
	lw	a1,12(sp)
	mv	a5,a0
	mv	a0,s0
	.loc 1 68 9
	add	s4,a5,s4
.LVL109:
	.loc 1 67 19 is_stmt 1
	.loc 1 67 15
	.loc 1 68 5
	.loc 1 67 19
	.loc 1 67 15
	.loc 1 69 4
	.loc 1 68 25 is_stmt 0
	call	__mulsi3
.LVL110:
	lw	a1,16(sp)
	.loc 1 68 9
	add	a5,a0,s4
	.loc 1 69 22
	sw	a5,56(s1)
	.loc 1 65 19 is_stmt 1
.LVL111:
	.loc 1 65 14
	.loc 1 67 15
	.loc 1 68 5
	.loc 1 67 19
	.loc 1 67 15
	.loc 1 68 5
	.loc 1 68 25 is_stmt 0
	mv	a0,s10
	call	__mulsi3
.LVL112:
	lw	a1,40(sp)
	mv	s4,a0
	mv	a0,s9
	call	__mulsi3
.LVL113:
	mv	a5,a0
	mv	a1,s3
	mv	a0,s8
	.loc 1 68 9
	add	s3,s4,a5
.LVL114:
	.loc 1 67 19 is_stmt 1
	.loc 1 67 15
	.loc 1 68 5
	.loc 1 68 25 is_stmt 0
	call	__mulsi3
.LVL115:
	mv	a5,a0
	mv	a1,s2
	mv	a0,s0
	.loc 1 68 9
	add	s3,a5,s3
.LVL116:
	.loc 1 67 19 is_stmt 1
	.loc 1 67 15
	.loc 1 68 5
	.loc 1 67 19
	.loc 1 67 15
	.loc 1 69 4
	.loc 1 68 25 is_stmt 0
	call	__mulsi3
.LVL117:
	.loc 1 73 1
	lw	ra,108(sp)
	.cfi_restore 1
	lw	s0,104(sp)
	.cfi_restore 8
.LVL118:
	.loc 1 68 9
	add	a5,a0,s3
	.loc 1 69 22
	sw	a5,60(s1)
	.loc 1 65 19 is_stmt 1
.LVL119:
	.loc 1 65 14
	.loc 1 64 18
	.loc 1 64 13
	.loc 1 72 2
	.loc 1 73 1 is_stmt 0
	lui	a4,%hi(.LANCHOR1)
	lw	s1,100(sp)
	.cfi_restore 9
	lw	s2,96(sp)
	.cfi_restore 18
	lw	s3,92(sp)
	.cfi_restore 19
	lw	s4,88(sp)
	.cfi_restore 20
	lw	s5,84(sp)
	.cfi_restore 21
	lw	s6,80(sp)
	.cfi_restore 22
	lw	s7,76(sp)
	.cfi_restore 23
	lw	s8,72(sp)
	.cfi_restore 24
	lw	s9,68(sp)
	.cfi_restore 25
	lw	s10,64(sp)
	.cfi_restore 26
	lw	s11,60(sp)
	.cfi_restore 27
	addi	a0,a4,%lo(.LANCHOR1)
	addi	sp,sp,112
	.cfi_def_cfa_offset 0
	jr	ra
	.cfi_endproc
.LFE326:
	.size	matmul, .-matmul
	.align	2
	.globl	partition
	.type	partition, @function
partition:
.LFB327:
	.loc 1 78 75 is_stmt 1
	.cfi_startproc
.LVL120:
	.loc 1 79 2
	.loc 1 79 6 is_stmt 0
	lui	a5,%hi(.LANCHOR0)
	addi	a4,a5,%lo(.LANCHOR0)
	slli	a6,a1,2
	add	a5,a4,a6
	lw	a2,128(a5)
.LVL121:
	.loc 1 80 2 is_stmt 1
	.loc 1 81 2
	.loc 1 82 2
	.loc 1 82 15
	ble	a1,a0,.L31
	.loc 1 83 3
	.loc 1 83 8 is_stmt 0
	slli	a5,a0,2
	add	a5,a4,a5
	.loc 1 83 5
	lw	a5,128(a5)
	.loc 1 82 20
	addi	a3,a0,1
	.loc 1 80 6
	sgt	a5,a2,a5
	xori	a5,a5,1
	sub	a5,a0,a5
.LVL122:
	.loc 1 82 20 is_stmt 1
	.loc 1 82 15
	ble	a1,a3,.L33
	.loc 1 83 3
	.loc 1 83 8 is_stmt 0
	slli	a3,a3,2
.LVL123:
	add	a3,a4,a3
	lw	a7,128(a3)
	.loc 1 83 5
	bgt	a2,a7,.L46
.LVL124:
.L34:
	.loc 1 82 20 is_stmt 1
	addi	a3,a0,2
.LVL125:
	.loc 1 82 15
	ble	a1,a3,.L33
	.loc 1 83 3
	.loc 1 83 8 is_stmt 0
	slli	a3,a3,2
.LVL126:
	add	a3,a4,a3
	lw	a7,128(a3)
	.loc 1 83 5
	bgt	a2,a7,.L47
.LVL127:
.L35:
	.loc 1 82 20 is_stmt 1
	addi	a3,a0,3
.LVL128:
	.loc 1 82 15
	ble	a1,a3,.L33
	.loc 1 83 3
	.loc 1 83 8 is_stmt 0
	slli	a3,a3,2
.LVL129:
	add	a3,a4,a3
	lw	a7,128(a3)
	.loc 1 83 5
	bgt	a2,a7,.L48
.LVL130:
.L36:
	.loc 1 82 20 is_stmt 1
	addi	a3,a0,4
.LVL131:
	.loc 1 82 15
	ble	a1,a3,.L33
	.loc 1 83 3
	.loc 1 83 8 is_stmt 0
	slli	a3,a3,2
.LVL132:
	add	a3,a4,a3
	lw	a7,128(a3)
	.loc 1 83 5
	ble	a2,a7,.L37
	.loc 1 84 6
	addi	a5,a5,1
.LVL133:
	.loc 1 85 9
	slli	t1,a5,2
	add	t1,a4,t1
	lw	t3,128(t1)
	.loc 1 84 4 is_stmt 1
.LVL134:
	.loc 1 85 4
	.loc 1 86 4
	.loc 1 86 10 is_stmt 0
	sw	a7,128(t1)
.LVL135:
	.loc 1 87 4 is_stmt 1
	.loc 1 87 10 is_stmt 0
	sw	t3,128(a3)
.LVL136:
.L37:
	.loc 1 82 20 is_stmt 1
	addi	a3,a0,5
.LVL137:
	.loc 1 82 15
	ble	a1,a3,.L33
	.loc 1 83 3
	.loc 1 83 8 is_stmt 0
	slli	a3,a3,2
.LVL138:
	add	a3,a4,a3
	lw	t1,128(a3)
	.loc 1 83 5
	ble	a2,t1,.L38
	.loc 1 84 6
	addi	a5,a5,1
.LVL139:
	.loc 1 85 9
	slli	a7,a5,2
	add	a7,a4,a7
	lw	t3,128(a7)
	.loc 1 84 4 is_stmt 1
.LVL140:
	.loc 1 85 4
	.loc 1 86 4
	.loc 1 86 10 is_stmt 0
	sw	t1,128(a7)
.LVL141:
	.loc 1 87 4 is_stmt 1
	.loc 1 87 10 is_stmt 0
	sw	t3,128(a3)
.LVL142:
.L38:
	.loc 1 82 20 is_stmt 1
	addi	a3,a0,6
.LVL143:
	.loc 1 82 15
	ble	a1,a3,.L33
	.loc 1 83 3
	.loc 1 83 8 is_stmt 0
	slli	a3,a3,2
.LVL144:
	add	a3,a4,a3
	lw	t1,128(a3)
	.loc 1 83 5
	ble	a2,t1,.L39
	.loc 1 84 6
	addi	a5,a5,1
.LVL145:
	.loc 1 85 9
	slli	a7,a5,2
	add	a7,a4,a7
	lw	t3,128(a7)
	.loc 1 84 4 is_stmt 1
.LVL146:
	.loc 1 85 4
	.loc 1 86 4
	.loc 1 86 10 is_stmt 0
	sw	t1,128(a7)
.LVL147:
	.loc 1 87 4 is_stmt 1
	.loc 1 87 10 is_stmt 0
	sw	t3,128(a3)
.LVL148:
.L39:
	.loc 1 82 20 is_stmt 1
	addi	a3,a0,7
.LVL149:
	.loc 1 82 15
	ble	a1,a3,.L33
	.loc 1 83 3
	.loc 1 83 8 is_stmt 0
	slli	a3,a3,2
.LVL150:
	add	a3,a4,a3
	lw	a7,128(a3)
	.loc 1 83 5
	bgt	a2,a7,.L49
.LVL151:
.L40:
	.loc 1 82 20 is_stmt 1
	addi	a3,a0,8
.LVL152:
	.loc 1 82 15
	ble	a1,a3,.L33
	.loc 1 83 3
	.loc 1 83 8 is_stmt 0
	slli	a3,a3,2
.LVL153:
	add	a3,a4,a3
	lw	t1,128(a3)
	.loc 1 83 5
	bgt	a2,t1,.L50
.LVL154:
.L41:
	.loc 1 82 20 is_stmt 1
	addi	a0,a0,9
.LVL155:
	.loc 1 82 15
	ble	a1,a0,.L33
	.loc 1 83 3
	.loc 1 83 8 is_stmt 0
	slli	a0,a0,2
.LVL156:
	add	a0,a4,a0
	lw	a1,128(a0)
.LVL157:
	.loc 1 83 5
	blt	a1,a2,.L51
.LVL158:
.L33:
	.loc 1 90 7
	add	a3,a4,a6
	lw	a2,128(a3)
	.loc 1 90 18
	addi	a0,a5,1
.LVL159:
.L31:
	.loc 1 90 2 is_stmt 1
	.loc 1 90 16 is_stmt 0
	slli	a5,a0,2
	add	a5,a4,a5
	lw	a3,128(a5)
	.loc 1 90 4
	ble	a3,a2,.L30
	.loc 1 91 3 is_stmt 1
.LVL160:
	.loc 1 92 3
	.loc 1 92 11 is_stmt 0
	sw	a2,128(a5)
	.loc 1 93 3 is_stmt 1
	.loc 1 93 10 is_stmt 0
	add	a5,a4,a6
	sw	a3,128(a5)
	.loc 1 95 2 is_stmt 1
.LVL161:
.L30:
	.loc 1 96 1 is_stmt 0
	ret
.LVL162:
.L46:
	.loc 1 84 6
	addi	a5,a5,1
.LVL163:
	.loc 1 85 9
	slli	t1,a5,2
	add	t1,a4,t1
	lw	t3,128(t1)
	.loc 1 84 4 is_stmt 1
.LVL164:
	.loc 1 85 4
	.loc 1 86 4
	.loc 1 86 10 is_stmt 0
	sw	a7,128(t1)
.LVL165:
	.loc 1 87 4 is_stmt 1
	.loc 1 87 10 is_stmt 0
	sw	t3,128(a3)
	j	.L34
.LVL166:
.L47:
	.loc 1 84 6
	addi	a5,a5,1
.LVL167:
	.loc 1 85 9
	slli	t1,a5,2
	add	t1,a4,t1
	lw	t3,128(t1)
	.loc 1 84 4 is_stmt 1
.LVL168:
	.loc 1 85 4
	.loc 1 86 4
	.loc 1 86 10 is_stmt 0
	sw	a7,128(t1)
.LVL169:
	.loc 1 87 4 is_stmt 1
	.loc 1 87 10 is_stmt 0
	sw	t3,128(a3)
	j	.L35
.LVL170:
.L48:
	.loc 1 84 6
	addi	a5,a5,1
.LVL171:
	.loc 1 85 9
	slli	t1,a5,2
	add	t1,a4,t1
	lw	t3,128(t1)
	.loc 1 84 4 is_stmt 1
.LVL172:
	.loc 1 85 4
	.loc 1 86 4
	.loc 1 86 10 is_stmt 0
	sw	a7,128(t1)
.LVL173:
	.loc 1 87 4 is_stmt 1
	.loc 1 87 10 is_stmt 0
	sw	t3,128(a3)
	j	.L36
.LVL174:
.L49:
	.loc 1 84 6
	addi	a5,a5,1
.LVL175:
	.loc 1 85 9
	slli	t1,a5,2
	add	t1,a4,t1
	lw	t3,128(t1)
	.loc 1 84 4 is_stmt 1
.LVL176:
	.loc 1 85 4
	.loc 1 86 4
	.loc 1 86 10 is_stmt 0
	sw	a7,128(t1)
.LVL177:
	.loc 1 87 4 is_stmt 1
	.loc 1 87 10 is_stmt 0
	sw	t3,128(a3)
	j	.L40
.LVL178:
.L50:
	.loc 1 84 6
	addi	a5,a5,1
.LVL179:
	.loc 1 85 9
	slli	a7,a5,2
	add	a7,a4,a7
	lw	t3,128(a7)
	.loc 1 84 4 is_stmt 1
.LVL180:
	.loc 1 85 4
	.loc 1 86 4
	.loc 1 86 10 is_stmt 0
	sw	t1,128(a7)
.LVL181:
	.loc 1 87 4 is_stmt 1
	.loc 1 87 10 is_stmt 0
	sw	t3,128(a3)
	j	.L41
.LVL182:
.L51:
	.loc 1 84 6
	addi	a5,a5,1
.LVL183:
	.loc 1 85 9
	slli	a3,a5,2
	add	a3,a4,a3
	lw	a2,128(a3)
.LVL184:
	.loc 1 84 4 is_stmt 1
	.loc 1 85 4
	.loc 1 86 4
	.loc 1 86 10 is_stmt 0
	sw	a1,128(a3)
.LVL185:
	.loc 1 87 4 is_stmt 1
	.loc 1 87 10 is_stmt 0
	sw	a2,128(a0)
.LVL186:
	.loc 1 82 20 is_stmt 1
	.loc 1 82 15
	j	.L33
	.cfi_endproc
.LFE327:
	.size	partition, .-partition
	.align	2
	.globl	sort
	.type	sort, @function
sort:
.LFB328:
	.loc 1 97 72
	.cfi_startproc
.LVL187:
	.loc 1 98 2
	.loc 1 98 4 is_stmt 0
	ble	a1,a0,.L72
	.loc 1 97 72
	addi	sp,sp,-32
	.cfi_def_cfa_offset 32
	sw	s1,20(sp)
	.cfi_offset 9, -12
	lui	s1,%hi(.LANCHOR0)
	sw	s3,12(sp)
	addi	s1,s1,%lo(.LANCHOR0)
	.cfi_offset 19, -20
	slli	s3,a1,2
	sw	s2,16(sp)
	sw	ra,28(sp)
	sw	s0,24(sp)
	.cfi_offset 18, -16
	.cfi_offset 1, -4
	.cfi_offset 8, -8
	mv	s2,a1
.LBB28:
.LBB29:
.LBB30:
	.loc 1 79 6
	add	s3,s1,s3
.LVL188:
.L53:
.LBE30:
.LBE29:
	.loc 1 99 3 is_stmt 1
.LBB35:
.LBB31:
	.loc 1 79 2
	.loc 1 79 6 is_stmt 0
	lw	a5,128(s3)
.LVL189:
	.loc 1 80 2 is_stmt 1
	.loc 1 80 6 is_stmt 0
	addi	s0,a0,-1
.LVL190:
	.loc 1 81 2 is_stmt 1
	.loc 1 82 2
	.loc 1 82 15
	ble	s2,a0,.L69
.L76:
	.loc 1 83 3
	.loc 1 83 8 is_stmt 0
	slli	a4,a0,2
	add	a4,s1,a4
	.loc 1 83 5
	lw	a4,128(a4)
	ble	a5,a4,.L55
	.loc 1 84 6
	mv	s0,a0
.LVL191:
.L55:
	.loc 1 82 20 is_stmt 1
	addi	a4,a0,1
.LVL192:
	.loc 1 82 15
	ble	s2,a4,.L56
	.loc 1 83 3
	.loc 1 83 8 is_stmt 0
	slli	a4,a4,2
.LVL193:
	add	a4,s1,a4
	lw	a3,128(a4)
	.loc 1 83 5
	ble	a5,a3,.L57
	.loc 1 84 6
	addi	s0,s0,1
.LVL194:
	.loc 1 85 9
	slli	a2,s0,2
	add	a2,s1,a2
	lw	a1,128(a2)
	.loc 1 84 4 is_stmt 1
.LVL195:
	.loc 1 85 4
	.loc 1 86 4
	.loc 1 86 10 is_stmt 0
	sw	a3,128(a2)
.LVL196:
	.loc 1 87 4 is_stmt 1
	.loc 1 87 10 is_stmt 0
	sw	a1,128(a4)
.LVL197:
.L57:
	.loc 1 82 20 is_stmt 1
	addi	a4,a0,2
.LVL198:
	.loc 1 82 15
	ble	s2,a4,.L56
	.loc 1 83 3
	.loc 1 83 8 is_stmt 0
	slli	a4,a4,2
.LVL199:
	add	a4,s1,a4
	lw	a3,128(a4)
	.loc 1 83 5
	ble	a5,a3,.L58
	.loc 1 84 6
	addi	s0,s0,1
.LVL200:
	.loc 1 85 9
	slli	a2,s0,2
	add	a2,s1,a2
	lw	a1,128(a2)
	.loc 1 84 4 is_stmt 1
.LVL201:
	.loc 1 85 4
	.loc 1 86 4
	.loc 1 86 10 is_stmt 0
	sw	a3,128(a2)
.LVL202:
	.loc 1 87 4 is_stmt 1
	.loc 1 87 10 is_stmt 0
	sw	a1,128(a4)
.LVL203:
.L58:
	.loc 1 82 20 is_stmt 1
	addi	a4,a0,3
.LVL204:
	.loc 1 82 15
	ble	s2,a4,.L56
	.loc 1 83 3
	.loc 1 83 8 is_stmt 0
	slli	a4,a4,2
.LVL205:
	add	a4,s1,a4
	lw	a3,128(a4)
	.loc 1 83 5
	ble	a5,a3,.L59
	.loc 1 84 6
	addi	s0,s0,1
.LVL206:
	.loc 1 85 9
	slli	a2,s0,2
	add	a2,s1,a2
	lw	a1,128(a2)
	.loc 1 84 4 is_stmt 1
.LVL207:
	.loc 1 85 4
	.loc 1 86 4
	.loc 1 86 10 is_stmt 0
	sw	a3,128(a2)
.LVL208:
	.loc 1 87 4 is_stmt 1
	.loc 1 87 10 is_stmt 0
	sw	a1,128(a4)
.LVL209:
.L59:
	.loc 1 82 20 is_stmt 1
	addi	a4,a0,4
.LVL210:
	.loc 1 82 15
	ble	s2,a4,.L56
	.loc 1 83 3
	.loc 1 83 8 is_stmt 0
	slli	a4,a4,2
.LVL211:
	add	a4,s1,a4
	lw	a3,128(a4)
	.loc 1 83 5
	ble	a5,a3,.L60
	.loc 1 84 6
	addi	s0,s0,1
.LVL212:
	.loc 1 85 9
	slli	a2,s0,2
	add	a2,s1,a2
	lw	a1,128(a2)
	.loc 1 84 4 is_stmt 1
.LVL213:
	.loc 1 85 4
	.loc 1 86 4
	.loc 1 86 10 is_stmt 0
	sw	a3,128(a2)
.LVL214:
	.loc 1 87 4 is_stmt 1
	.loc 1 87 10 is_stmt 0
	sw	a1,128(a4)
.LVL215:
.L60:
	.loc 1 82 20 is_stmt 1
	addi	a4,a0,5
.LVL216:
	.loc 1 82 15
	ble	s2,a4,.L56
	.loc 1 83 3
	.loc 1 83 8 is_stmt 0
	slli	a4,a4,2
.LVL217:
	add	a4,s1,a4
	lw	a2,128(a4)
	.loc 1 83 5
	ble	a5,a2,.L61
	.loc 1 84 6
	addi	s0,s0,1
.LVL218:
	.loc 1 85 9
	slli	a3,s0,2
	add	a3,s1,a3
	lw	a1,128(a3)
	.loc 1 84 4 is_stmt 1
.LVL219:
	.loc 1 85 4
	.loc 1 86 4
	.loc 1 86 10 is_stmt 0
	sw	a2,128(a3)
.LVL220:
	.loc 1 87 4 is_stmt 1
	.loc 1 87 10 is_stmt 0
	sw	a1,128(a4)
.LVL221:
.L61:
	.loc 1 82 20 is_stmt 1
	addi	a4,a0,6
.LVL222:
	.loc 1 82 15
	ble	s2,a4,.L56
	.loc 1 83 3
	.loc 1 83 8 is_stmt 0
	slli	a4,a4,2
.LVL223:
	add	a4,s1,a4
	lw	a2,128(a4)
	.loc 1 83 5
	ble	a5,a2,.L62
	.loc 1 84 6
	addi	s0,s0,1
.LVL224:
	.loc 1 85 9
	slli	a3,s0,2
	add	a3,s1,a3
	lw	a1,128(a3)
	.loc 1 84 4 is_stmt 1
.LVL225:
	.loc 1 85 4
	.loc 1 86 4
	.loc 1 86 10 is_stmt 0
	sw	a2,128(a3)
.LVL226:
	.loc 1 87 4 is_stmt 1
	.loc 1 87 10 is_stmt 0
	sw	a1,128(a4)
.LVL227:
.L62:
	.loc 1 82 20 is_stmt 1
	addi	a4,a0,7
.LVL228:
	.loc 1 82 15
	ble	s2,a4,.L56
	.loc 1 83 3
	.loc 1 83 8 is_stmt 0
	slli	a4,a4,2
.LVL229:
	add	a4,s1,a4
	lw	a3,128(a4)
	.loc 1 83 5
	ble	a5,a3,.L63
	.loc 1 84 6
	addi	s0,s0,1
.LVL230:
	.loc 1 85 9
	slli	a2,s0,2
	add	a2,s1,a2
	lw	a1,128(a2)
	.loc 1 84 4 is_stmt 1
.LVL231:
	.loc 1 85 4
	.loc 1 86 4
	.loc 1 86 10 is_stmt 0
	sw	a3,128(a2)
.LVL232:
	.loc 1 87 4 is_stmt 1
	.loc 1 87 10 is_stmt 0
	sw	a1,128(a4)
.LVL233:
.L63:
	.loc 1 82 20 is_stmt 1
	addi	a4,a0,8
.LVL234:
	.loc 1 82 15
	ble	s2,a4,.L56
	.loc 1 83 3
	.loc 1 83 8 is_stmt 0
	slli	a4,a4,2
.LVL235:
	add	a4,s1,a4
	lw	a2,128(a4)
	.loc 1 83 5
	ble	a5,a2,.L64
	.loc 1 84 6
	addi	s0,s0,1
.LVL236:
	.loc 1 85 9
	slli	a3,s0,2
	add	a3,s1,a3
	lw	a1,128(a3)
	.loc 1 84 4 is_stmt 1
.LVL237:
	.loc 1 85 4
	.loc 1 86 4
	.loc 1 86 10 is_stmt 0
	sw	a2,128(a3)
.LVL238:
	.loc 1 87 4 is_stmt 1
	.loc 1 87 10 is_stmt 0
	sw	a1,128(a4)
.LVL239:
.L64:
	.loc 1 82 20 is_stmt 1
	addi	a4,a0,9
.LVL240:
	.loc 1 82 15
	ble	s2,a4,.L56
	.loc 1 83 3
	.loc 1 83 8 is_stmt 0
	slli	a4,a4,2
.LVL241:
	add	a4,s1,a4
	lw	a3,128(a4)
	.loc 1 83 5
	ble	a5,a3,.L56
	.loc 1 84 6
	addi	s0,s0,1
.LVL242:
	.loc 1 85 9
	slli	a5,s0,2
.LVL243:
	add	a5,s1,a5
	lw	a2,128(a5)
	.loc 1 84 4 is_stmt 1
.LVL244:
	.loc 1 85 4
	.loc 1 86 4
	.loc 1 86 10 is_stmt 0
	sw	a3,128(a5)
.LVL245:
	.loc 1 87 4 is_stmt 1
	.loc 1 87 10 is_stmt 0
	sw	a2,128(a4)
.LVL246:
	.loc 1 82 20 is_stmt 1
	.loc 1 82 15
.L56:
	.loc 1 90 7 is_stmt 0
	lw	a5,128(s3)
	.loc 1 90 18
	addi	a4,s0,1
.LVL247:
.L54:
	.loc 1 90 2 is_stmt 1
	.loc 1 90 16 is_stmt 0
	slli	a4,a4,2
	add	a4,s1,a4
	lw	a3,128(a4)
	.loc 1 90 4
	bge	a5,a3,.L66
	.loc 1 91 3 is_stmt 1
.LVL248:
	.loc 1 92 3
	.loc 1 92 11 is_stmt 0
	sw	a5,128(a4)
	.loc 1 93 3 is_stmt 1
.LBE31:
.LBE35:
	.loc 1 100 3 is_stmt 0
	mv	a1,s0
.LBB36:
.LBB32:
	.loc 1 93 10
	sw	a3,128(s3)
	.loc 1 95 2 is_stmt 1
.LVL249:
.LBE32:
.LBE36:
	.loc 1 100 3
	call	sort
.LVL250:
	.loc 1 101 3
	addi	a0,s0,2
.LBE28:
	.loc 1 98 2
	.loc 1 98 4 is_stmt 0
	bgt	s2,a0,.L53
.LVL251:
.L52:
	.loc 1 103 1
	lw	ra,28(sp)
	.cfi_remember_state
	.cfi_restore 1
	lw	s0,24(sp)
	.cfi_restore 8
	lw	s1,20(sp)
	.cfi_restore 9
	lw	s2,16(sp)
	.cfi_restore 18
.LVL252:
	lw	s3,12(sp)
	.cfi_restore 19
	addi	sp,sp,32
	.cfi_def_cfa_offset 0
	jr	ra
.LVL253:
.L66:
	.cfi_restore_state
.LBB39:
.LBB37:
.LBB33:
	.loc 1 95 2 is_stmt 1
.LBE33:
.LBE37:
	.loc 1 100 3
	mv	a1,s0
	call	sort
.LVL254:
	.loc 1 101 3
	addi	a0,s0,2
.LBE39:
	.loc 1 98 2
	.loc 1 98 4 is_stmt 0
	bge	a0,s2,.L52
.LBB40:
	.loc 1 99 3 is_stmt 1
.LVL255:
.LBB38:
.LBB34:
	.loc 1 79 2
	.loc 1 79 6 is_stmt 0
	lw	a5,128(s3)
.LVL256:
	.loc 1 80 2 is_stmt 1
	.loc 1 80 6 is_stmt 0
	addi	s0,a0,-1
.LVL257:
	.loc 1 81 2 is_stmt 1
	.loc 1 82 2
	.loc 1 82 15
	bgt	s2,a0,.L76
.LVL258:
.L69:
	mv	a4,a0
	j	.L54
.LVL259:
.L72:
	.cfi_def_cfa_offset 0
	.cfi_restore 1
	.cfi_restore 8
	.cfi_restore 9
	.cfi_restore 18
	.cfi_restore 19
	ret
.LBE34:
.LBE38:
.LBE40:
	.cfi_endproc
.LFE328:
	.size	sort, .-sort
	.align	2
	.globl	qsort
	.type	qsort, @function
qsort:
.LFB329:
	.loc 1 105 58
	.cfi_startproc
	.loc 1 106 2
.LVL260:
.LBB46:
.LBB47:
	.loc 1 98 2
.LBB48:
	.loc 1 99 3
.LBB49:
.LBB50:
	.loc 1 79 2
.LBE50:
.LBE49:
.LBE48:
.LBE47:
.LBE46:
	.loc 1 105 58 is_stmt 0
	addi	sp,sp,-32
	.cfi_def_cfa_offset 32
	sw	s0,24(sp)
	.cfi_offset 8, -8
.LBB67:
.LBB65:
.LBB61:
.LBB56:
.LBB51:
	.loc 1 79 6
	lui	s0,%hi(.LANCHOR0)
	addi	s0,s0,%lo(.LANCHOR0)
	lw	a5,164(s0)
.LVL261:
	.loc 1 80 2 is_stmt 1
	.loc 1 81 2
	.loc 1 82 2
	.loc 1 82 15
.LBE51:
.LBE56:
.LBE61:
.LBE65:
.LBE67:
	.loc 1 105 58 is_stmt 0
	sw	s1,20(sp)
	sw	s2,16(sp)
	sw	s3,12(sp)
	sw	ra,28(sp)
	sw	s4,8(sp)
	.cfi_offset 9, -12
	.cfi_offset 18, -16
	.cfi_offset 19, -20
	.cfi_offset 1, -4
	.cfi_offset 20, -24
.LBB68:
.LBB66:
.LBB62:
.LBB57:
.LBB52:
	.loc 1 79 6
	li	a0,0
	.loc 1 80 6
	li	s1,-1
	.loc 1 82 15
	li	s3,9
.LBE52:
.LBE57:
.LBE62:
	.loc 1 98 4
	li	s2,8
.LVL262:
.L78:
.LBB63:
.LBB58:
.LBB53:
	.loc 1 83 3 is_stmt 1
	.loc 1 83 8 is_stmt 0
	slli	a4,a0,2
	add	a4,s0,a4
	.loc 1 83 5
	lw	a4,128(a4)
	bge	a4,a5,.L79
	mv	s1,a0
.LVL263:
.L79:
	.loc 1 82 20 is_stmt 1
	addi	a4,a0,1
.LVL264:
	.loc 1 82 15
	beq	a4,s3,.L80
	.loc 1 83 3
	.loc 1 83 8 is_stmt 0
	slli	a4,a4,2
.LVL265:
	add	a4,s0,a4
	lw	a3,128(a4)
	.loc 1 83 5
	bge	a3,a5,.L81
	.loc 1 84 6
	addi	s1,s1,1
.LVL266:
	.loc 1 85 9
	slli	a2,s1,2
	add	a2,s0,a2
	lw	a1,128(a2)
	.loc 1 84 4 is_stmt 1
.LVL267:
	.loc 1 85 4
	.loc 1 86 4
	.loc 1 86 10 is_stmt 0
	sw	a3,128(a2)
.LVL268:
	.loc 1 87 4 is_stmt 1
	.loc 1 87 10 is_stmt 0
	sw	a1,128(a4)
.LVL269:
.L81:
	.loc 1 82 20 is_stmt 1
	addi	a4,a0,2
.LVL270:
	.loc 1 82 15
	beq	a4,s3,.L80
	.loc 1 83 3
	.loc 1 83 8 is_stmt 0
	slli	a4,a4,2
.LVL271:
	add	a4,s0,a4
	lw	a3,128(a4)
	.loc 1 83 5
	bge	a3,a5,.L82
	.loc 1 84 6
	addi	s1,s1,1
.LVL272:
	.loc 1 85 9
	slli	a2,s1,2
	add	a2,s0,a2
	lw	a1,128(a2)
	.loc 1 84 4 is_stmt 1
.LVL273:
	.loc 1 85 4
	.loc 1 86 4
	.loc 1 86 10 is_stmt 0
	sw	a3,128(a2)
.LVL274:
	.loc 1 87 4 is_stmt 1
	.loc 1 87 10 is_stmt 0
	sw	a1,128(a4)
.LVL275:
.L82:
	.loc 1 82 20 is_stmt 1
	addi	a4,a0,3
.LVL276:
	.loc 1 82 15
	beq	a4,s3,.L80
	.loc 1 83 3
	.loc 1 83 8 is_stmt 0
	slli	a4,a4,2
.LVL277:
	add	a4,s0,a4
	lw	a3,128(a4)
	.loc 1 83 5
	bge	a3,a5,.L83
	.loc 1 84 6
	addi	s1,s1,1
.LVL278:
	.loc 1 85 9
	slli	a2,s1,2
	add	a2,s0,a2
	lw	a1,128(a2)
	.loc 1 84 4 is_stmt 1
.LVL279:
	.loc 1 85 4
	.loc 1 86 4
	.loc 1 86 10 is_stmt 0
	sw	a3,128(a2)
.LVL280:
	.loc 1 87 4 is_stmt 1
	.loc 1 87 10 is_stmt 0
	sw	a1,128(a4)
.LVL281:
.L83:
	.loc 1 82 20 is_stmt 1
	addi	a4,a0,4
.LVL282:
	.loc 1 82 15
	beq	a4,s3,.L80
	.loc 1 83 3
	.loc 1 83 8 is_stmt 0
	slli	a4,a4,2
.LVL283:
	add	a4,s0,a4
	lw	a3,128(a4)
	.loc 1 83 5
	bge	a3,a5,.L84
	.loc 1 84 6
	addi	s1,s1,1
.LVL284:
	.loc 1 85 9
	slli	a2,s1,2
	add	a2,s0,a2
	lw	a1,128(a2)
	.loc 1 84 4 is_stmt 1
.LVL285:
	.loc 1 85 4
	.loc 1 86 4
	.loc 1 86 10 is_stmt 0
	sw	a3,128(a2)
.LVL286:
	.loc 1 87 4 is_stmt 1
	.loc 1 87 10 is_stmt 0
	sw	a1,128(a4)
.LVL287:
.L84:
	.loc 1 82 20 is_stmt 1
	addi	a4,a0,5
.LVL288:
	.loc 1 82 15
	beq	a4,s3,.L80
	.loc 1 83 3
	.loc 1 83 8 is_stmt 0
	slli	a4,a4,2
.LVL289:
	add	a4,s0,a4
	lw	a2,128(a4)
	.loc 1 83 5
	bge	a2,a5,.L85
	.loc 1 84 6
	addi	s1,s1,1
.LVL290:
	.loc 1 85 9
	slli	a3,s1,2
	add	a3,s0,a3
	lw	a1,128(a3)
	.loc 1 84 4 is_stmt 1
.LVL291:
	.loc 1 85 4
	.loc 1 86 4
	.loc 1 86 10 is_stmt 0
	sw	a2,128(a3)
.LVL292:
	.loc 1 87 4 is_stmt 1
	.loc 1 87 10 is_stmt 0
	sw	a1,128(a4)
.LVL293:
.L85:
	.loc 1 82 20 is_stmt 1
	addi	a4,a0,6
.LVL294:
	.loc 1 82 15
	beq	a4,s3,.L80
	.loc 1 83 3
	.loc 1 83 8 is_stmt 0
	slli	a4,a4,2
.LVL295:
	add	a4,s0,a4
	lw	a2,128(a4)
	.loc 1 83 5
	ble	a5,a2,.L86
	.loc 1 84 6
	addi	s1,s1,1
.LVL296:
	.loc 1 85 9
	slli	a3,s1,2
	add	a3,s0,a3
	lw	a1,128(a3)
	.loc 1 84 4 is_stmt 1
.LVL297:
	.loc 1 85 4
	.loc 1 86 4
	.loc 1 86 10 is_stmt 0
	sw	a2,128(a3)
.LVL298:
	.loc 1 87 4 is_stmt 1
	.loc 1 87 10 is_stmt 0
	sw	a1,128(a4)
.LVL299:
.L86:
	.loc 1 82 20 is_stmt 1
	addi	a4,a0,7
.LVL300:
	.loc 1 82 15
	beq	a4,s3,.L80
	.loc 1 83 3
	.loc 1 83 8 is_stmt 0
	slli	a4,a4,2
.LVL301:
	add	a4,s0,a4
	lw	a3,128(a4)
	.loc 1 83 5
	ble	a5,a3,.L87
	.loc 1 84 6
	addi	s1,s1,1
.LVL302:
	.loc 1 85 9
	slli	a2,s1,2
	add	a2,s0,a2
	lw	a1,128(a2)
	.loc 1 84 4 is_stmt 1
.LVL303:
	.loc 1 85 4
	.loc 1 86 4
	.loc 1 86 10 is_stmt 0
	sw	a3,128(a2)
.LVL304:
	.loc 1 87 4 is_stmt 1
	.loc 1 87 10 is_stmt 0
	sw	a1,128(a4)
.LVL305:
.L87:
	.loc 1 82 20 is_stmt 1
	.loc 1 82 15
	bne	a0,zero,.L80
.LVL306:
	.loc 1 83 3
	.loc 1 83 8 is_stmt 0
	lw	a4,160(s0)
	.loc 1 83 5
	bge	a4,a5,.L80
	.loc 1 84 6
	addi	s1,s1,1
.LVL307:
	.loc 1 85 9
	slli	a5,s1,2
.LVL308:
	add	a5,s0,a5
	lw	a3,128(a5)
	.loc 1 84 4 is_stmt 1
.LVL309:
	.loc 1 85 4
	.loc 1 86 4
	.loc 1 86 10 is_stmt 0
	sw	a4,128(a5)
.LVL310:
	.loc 1 87 4 is_stmt 1
	.loc 1 87 10 is_stmt 0
	sw	a3,160(s0)
.LVL311:
	.loc 1 82 20 is_stmt 1
	.loc 1 82 15
.L80:
	.loc 1 90 18 is_stmt 0
	addi	s4,s1,1
	.loc 1 90 16
	slli	a5,s4,2
	add	a5,s0,a5
	.loc 1 90 7
	lw	a3,164(s0)
	.loc 1 90 2 is_stmt 1
	.loc 1 90 16 is_stmt 0
	lw	a4,128(a5)
	.loc 1 90 4
	ble	a4,a3,.L89
	.loc 1 91 3 is_stmt 1
.LVL312:
	.loc 1 92 3
	.loc 1 92 11 is_stmt 0
	sw	a3,128(a5)
	.loc 1 93 3 is_stmt 1
.LBE53:
.LBE58:
	.loc 1 100 3 is_stmt 0
	mv	a1,s1
.LBB59:
.LBB54:
	.loc 1 93 10
	sw	a4,164(s0)
	.loc 1 95 2 is_stmt 1
.LVL313:
.LBE54:
.LBE59:
	.loc 1 100 3
	call	sort
.LVL314:
	.loc 1 101 3
	addi	a0,s1,2
.LBE63:
	.loc 1 98 2
	.loc 1 98 4 is_stmt 0
	bgt	a0,s2,.L91
.LVL315:
.L90:
.LBB64:
	.loc 1 99 3 is_stmt 1
.LBB60:
.LBB55:
	.loc 1 79 2
	.loc 1 79 6 is_stmt 0
	lw	a5,164(s0)
.LVL316:
	.loc 1 80 2 is_stmt 1
	.loc 1 80 6 is_stmt 0
	mv	s1,s4
.LVL317:
	.loc 1 81 2 is_stmt 1
	.loc 1 82 2
	.loc 1 82 15
	j	.L78
.LVL318:
.L89:
	.loc 1 95 2
.LBE55:
.LBE60:
	.loc 1 100 3
	mv	a1,s1
	call	sort
.LVL319:
	.loc 1 101 3
	addi	a0,s1,2
.LBE64:
	.loc 1 98 2
	.loc 1 98 4 is_stmt 0
	ble	a0,s2,.L90
.LVL320:
.L91:
.LBE66:
.LBE68:
	.loc 1 107 2 is_stmt 1
	.loc 1 108 1 is_stmt 0
	lw	ra,28(sp)
	.cfi_restore 1
	addi	a0,s0,128
	lw	s0,24(sp)
	.cfi_restore 8
	lw	s1,20(sp)
	.cfi_restore 9
	lw	s2,16(sp)
	.cfi_restore 18
	lw	s3,12(sp)
	.cfi_restore 19
	lw	s4,8(sp)
	.cfi_restore 20
	addi	sp,sp,32
	.cfi_def_cfa_offset 0
	jr	ra
	.cfi_endproc
.LFE329:
	.size	qsort, .-qsort
	.align	2
	.globl	initfir
	.type	initfir, @function
initfir:
.LFB330:
	.loc 1 111 61 is_stmt 1
	.cfi_startproc
	.loc 1 114 2
	.loc 1 114 36 is_stmt 0
	li	a5,822083584
	sw	zero,64(a5)
	.loc 1 115 2 is_stmt 1
	.loc 1 115 36 is_stmt 0
	li	a4,-10
	sw	a4,68(a5)
	.loc 1 116 2 is_stmt 1
	.loc 1 116 36 is_stmt 0
	li	a3,-9
	sw	a3,72(a5)
	.loc 1 117 2 is_stmt 1
	.loc 1 117 36 is_stmt 0
	li	a2,23
	sw	a2,76(a5)
	.loc 1 118 2 is_stmt 1
	.loc 1 118 36 is_stmt 0
	li	a1,56
	sw	a1,80(a5)
	.loc 1 119 2 is_stmt 1
	.loc 1 119 36 is_stmt 0
	li	a0,63
	sw	a0,84(a5)
	.loc 1 120 2 is_stmt 1
	.loc 1 120 36 is_stmt 0
	sw	a1,88(a5)
	.loc 1 121 2 is_stmt 1
	.loc 1 121 36 is_stmt 0
	sw	a2,92(a5)
	.loc 1 122 2 is_stmt 1
	.loc 1 122 36 is_stmt 0
	sw	a3,96(a5)
	.loc 1 123 2 is_stmt 1
	.loc 1 123 35 is_stmt 0
	sw	a4,100(a5)
	.loc 1 124 2 is_stmt 1
	.loc 1 124 35 is_stmt 0
	sw	zero,104(a5)
	.loc 1 126 2 is_stmt 1
	.loc 1 127 36 is_stmt 0
	li	a4,939528192
	.loc 1 126 36
	li	a3,64
	sw	a3,16(a5)
	.loc 1 127 2 is_stmt 1
	.loc 1 127 36 is_stmt 0
	addi	a3,a4,168
	sw	a3,20(a5)
	.loc 1 128 2 is_stmt 1
	.loc 1 128 36 is_stmt 0
	addi	a4,a4,496
	sw	a4,24(a5)
	.loc 1 130 2 is_stmt 1
	.loc 1 130 36 is_stmt 0
	li	a3,10813440
	li	a4,637534208
	sw	a3,12(a4)
	.loc 1 131 2 is_stmt 1
	.loc 1 131 36 is_stmt 0
	li	a4,1
	sw	a4,0(a5)
	.loc 1 132 1
	ret
	.cfi_endproc
.LFE330:
	.size	initfir, .-initfir
	.align	2
	.globl	fir
	.type	fir, @function
fir:
.LFB331:
	.loc 1 134 56 is_stmt 1
	.cfi_startproc
	.loc 1 135 2
	.loc 1 136 2
.LVL321:
	.loc 1 137 2
.LBB71:
.LBB72:
	.loc 1 114 2
	.loc 1 114 36 is_stmt 0
	li	a5,822083584
	sw	zero,64(a5)
	.loc 1 115 2 is_stmt 1
	.loc 1 115 36 is_stmt 0
	li	a4,-10
	sw	a4,68(a5)
	.loc 1 116 2 is_stmt 1
	.loc 1 116 36 is_stmt 0
	li	a3,-9
	sw	a3,72(a5)
	.loc 1 117 2 is_stmt 1
	.loc 1 117 36 is_stmt 0
	li	a2,23
	sw	a2,76(a5)
	.loc 1 118 2 is_stmt 1
	.loc 1 118 36 is_stmt 0
	li	a1,56
	sw	a1,80(a5)
	.loc 1 119 2 is_stmt 1
	.loc 1 119 36 is_stmt 0
	li	a0,63
	sw	a0,84(a5)
	.loc 1 120 2 is_stmt 1
	.loc 1 120 36 is_stmt 0
	sw	a1,88(a5)
	.loc 1 121 2 is_stmt 1
	.loc 1 121 36 is_stmt 0
	sw	a2,92(a5)
	.loc 1 122 2 is_stmt 1
	.loc 1 122 36 is_stmt 0
	sw	a3,96(a5)
	.loc 1 123 2 is_stmt 1
	.loc 1 123 35 is_stmt 0
	sw	a4,100(a5)
	.loc 1 124 2 is_stmt 1
	.loc 1 124 35 is_stmt 0
	sw	zero,104(a5)
	.loc 1 126 2 is_stmt 1
	.loc 1 127 36 is_stmt 0
	li	a4,939528192
	.loc 1 126 36
	li	a3,64
	sw	a3,16(a5)
	.loc 1 127 2 is_stmt 1
	.loc 1 127 36 is_stmt 0
	addi	a3,a4,168
	sw	a3,20(a5)
	.loc 1 128 2 is_stmt 1
	.loc 1 128 36 is_stmt 0
	addi	a4,a4,496
	sw	a4,24(a5)
	.loc 1 130 2 is_stmt 1
	.loc 1 130 36 is_stmt 0
	li	a3,10813440
	li	a4,637534208
	sw	a3,12(a4)
	.loc 1 131 2 is_stmt 1
	.loc 1 131 36 is_stmt 0
	li	a4,1
	sw	a4,0(a5)
.LBE72:
.LBE71:
	.loc 1 142 2 is_stmt 1
	.loc 1 142 7 is_stmt 0
	lw	a5,0(a5)
.LVL322:
	.loc 1 143 2 is_stmt 1
	.loc 1 143 8
	andi	a5,a5,2
.LVL323:
	bne	a5,zero,.L96
	.loc 1 144 8 is_stmt 0
	li	a4,822083584
.LVL324:
.L97:
	.loc 1 144 3 is_stmt 1
	.loc 1 144 8 is_stmt 0
	lw	a5,0(a4)
.LVL325:
	.loc 1 143 8 is_stmt 1
	andi	a5,a5,2
.LVL326:
	beq	a5,zero,.L97
.LVL327:
.L96:
	.loc 1 147 2
	.loc 1 147 36 is_stmt 0
	li	a5,637534208
	li	a4,-10878976
	.loc 1 150 1
	lui	a0,%hi(.LANCHOR1+64)
	.loc 1 147 36
	sw	a4,12(a5)
	.loc 1 149 2 is_stmt 1
	.loc 1 150 1 is_stmt 0
	addi	a0,a0,%lo(.LANCHOR1+64)
	ret
	.cfi_endproc
.LFE331:
	.size	fir, .-fir
	.globl	inputdata
	.globl	ans
	.globl	QS
	.globl	result
	.globl	B
	.globl	A
	.data
	.align	2
	.set	.LANCHOR0,. + 0
	.type	B, @object
	.size	B, 64
B:
	.word	1
	.word	2
	.word	3
	.word	4
	.word	5
	.word	6
	.word	7
	.word	8
	.word	9
	.word	10
	.word	11
	.word	12
	.word	13
	.word	14
	.word	15
	.word	16
	.type	A, @object
	.size	A, 64
A:
	.word	0
	.word	1
	.word	2
	.word	3
	.word	0
	.word	1
	.word	2
	.word	3
	.word	0
	.word	1
	.word	2
	.word	3
	.word	0
	.word	1
	.word	2
	.word	3
	.type	QS, @object
	.size	QS, 40
QS:
	.word	893
	.word	40
	.word	3233
	.word	4267
	.word	2669
	.word	2541
	.word	9073
	.word	6023
	.word	5681
	.word	4622
	.type	inputdata, @object
	.size	inputdata, 256
inputdata:
	.word	0
	.word	1
	.word	2
	.word	3
	.word	4
	.word	5
	.word	6
	.word	7
	.word	8
	.word	9
	.word	10
	.word	11
	.word	12
	.word	13
	.word	14
	.word	15
	.word	16
	.word	17
	.word	18
	.word	19
	.word	20
	.word	21
	.word	22
	.word	23
	.word	24
	.word	25
	.word	26
	.word	27
	.word	28
	.word	29
	.word	30
	.word	31
	.word	32
	.word	33
	.word	34
	.word	35
	.word	36
	.word	37
	.word	38
	.word	39
	.word	40
	.word	41
	.word	42
	.word	43
	.word	44
	.word	45
	.word	46
	.word	47
	.word	48
	.word	49
	.word	50
	.word	51
	.word	52
	.word	53
	.word	54
	.word	55
	.word	56
	.word	57
	.word	58
	.word	59
	.word	60
	.word	61
	.word	62
	.word	63
	.bss
	.align	2
	.set	.LANCHOR1,. + 0
	.type	result, @object
	.size	result, 64
result:
	.zero	64
	.type	ans, @object
	.size	ans, 256
ans:
	.zero	256
	.text
.Letext0:
	.file 2 "function.h"
	.file 3 "/opt/riscv/lib/gcc/riscv32-unknown-elf/12.1.0/include/stdint-gcc.h"